   1               		.file	"Display.c"
   2               	__SP_H__ = 0x3e
   3               	__SP_L__ = 0x3d
   4               	__SREG__ = 0x3f
   5               	__RAMPZ__ = 0x3b
   6               	__tmp_reg__ = 0
   7               	__zero_reg__ = 1
   9               		.text
  10               	.Ltext0:
 139               	.global	getCharWidth
 141               	getCharWidth:
   1:/Users/manueldeneu/Documents/projets/dev/Monu100/MicroController/MicMonu100/MicMonu100/Display.c **** //
   2:/Users/manueldeneu/Documents/projets/dev/Monu100/MicroController/MicMonu100/MicMonu100/Display.c **** //  Display.c
   3:/Users/manueldeneu/Documents/projets/dev/Monu100/MicroController/MicMonu100/MicMonu100/Display.c **** //  MicMonu100
   4:/Users/manueldeneu/Documents/projets/dev/Monu100/MicroController/MicMonu100/MicMonu100/Display.c **** //
   5:/Users/manueldeneu/Documents/projets/dev/Monu100/MicroController/MicMonu100/MicMonu100/Display.c **** //  Created by Manuel Deneu on 01/03/15.
   6:/Users/manueldeneu/Documents/projets/dev/Monu100/MicroController/MicMonu100/MicMonu100/Display.c **** //  Copyright (c) 2015 Manuel Deneu. All rights reserved.
   7:/Users/manueldeneu/Documents/projets/dev/Monu100/MicroController/MicMonu100/MicMonu100/Display.c **** //
   8:/Users/manueldeneu/Documents/projets/dev/Monu100/MicroController/MicMonu100/MicMonu100/Display.c **** #include <stdio.h>
   9:/Users/manueldeneu/Documents/projets/dev/Monu100/MicroController/MicMonu100/MicMonu100/Display.c **** #include <avr/io.h>
  10:/Users/manueldeneu/Documents/projets/dev/Monu100/MicroController/MicMonu100/MicMonu100/Display.c **** #define __PROG_TYPES_COMPAT__
  11:/Users/manueldeneu/Documents/projets/dev/Monu100/MicroController/MicMonu100/MicMonu100/Display.c **** #include <avr/pgmspace.h>
  12:/Users/manueldeneu/Documents/projets/dev/Monu100/MicroController/MicMonu100/MicMonu100/Display.c **** #include <avr/interrupt.h>
  13:/Users/manueldeneu/Documents/projets/dev/Monu100/MicroController/MicMonu100/MicMonu100/Display.c **** #include <stdlib.h>
  14:/Users/manueldeneu/Documents/projets/dev/Monu100/MicroController/MicMonu100/MicMonu100/Display.c **** #include "PinsConfig.h"
  15:/Users/manueldeneu/Documents/projets/dev/Monu100/MicroController/MicMonu100/MicMonu100/Display.c **** 
  16:/Users/manueldeneu/Documents/projets/dev/Monu100/MicroController/MicMonu100/MicMonu100/Display.c **** #include "Display.h"
  17:/Users/manueldeneu/Documents/projets/dev/Monu100/MicroController/MicMonu100/MicMonu100/Display.c **** 
  18:/Users/manueldeneu/Documents/projets/dev/Monu100/MicroController/MicMonu100/MicMonu100/Display.c **** #include "Chars.h"
  19:/Users/manueldeneu/Documents/projets/dev/Monu100/MicroController/MicMonu100/MicMonu100/Display.c **** 
  20:/Users/manueldeneu/Documents/projets/dev/Monu100/MicroController/MicMonu100/MicMonu100/Display.c **** 
  21:/Users/manueldeneu/Documents/projets/dev/Monu100/MicroController/MicMonu100/MicMonu100/Display.c **** extern Display _display;
  22:/Users/manueldeneu/Documents/projets/dev/Monu100/MicroController/MicMonu100/MicMonu100/Display.c **** 
  23:/Users/manueldeneu/Documents/projets/dev/Monu100/MicroController/MicMonu100/MicMonu100/Display.c **** /* **** **** **** **** **** **** **** **** **** **** **** **** **** **** **** **** **** **** **** *
  24:/Users/manueldeneu/Documents/projets/dev/Monu100/MicroController/MicMonu100/MicMonu100/Display.c **** 
  25:/Users/manueldeneu/Documents/projets/dev/Monu100/MicroController/MicMonu100/MicMonu100/Display.c **** uint8_t getCharWidth()
  26:/Users/manueldeneu/Documents/projets/dev/Monu100/MicroController/MicMonu100/MicMonu100/Display.c **** {
 143               	.LM0:
 144               	.LFBB1:
 145               	/* prologue: function */
 146               	/* frame size = 0 */
 147               	/* stack size = 0 */
 148               	.L__stack_usage = 0
  27:/Users/manueldeneu/Documents/projets/dev/Monu100/MicroController/MicMonu100/MicMonu100/Display.c ****     return CHAR_WIDTH;
  28:/Users/manueldeneu/Documents/projets/dev/Monu100/MicroController/MicMonu100/MicMonu100/Display.c **** }
 150               	.LM1:
 151 0000 88E0      		ldi r24,lo8(8)
 152 0002 0895      		ret
 154               	.Lscope1:
 156               	.global	getCharHeight
 158               	getCharHeight:
  29:/Users/manueldeneu/Documents/projets/dev/Monu100/MicroController/MicMonu100/MicMonu100/Display.c **** uint8_t getCharHeight()
  30:/Users/manueldeneu/Documents/projets/dev/Monu100/MicroController/MicMonu100/MicMonu100/Display.c **** {
 160               	.LM2:
 161               	.LFBB2:
 162               	/* prologue: function */
 163               	/* frame size = 0 */
 164               	/* stack size = 0 */
 165               	.L__stack_usage = 0
  31:/Users/manueldeneu/Documents/projets/dev/Monu100/MicroController/MicMonu100/MicMonu100/Display.c ****     return CHAR_HEIGHT;
  32:/Users/manueldeneu/Documents/projets/dev/Monu100/MicroController/MicMonu100/MicMonu100/Display.c **** }
 167               	.LM3:
 168 0004 8AE0      		ldi r24,lo8(10)
 169 0006 0895      		ret
 171               	.Lscope2:
 173               	.global	__vector_21
 175               	__vector_21:
  33:/Users/manueldeneu/Documents/projets/dev/Monu100/MicroController/MicMonu100/MicMonu100/Display.c **** 
  34:/Users/manueldeneu/Documents/projets/dev/Monu100/MicroController/MicMonu100/MicMonu100/Display.c **** inline uint8_t clipVal( uint8_t val)
  35:/Users/manueldeneu/Documents/projets/dev/Monu100/MicroController/MicMonu100/MicMonu100/Display.c **** {
  36:/Users/manueldeneu/Documents/projets/dev/Monu100/MicroController/MicMonu100/MicMonu100/Display.c ****     return val>=PIXEL_MAX_VALUE ? PIXEL_MAX_VALUE : val;
  37:/Users/manueldeneu/Documents/projets/dev/Monu100/MicroController/MicMonu100/MicMonu100/Display.c **** }
  38:/Users/manueldeneu/Documents/projets/dev/Monu100/MicroController/MicMonu100/MicMonu100/Display.c **** 
  39:/Users/manueldeneu/Documents/projets/dev/Monu100/MicroController/MicMonu100/MicMonu100/Display.c **** /* **** **** **** **** **** **** **** **** **** **** **** **** **** **** **** **** **** **** **** *
  40:/Users/manueldeneu/Documents/projets/dev/Monu100/MicroController/MicMonu100/MicMonu100/Display.c **** /* **** **** **** **** **** **** **** **** **** **** **** **** **** **** **** **** **** **** **** *
  41:/Users/manueldeneu/Documents/projets/dev/Monu100/MicroController/MicMonu100/MicMonu100/Display.c **** 
  42:/Users/manueldeneu/Documents/projets/dev/Monu100/MicroController/MicMonu100/MicMonu100/Display.c **** inline void sendSPI( const uint8_t val)
  43:/Users/manueldeneu/Documents/projets/dev/Monu100/MicroController/MicMonu100/MicMonu100/Display.c **** {
  44:/Users/manueldeneu/Documents/projets/dev/Monu100/MicroController/MicMonu100/MicMonu100/Display.c ****     SPDR = val;
  45:/Users/manueldeneu/Documents/projets/dev/Monu100/MicroController/MicMonu100/MicMonu100/Display.c ****     while (!(SPSR & (1 << SPIF)));
  46:/Users/manueldeneu/Documents/projets/dev/Monu100/MicroController/MicMonu100/MicMonu100/Display.c **** }
  47:/Users/manueldeneu/Documents/projets/dev/Monu100/MicroController/MicMonu100/MicMonu100/Display.c **** 
  48:/Users/manueldeneu/Documents/projets/dev/Monu100/MicroController/MicMonu100/MicMonu100/Display.c **** /* **** **** **** **** **** **** **** **** **** **** **** **** **** **** **** **** **** **** **** *
  49:/Users/manueldeneu/Documents/projets/dev/Monu100/MicroController/MicMonu100/MicMonu100/Display.c **** // display's interupt
  50:/Users/manueldeneu/Documents/projets/dev/Monu100/MicroController/MicMonu100/MicMonu100/Display.c **** 
  51:/Users/manueldeneu/Documents/projets/dev/Monu100/MicroController/MicMonu100/MicMonu100/Display.c **** ISR(TIMER0_COMPA_vect)
  52:/Users/manueldeneu/Documents/projets/dev/Monu100/MicroController/MicMonu100/MicMonu100/Display.c **** {
 177               	.LM4:
 178               	.LFBB3:
 179 0008 1F92      		push r1
 180 000a 0F92      		push r0
 181 000c 0FB6      		in r0,__SREG__
 182 000e 0F92      		push r0
 183 0010 1124      		clr __zero_reg__
 184 0012 0BB6      		in r0,__RAMPZ__
 185 0014 0F92      		push r0
 186 0016 2F93      		push r18
 187 0018 3F93      		push r19
 188 001a 4F93      		push r20
 189 001c 5F93      		push r21
 190 001e 6F93      		push r22
 191 0020 7F93      		push r23
 192 0022 8F93      		push r24
 193 0024 9F93      		push r25
 194 0026 EF93      		push r30
 195 0028 FF93      		push r31
 196               	/* prologue: Signal */
 197               	/* frame size = 0 */
 198               	/* stack size = 14 */
 199               	.L__stack_usage = 14
  53:/Users/manueldeneu/Documents/projets/dev/Monu100/MicroController/MicMonu100/MicMonu100/Display.c ****     static uint16_t rowIndex = Y_MIC_MAX;
  54:/Users/manueldeneu/Documents/projets/dev/Monu100/MicroController/MicMonu100/MicMonu100/Display.c ****     uint8_t firstCycleFlag = 1;// 0;
  55:/Users/manueldeneu/Documents/projets/dev/Monu100/MicroController/MicMonu100/MicMonu100/Display.c ****     static uint8_t xlatNeedsPulse = 0;
  56:/Users/manueldeneu/Documents/projets/dev/Monu100/MicroController/MicMonu100/MicMonu100/Display.c ****     
  57:/Users/manueldeneu/Documents/projets/dev/Monu100/MicroController/MicMonu100/MicMonu100/Display.c ****     
  58:/Users/manueldeneu/Documents/projets/dev/Monu100/MicroController/MicMonu100/MicMonu100/Display.c ****     
  59:/Users/manueldeneu/Documents/projets/dev/Monu100/MicroController/MicMonu100/MicMonu100/Display.c ****     if ( rowIndex == Y_MIC_MAX ) // matrix ok. return col0;
 201               	.LM5:
 202 002a 8091 0000 		lds r24,rowIndex.2268
 203 002e 9091 0000 		lds r25,rowIndex.2268+1
 204 0032 4E97      		sbiw r24,30
 205 0034 01F4      		brne .L4
  60:/Users/manueldeneu/Documents/projets/dev/Monu100/MicroController/MicMonu100/MicMonu100/Display.c ****     {
  61:/Users/manueldeneu/Documents/projets/dev/Monu100/MicroController/MicMonu100/MicMonu100/Display.c ****         setHigh( DATA0_PORT , DATA0_PIN);
 207               	.LM6:
 208 0036 8091 0B01 		lds r24,267
 209 003a 8860      		ori r24,lo8(8)
 210 003c 8093 0B01 		sts 267,r24
  62:/Users/manueldeneu/Documents/projets/dev/Monu100/MicroController/MicMonu100/MicMonu100/Display.c ****         setHigh( DATA1_PORT , DATA1_PIN);
 212               	.LM7:
 213 0040 8091 0B01 		lds r24,267
 214 0044 8061      		ori r24,lo8(16)
 215 0046 8093 0B01 		sts 267,r24
  63:/Users/manueldeneu/Documents/projets/dev/Monu100/MicroController/MicMonu100/MicMonu100/Display.c ****         
  64:/Users/manueldeneu/Documents/projets/dev/Monu100/MicroController/MicMonu100/MicMonu100/Display.c ****         rowIndex = 0;
 217               	.LM8:
 218 004a 1092 0000 		sts rowIndex.2268+1,__zero_reg__
 219 004e 1092 0000 		sts rowIndex.2268,__zero_reg__
 220 0052 00C0      		rjmp .L5
 221               	.L4:
  65:/Users/manueldeneu/Documents/projets/dev/Monu100/MicroController/MicMonu100/MicMonu100/Display.c ****         
  66:/Users/manueldeneu/Documents/projets/dev/Monu100/MicroController/MicMonu100/MicMonu100/Display.c ****     }
  67:/Users/manueldeneu/Documents/projets/dev/Monu100/MicroController/MicMonu100/MicMonu100/Display.c ****     else
  68:/Users/manueldeneu/Documents/projets/dev/Monu100/MicroController/MicMonu100/MicMonu100/Display.c ****     {
  69:/Users/manueldeneu/Documents/projets/dev/Monu100/MicroController/MicMonu100/MicMonu100/Display.c ****         setLow( DATA0_PORT , DATA0_PIN);
 223               	.LM9:
 224 0054 8091 0B01 		lds r24,267
 225 0058 877F      		andi r24,lo8(-9)
 226 005a 8093 0B01 		sts 267,r24
  70:/Users/manueldeneu/Documents/projets/dev/Monu100/MicroController/MicMonu100/MicMonu100/Display.c ****         setLow( DATA1_PORT , DATA1_PIN);
 228               	.LM10:
 229 005e 8091 0B01 		lds r24,267
 230 0062 8F7E      		andi r24,lo8(-17)
 231 0064 8093 0B01 		sts 267,r24
 232               	.L5:
  71:/Users/manueldeneu/Documents/projets/dev/Monu100/MicroController/MicMonu100/MicMonu100/Display.c ****     }
  72:/Users/manueldeneu/Documents/projets/dev/Monu100/MicroController/MicMonu100/MicMonu100/Display.c ****     
  73:/Users/manueldeneu/Documents/projets/dev/Monu100/MicroController/MicMonu100/MicMonu100/Display.c ****     
  74:/Users/manueldeneu/Documents/projets/dev/Monu100/MicroController/MicMonu100/MicMonu100/Display.c ****     setLow(BLANK_PORT, BLANK_PIN);
 234               	.LM11:
 235 0068 2898      		cbi 0x5,0
  75:/Users/manueldeneu/Documents/projets/dev/Monu100/MicroController/MicMonu100/MicMonu100/Display.c ****     
  76:/Users/manueldeneu/Documents/projets/dev/Monu100/MicroController/MicMonu100/MicMonu100/Display.c ****     _display.isDrawing = 1;
 237               	.LM12:
 238 006a 81E0      		ldi r24,lo8(1)
 239 006c 8093 0000 		sts _display+1804,r24
 240               	.LBB55:
 241               	.LBB56:
  44:/Users/manueldeneu/Documents/projets/dev/Monu100/MicroController/MicMonu100/MicMonu100/Display.c ****     SPDR = val;
 243               	.LM13:
 244 0070 1EBC      		out 0x2e,__zero_reg__
 245               	.L7:
  45:/Users/manueldeneu/Documents/projets/dev/Monu100/MicroController/MicMonu100/MicMonu100/Display.c ****     while (!(SPSR & (1 << SPIF)));
 247               	.LM14:
 248 0072 0DB4      		in __tmp_reg__,0x2d
 249 0074 07FE      		sbrs __tmp_reg__,7
 250 0076 00C0      		rjmp .L7
 251 0078 80E0      		ldi r24,0
 252 007a 90E0      		ldi r25,0
 253               	.LBE56:
 254               	.LBE55:
 255               	.LBB57:
 256               	.LBB58:
  77:/Users/manueldeneu/Documents/projets/dev/Monu100/MicroController/MicMonu100/MicMonu100/Display.c ****     /**** FILL TLC BUFFERS *****/
  78:/Users/manueldeneu/Documents/projets/dev/Monu100/MicroController/MicMonu100/MicMonu100/Display.c ****     
  79:/Users/manueldeneu/Documents/projets/dev/Monu100/MicroController/MicMonu100/MicMonu100/Display.c ****     // col 0 -> send dumm values ( not displayed)
  80:/Users/manueldeneu/Documents/projets/dev/Monu100/MicroController/MicMonu100/MicMonu100/Display.c ****     sendSPI(0b00000000); // p0
  81:/Users/manueldeneu/Documents/projets/dev/Monu100/MicroController/MicMonu100/MicMonu100/Display.c ****     
  82:/Users/manueldeneu/Documents/projets/dev/Monu100/MicroController/MicMonu100/MicMonu100/Display.c ****     for (int x=0;x<14;x+=2)
  83:/Users/manueldeneu/Documents/projets/dev/Monu100/MicroController/MicMonu100/MicMonu100/Display.c ****     {
  84:/Users/manueldeneu/Documents/projets/dev/Monu100/MicroController/MicMonu100/MicMonu100/Display.c ****         const uint8_t pixA = _display.buff_A/* pixels*/[x][rowIndex];
 258               	.LM15:
 259 007c 6EE1      		ldi r22,lo8(30)
 260               	.L15:
 262               	.LM16:
 263 007e 2091 0000 		lds r18,rowIndex.2268
 264 0082 3091 0000 		lds r19,rowIndex.2268+1
 265 0086 689F      		mul r22,r24
 266 0088 F001      		movw r30,r0
 267 008a 699F      		mul r22,r25
 268 008c F00D      		add r31,r0
 269 008e 1124      		clr __zero_reg__
 270 0090 E20F      		add r30,r18
 271 0092 F31F      		adc r31,r19
 272 0094 E050      		subi r30,lo8(-(_display))
 273 0096 F040      		sbci r31,hi8(-(_display))
 274 0098 7081      		ld r23,Z
  85:/Users/manueldeneu/Documents/projets/dev/Monu100/MicroController/MicMonu100/MicMonu100/Display.c ****         const uint8_t pixB =  _display.buff_A/*pixels*/[x+1][rowIndex];
 276               	.LM17:
 277 009a AC01      		movw r20,r24
 278 009c 4F5F      		subi r20,-1
 279 009e 5F4F      		sbci r21,-1
 280 00a0 649F      		mul r22,r20
 281 00a2 F001      		movw r30,r0
 282 00a4 659F      		mul r22,r21
 283 00a6 F00D      		add r31,r0
 284 00a8 1124      		clr __zero_reg__
 285 00aa E20F      		add r30,r18
 286 00ac F31F      		adc r31,r19
 287 00ae E050      		subi r30,lo8(-(_display))
 288 00b0 F040      		sbci r31,hi8(-(_display))
 289 00b2 2081      		ld r18,Z
  86:/Users/manueldeneu/Documents/projets/dev/Monu100/MicroController/MicMonu100/MicMonu100/Display.c ****         
  87:/Users/manueldeneu/Documents/projets/dev/Monu100/MicroController/MicMonu100/MicMonu100/Display.c ****         sendSPI( pixA >> 4); // p1
 291               	.LM18:
 292 00b4 372F      		mov r19,r23
 293 00b6 3295      		swap r19
 294 00b8 3F70      		andi r19,lo8(15)
 295               	.LBB59:
 296               	.LBB60:
  44:/Users/manueldeneu/Documents/projets/dev/Monu100/MicroController/MicMonu100/MicMonu100/Display.c ****     SPDR = val;
 298               	.LM19:
 299 00ba 3EBD      		out 0x2e,r19
 300               	.L9:
  45:/Users/manueldeneu/Documents/projets/dev/Monu100/MicroController/MicMonu100/MicMonu100/Display.c ****     while (!(SPSR & (1 << SPIF)));
 302               	.LM20:
 303 00bc 0DB4      		in __tmp_reg__,0x2d
 304 00be 07FE      		sbrs __tmp_reg__,7
 305 00c0 00C0      		rjmp .L9
 306               	.LBE60:
 307               	.LBE59:
  88:/Users/manueldeneu/Documents/projets/dev/Monu100/MicroController/MicMonu100/MicMonu100/Display.c ****         sendSPI( (uint8_t )(pixA << 4) ); // p1
 309               	.LM21:
 310 00c2 7295      		swap r23
 311 00c4 707F      		andi r23,lo8(-16)
 312               	.LBB61:
 313               	.LBB62:
  44:/Users/manueldeneu/Documents/projets/dev/Monu100/MicroController/MicMonu100/MicMonu100/Display.c ****     SPDR = val;
 315               	.LM22:
 316 00c6 7EBD      		out 0x2e,r23
 317               	.L11:
  45:/Users/manueldeneu/Documents/projets/dev/Monu100/MicroController/MicMonu100/MicMonu100/Display.c ****     while (!(SPSR & (1 << SPIF)));
 319               	.LM23:
 320 00c8 0DB4      		in __tmp_reg__,0x2d
 321 00ca 07FE      		sbrs __tmp_reg__,7
 322 00cc 00C0      		rjmp .L11
 323               	.LBE62:
 324               	.LBE61:
 325               	.LBB63:
 326               	.LBB64:
  44:/Users/manueldeneu/Documents/projets/dev/Monu100/MicroController/MicMonu100/MicMonu100/Display.c ****     SPDR = val;
 328               	.LM24:
 329 00ce 2EBD      		out 0x2e,r18
 330               	.L13:
  45:/Users/manueldeneu/Documents/projets/dev/Monu100/MicroController/MicMonu100/MicMonu100/Display.c ****     while (!(SPSR & (1 << SPIF)));
 332               	.LM25:
 333 00d0 0DB4      		in __tmp_reg__,0x2d
 334 00d2 07FE      		sbrs __tmp_reg__,7
 335 00d4 00C0      		rjmp .L13
 336               	.LBE64:
 337               	.LBE63:
 338               	.LBE58:
  82:/Users/manueldeneu/Documents/projets/dev/Monu100/MicroController/MicMonu100/MicMonu100/Display.c ****     for (int x=0;x<14;x+=2)
 340               	.LM26:
 341 00d6 0296      		adiw r24,2
 342 00d8 8E30      		cpi r24,14
 343 00da 9105      		cpc r25,__zero_reg__
 344 00dc 01F4      		brne .L15
 345               	.LBE57:
  89:/Users/manueldeneu/Documents/projets/dev/Monu100/MicroController/MicMonu100/MicMonu100/Display.c ****         sendSPI( pixB ); // p2
  90:/Users/manueldeneu/Documents/projets/dev/Monu100/MicroController/MicMonu100/MicMonu100/Display.c ****     }
  91:/Users/manueldeneu/Documents/projets/dev/Monu100/MicroController/MicMonu100/MicMonu100/Display.c ****     
  92:/Users/manueldeneu/Documents/projets/dev/Monu100/MicroController/MicMonu100/MicMonu100/Display.c ****     //  col 15 a la mano
  93:/Users/manueldeneu/Documents/projets/dev/Monu100/MicroController/MicMonu100/MicMonu100/Display.c ****     sendSPI( _display.buff_A/* pixels*/[14][rowIndex] >> 4); // p15
 347               	.LM27:
 348 00de E091 0000 		lds r30,rowIndex.2268
 349 00e2 F091 0000 		lds r31,rowIndex.2268+1
 350 00e6 E050      		subi r30,lo8(-(_display+420))
 351 00e8 F040      		sbci r31,hi8(-(_display+420))
 352 00ea 8081      		ld r24,Z
 353 00ec 8295      		swap r24
 354 00ee 8F70      		andi r24,lo8(15)
 355               	.LBB65:
 356               	.LBB66:
  44:/Users/manueldeneu/Documents/projets/dev/Monu100/MicroController/MicMonu100/MicMonu100/Display.c ****     SPDR = val;
 358               	.LM28:
 359 00f0 8EBD      		out 0x2e,r24
 360               	.L17:
  45:/Users/manueldeneu/Documents/projets/dev/Monu100/MicroController/MicMonu100/MicMonu100/Display.c ****     while (!(SPSR & (1 << SPIF)));
 362               	.LM29:
 363 00f2 0DB4      		in __tmp_reg__,0x2d
 364 00f4 07FE      		sbrs __tmp_reg__,7
 365 00f6 00C0      		rjmp .L17
 366               	.LBE66:
 367               	.LBE65:
  94:/Users/manueldeneu/Documents/projets/dev/Monu100/MicroController/MicMonu100/MicMonu100/Display.c ****     sendSPI( (uint8_t )(  _display.buff_A/*pixels*/[14][rowIndex] << 4) ); // p15
 369               	.LM30:
 370 00f8 E091 0000 		lds r30,rowIndex.2268
 371 00fc F091 0000 		lds r31,rowIndex.2268+1
 372 0100 E050      		subi r30,lo8(-(_display+420))
 373 0102 F040      		sbci r31,hi8(-(_display+420))
 374 0104 8081      		ld r24,Z
 375 0106 8295      		swap r24
 376 0108 807F      		andi r24,lo8(-16)
 377               	.LBB67:
 378               	.LBB68:
  44:/Users/manueldeneu/Documents/projets/dev/Monu100/MicroController/MicMonu100/MicMonu100/Display.c ****     SPDR = val;
 380               	.LM31:
 381 010a 8EBD      		out 0x2e,r24
 382               	.L19:
  45:/Users/manueldeneu/Documents/projets/dev/Monu100/MicroController/MicMonu100/MicMonu100/Display.c ****     while (!(SPSR & (1 << SPIF)));
 384               	.LM32:
 385 010c 0DB4      		in __tmp_reg__,0x2d
 386 010e 07FE      		sbrs __tmp_reg__,7
 387 0110 00C0      		rjmp .L19
 388               	.LBE68:
 389               	.LBE67:
 390               	.LBB69:
 391               	.LBB70:
  44:/Users/manueldeneu/Documents/projets/dev/Monu100/MicroController/MicMonu100/MicMonu100/Display.c ****     SPDR = val;
 393               	.LM33:
 394 0112 1EBC      		out 0x2e,__zero_reg__
 395               	.L21:
  45:/Users/manueldeneu/Documents/projets/dev/Monu100/MicroController/MicMonu100/MicMonu100/Display.c ****     while (!(SPSR & (1 << SPIF)));
 397               	.LM34:
 398 0114 0DB4      		in __tmp_reg__,0x2d
 399 0116 07FE      		sbrs __tmp_reg__,7
 400 0118 00C0      		rjmp .L21
 401 011a 8FE0      		ldi r24,lo8(15)
 402 011c 90E0      		ldi r25,0
 403               	.LBE70:
 404               	.LBE69:
 405               	.LBB71:
 406               	.LBB72:
  95:/Users/manueldeneu/Documents/projets/dev/Monu100/MicroController/MicMonu100/MicMonu100/Display.c ****     
  96:/Users/manueldeneu/Documents/projets/dev/Monu100/MicroController/MicMonu100/MicMonu100/Display.c ****     /**/
  97:/Users/manueldeneu/Documents/projets/dev/Monu100/MicroController/MicMonu100/MicMonu100/Display.c ****     
  98:/Users/manueldeneu/Documents/projets/dev/Monu100/MicroController/MicMonu100/MicMonu100/Display.c ****     // col 16 -> send dumm values ( not displayed)
  99:/Users/manueldeneu/Documents/projets/dev/Monu100/MicroController/MicMonu100/MicMonu100/Display.c ****     sendSPI(0b00000000); // p16
 100:/Users/manueldeneu/Documents/projets/dev/Monu100/MicroController/MicMonu100/MicMonu100/Display.c ****     
 101:/Users/manueldeneu/Documents/projets/dev/Monu100/MicroController/MicMonu100/MicMonu100/Display.c ****     for (int x = 15;x<28;x+=2)
 102:/Users/manueldeneu/Documents/projets/dev/Monu100/MicroController/MicMonu100/MicMonu100/Display.c ****     {
 103:/Users/manueldeneu/Documents/projets/dev/Monu100/MicroController/MicMonu100/MicMonu100/Display.c ****         const uint8_t pixA =  _display.buff_A/*pixels*/[x][rowIndex];
 408               	.LM35:
 409 011e 6EE1      		ldi r22,lo8(30)
 410               	.L29:
 412               	.LM36:
 413 0120 2091 0000 		lds r18,rowIndex.2268
 414 0124 3091 0000 		lds r19,rowIndex.2268+1
 415 0128 689F      		mul r22,r24
 416 012a F001      		movw r30,r0
 417 012c 699F      		mul r22,r25
 418 012e F00D      		add r31,r0
 419 0130 1124      		clr __zero_reg__
 420 0132 E20F      		add r30,r18
 421 0134 F31F      		adc r31,r19
 422 0136 E050      		subi r30,lo8(-(_display))
 423 0138 F040      		sbci r31,hi8(-(_display))
 424 013a 7081      		ld r23,Z
 104:/Users/manueldeneu/Documents/projets/dev/Monu100/MicroController/MicMonu100/MicMonu100/Display.c ****         const uint8_t pixB =  _display.buff_A/*pixels*/[x+1][rowIndex];
 426               	.LM37:
 427 013c AC01      		movw r20,r24
 428 013e 4F5F      		subi r20,-1
 429 0140 5F4F      		sbci r21,-1
 430 0142 649F      		mul r22,r20
 431 0144 F001      		movw r30,r0
 432 0146 659F      		mul r22,r21
 433 0148 F00D      		add r31,r0
 434 014a 1124      		clr __zero_reg__
 435 014c E20F      		add r30,r18
 436 014e F31F      		adc r31,r19
 437 0150 E050      		subi r30,lo8(-(_display))
 438 0152 F040      		sbci r31,hi8(-(_display))
 439 0154 2081      		ld r18,Z
 105:/Users/manueldeneu/Documents/projets/dev/Monu100/MicroController/MicMonu100/MicMonu100/Display.c ****         
 106:/Users/manueldeneu/Documents/projets/dev/Monu100/MicroController/MicMonu100/MicMonu100/Display.c ****         sendSPI( pixA >> 4); // p1
 441               	.LM38:
 442 0156 372F      		mov r19,r23
 443 0158 3295      		swap r19
 444 015a 3F70      		andi r19,lo8(15)
 445               	.LBB73:
 446               	.LBB74:
  44:/Users/manueldeneu/Documents/projets/dev/Monu100/MicroController/MicMonu100/MicMonu100/Display.c ****     SPDR = val;
 448               	.LM39:
 449 015c 3EBD      		out 0x2e,r19
 450               	.L23:
  45:/Users/manueldeneu/Documents/projets/dev/Monu100/MicroController/MicMonu100/MicMonu100/Display.c ****     while (!(SPSR & (1 << SPIF)));
 452               	.LM40:
 453 015e 0DB4      		in __tmp_reg__,0x2d
 454 0160 07FE      		sbrs __tmp_reg__,7
 455 0162 00C0      		rjmp .L23
 456               	.LBE74:
 457               	.LBE73:
 107:/Users/manueldeneu/Documents/projets/dev/Monu100/MicroController/MicMonu100/MicMonu100/Display.c ****         sendSPI( (uint8_t )(pixA<< 4) ); // p1
 459               	.LM41:
 460 0164 7295      		swap r23
 461 0166 707F      		andi r23,lo8(-16)
 462               	.LBB75:
 463               	.LBB76:
  44:/Users/manueldeneu/Documents/projets/dev/Monu100/MicroController/MicMonu100/MicMonu100/Display.c ****     SPDR = val;
 465               	.LM42:
 466 0168 7EBD      		out 0x2e,r23
 467               	.L25:
  45:/Users/manueldeneu/Documents/projets/dev/Monu100/MicroController/MicMonu100/MicMonu100/Display.c ****     while (!(SPSR & (1 << SPIF)));
 469               	.LM43:
 470 016a 0DB4      		in __tmp_reg__,0x2d
 471 016c 07FE      		sbrs __tmp_reg__,7
 472 016e 00C0      		rjmp .L25
 473               	.LBE76:
 474               	.LBE75:
 475               	.LBB77:
 476               	.LBB78:
  44:/Users/manueldeneu/Documents/projets/dev/Monu100/MicroController/MicMonu100/MicMonu100/Display.c ****     SPDR = val;
 478               	.LM44:
 479 0170 2EBD      		out 0x2e,r18
 480               	.L27:
  45:/Users/manueldeneu/Documents/projets/dev/Monu100/MicroController/MicMonu100/MicMonu100/Display.c ****     while (!(SPSR & (1 << SPIF)));
 482               	.LM45:
 483 0172 0DB4      		in __tmp_reg__,0x2d
 484 0174 07FE      		sbrs __tmp_reg__,7
 485 0176 00C0      		rjmp .L27
 486               	.LBE78:
 487               	.LBE77:
 488               	.LBE72:
 101:/Users/manueldeneu/Documents/projets/dev/Monu100/MicroController/MicMonu100/MicMonu100/Display.c ****     for (int x = 15;x<28;x+=2)
 490               	.LM46:
 491 0178 0296      		adiw r24,2
 492 017a 8D31      		cpi r24,29
 493 017c 9105      		cpc r25,__zero_reg__
 494 017e 01F4      		brne .L29
 495               	.LBE71:
 108:/Users/manueldeneu/Documents/projets/dev/Monu100/MicroController/MicMonu100/MicMonu100/Display.c ****         sendSPI( pixB ); // p2
 109:/Users/manueldeneu/Documents/projets/dev/Monu100/MicroController/MicMonu100/MicMonu100/Display.c ****     }
 110:/Users/manueldeneu/Documents/projets/dev/Monu100/MicroController/MicMonu100/MicMonu100/Display.c ****     
 111:/Users/manueldeneu/Documents/projets/dev/Monu100/MicroController/MicMonu100/MicMonu100/Display.c ****     // col 29 a la mano
 112:/Users/manueldeneu/Documents/projets/dev/Monu100/MicroController/MicMonu100/MicMonu100/Display.c ****     sendSPI(  _display.buff_A/*pixels*/[29][rowIndex] >> 4); // p15
 497               	.LM47:
 498 0180 E091 0000 		lds r30,rowIndex.2268
 499 0184 F091 0000 		lds r31,rowIndex.2268+1
 500 0188 E050      		subi r30,lo8(-(_display+870))
 501 018a F040      		sbci r31,hi8(-(_display+870))
 502 018c 8081      		ld r24,Z
 503 018e 8295      		swap r24
 504 0190 8F70      		andi r24,lo8(15)
 505               	.LBB79:
 506               	.LBB80:
  44:/Users/manueldeneu/Documents/projets/dev/Monu100/MicroController/MicMonu100/MicMonu100/Display.c ****     SPDR = val;
 508               	.LM48:
 509 0192 8EBD      		out 0x2e,r24
 510               	.L31:
  45:/Users/manueldeneu/Documents/projets/dev/Monu100/MicroController/MicMonu100/MicMonu100/Display.c ****     while (!(SPSR & (1 << SPIF)));
 512               	.LM49:
 513 0194 0DB4      		in __tmp_reg__,0x2d
 514 0196 07FE      		sbrs __tmp_reg__,7
 515 0198 00C0      		rjmp .L31
 516               	.LBE80:
 517               	.LBE79:
 113:/Users/manueldeneu/Documents/projets/dev/Monu100/MicroController/MicMonu100/MicMonu100/Display.c ****     sendSPI( (uint8_t )( _display.buff_A/*pixels*/[29][rowIndex] << 4) ); // p15
 519               	.LM50:
 520 019a E091 0000 		lds r30,rowIndex.2268
 521 019e F091 0000 		lds r31,rowIndex.2268+1
 522 01a2 E050      		subi r30,lo8(-(_display+870))
 523 01a4 F040      		sbci r31,hi8(-(_display+870))
 524 01a6 8081      		ld r24,Z
 525 01a8 8295      		swap r24
 526 01aa 807F      		andi r24,lo8(-16)
 527               	.LBB81:
 528               	.LBB82:
  44:/Users/manueldeneu/Documents/projets/dev/Monu100/MicroController/MicMonu100/MicMonu100/Display.c ****     SPDR = val;
 530               	.LM51:
 531 01ac 8EBD      		out 0x2e,r24
 532               	.L33:
  45:/Users/manueldeneu/Documents/projets/dev/Monu100/MicroController/MicMonu100/MicMonu100/Display.c ****     while (!(SPSR & (1 << SPIF)));
 534               	.LM52:
 535 01ae 0DB4      		in __tmp_reg__,0x2d
 536 01b0 07FE      		sbrs __tmp_reg__,7
 537 01b2 00C0      		rjmp .L33
 538               	.LBE82:
 539               	.LBE81:
 114:/Users/manueldeneu/Documents/projets/dev/Monu100/MicroController/MicMonu100/MicMonu100/Display.c ****     
 115:/Users/manueldeneu/Documents/projets/dev/Monu100/MicroController/MicMonu100/MicMonu100/Display.c ****     /***** END OF FILL TLC BUFFERS ****/
 116:/Users/manueldeneu/Documents/projets/dev/Monu100/MicroController/MicMonu100/MicMonu100/Display.c ****     
 117:/Users/manueldeneu/Documents/projets/dev/Monu100/MicroController/MicMonu100/MicMonu100/Display.c ****     _display.isDrawing = 0;
 541               	.LM53:
 542 01b4 1092 0000 		sts _display+1804,__zero_reg__
 118:/Users/manueldeneu/Documents/projets/dev/Monu100/MicroController/MicMonu100/MicMonu100/Display.c ****     
 119:/Users/manueldeneu/Documents/projets/dev/Monu100/MicroController/MicMonu100/MicMonu100/Display.c ****     xlatNeedsPulse = 1;
 544               	.LM54:
 545 01b8 81E0      		ldi r24,lo8(1)
 546 01ba 8093 0000 		sts xlatNeedsPulse.2270,r24
 120:/Users/manueldeneu/Documents/projets/dev/Monu100/MicroController/MicMonu100/MicMonu100/Display.c ****     
 121:/Users/manueldeneu/Documents/projets/dev/Monu100/MicroController/MicMonu100/MicMonu100/Display.c ****     pulse( MIC_CLOCK_PORT , MIC_CLOCK_PIN );
 548               	.LM55:
 549 01be 8091 0B01 		lds r24,267
 550 01c2 8260      		ori r24,lo8(2)
 551 01c4 8093 0B01 		sts 267,r24
 552 01c8 8091 0B01 		lds r24,267
 553 01cc 8D7F      		andi r24,lo8(-3)
 554 01ce 8093 0B01 		sts 267,r24
 122:/Users/manueldeneu/Documents/projets/dev/Monu100/MicroController/MicMonu100/MicMonu100/Display.c ****     
 123:/Users/manueldeneu/Documents/projets/dev/Monu100/MicroController/MicMonu100/MicMonu100/Display.c ****     /**/
 124:/Users/manueldeneu/Documents/projets/dev/Monu100/MicroController/MicMonu100/MicMonu100/Display.c ****     // additionnal pulse for non-wired outs of mics.
 125:/Users/manueldeneu/Documents/projets/dev/Monu100/MicroController/MicMonu100/MicMonu100/Display.c ****     
 126:/Users/manueldeneu/Documents/projets/dev/Monu100/MicroController/MicMonu100/MicMonu100/Display.c ****     if ( (rowIndex == 15) ||
 556               	.LM56:
 557 01d2 8091 0000 		lds r24,rowIndex.2268
 558 01d6 9091 0000 		lds r25,rowIndex.2268+1
 559 01da 8F30      		cpi r24,15
 560 01dc 9105      		cpc r25,__zero_reg__
 561 01de 01F0      		breq .L34
 563               	.LM57:
 564 01e0 4697      		sbiw r24,22
 565 01e2 01F4      		brne .L35
 566               	.L34:
 127:/Users/manueldeneu/Documents/projets/dev/Monu100/MicroController/MicMonu100/MicMonu100/Display.c ****          (rowIndex == 22)
 128:/Users/manueldeneu/Documents/projets/dev/Monu100/MicroController/MicMonu100/MicMonu100/Display.c ****         )
 129:/Users/manueldeneu/Documents/projets/dev/Monu100/MicroController/MicMonu100/MicMonu100/Display.c ****     {
 130:/Users/manueldeneu/Documents/projets/dev/Monu100/MicroController/MicMonu100/MicMonu100/Display.c ****         setLow( DATA0_PORT , DATA0_PIN);
 568               	.LM58:
 569 01e4 8091 0B01 		lds r24,267
 570 01e8 877F      		andi r24,lo8(-9)
 571 01ea 8093 0B01 		sts 267,r24
 131:/Users/manueldeneu/Documents/projets/dev/Monu100/MicroController/MicMonu100/MicMonu100/Display.c ****         setLow( DATA1_PORT , DATA1_PIN);
 573               	.LM59:
 574 01ee 8091 0B01 		lds r24,267
 575 01f2 8F7E      		andi r24,lo8(-17)
 576 01f4 8093 0B01 		sts 267,r24
 132:/Users/manueldeneu/Documents/projets/dev/Monu100/MicroController/MicMonu100/MicMonu100/Display.c ****         
 133:/Users/manueldeneu/Documents/projets/dev/Monu100/MicroController/MicMonu100/MicMonu100/Display.c ****         pulse( MIC_CLOCK_PORT , MIC_CLOCK_PIN );
 578               	.LM60:
 579 01f8 8091 0B01 		lds r24,267
 580 01fc 8260      		ori r24,lo8(2)
 581 01fe 8093 0B01 		sts 267,r24
 582 0202 8091 0B01 		lds r24,267
 583 0206 8D7F      		andi r24,lo8(-3)
 584 0208 8093 0B01 		sts 267,r24
 585               	.L35:
 134:/Users/manueldeneu/Documents/projets/dev/Monu100/MicroController/MicMonu100/MicMonu100/Display.c ****     }
 135:/Users/manueldeneu/Documents/projets/dev/Monu100/MicroController/MicMonu100/MicMonu100/Display.c ****     
 136:/Users/manueldeneu/Documents/projets/dev/Monu100/MicroController/MicMonu100/MicMonu100/Display.c ****     /**/
 137:/Users/manueldeneu/Documents/projets/dev/Monu100/MicroController/MicMonu100/MicMonu100/Display.c ****     
 138:/Users/manueldeneu/Documents/projets/dev/Monu100/MicroController/MicMonu100/MicMonu100/Display.c ****     setHigh(BLANK_PORT, BLANK_PIN);
 587               	.LM61:
 588 020c 289A      		sbi 0x5,0
 139:/Users/manueldeneu/Documents/projets/dev/Monu100/MicroController/MicMonu100/MicMonu100/Display.c ****     
 140:/Users/manueldeneu/Documents/projets/dev/Monu100/MicroController/MicMonu100/MicMonu100/Display.c ****     
 141:/Users/manueldeneu/Documents/projets/dev/Monu100/MicroController/MicMonu100/MicMonu100/Display.c ****     if (xlatNeedsPulse)
 590               	.LM62:
 591 020e 8091 0000 		lds r24,xlatNeedsPulse.2270
 592 0212 8823      		tst r24
 593 0214 01F0      		breq .L36
 142:/Users/manueldeneu/Documents/projets/dev/Monu100/MicroController/MicMonu100/MicMonu100/Display.c ****     {
 143:/Users/manueldeneu/Documents/projets/dev/Monu100/MicroController/MicMonu100/MicMonu100/Display.c ****         pulse(XLAT_PORT, XLAT_PIN);
 595               	.LM63:
 596 0216 2D9A      		sbi 0x5,5
 597 0218 2D98      		cbi 0x5,5
 144:/Users/manueldeneu/Documents/projets/dev/Monu100/MicroController/MicMonu100/MicMonu100/Display.c ****         xlatNeedsPulse = 0;
 599               	.LM64:
 600 021a 1092 0000 		sts xlatNeedsPulse.2270,__zero_reg__
 601               	.L36:
 145:/Users/manueldeneu/Documents/projets/dev/Monu100/MicroController/MicMonu100/MicMonu100/Display.c ****         
 146:/Users/manueldeneu/Documents/projets/dev/Monu100/MicroController/MicMonu100/MicMonu100/Display.c ****         
 147:/Users/manueldeneu/Documents/projets/dev/Monu100/MicroController/MicMonu100/MicMonu100/Display.c ****     }
 148:/Users/manueldeneu/Documents/projets/dev/Monu100/MicroController/MicMonu100/MicMonu100/Display.c ****     
 149:/Users/manueldeneu/Documents/projets/dev/Monu100/MicroController/MicMonu100/MicMonu100/Display.c ****     if (firstCycleFlag)
 150:/Users/manueldeneu/Documents/projets/dev/Monu100/MicroController/MicMonu100/MicMonu100/Display.c ****     {
 151:/Users/manueldeneu/Documents/projets/dev/Monu100/MicroController/MicMonu100/MicMonu100/Display.c ****         pulse(SCLK_PORT, SCLK_PIN);
 603               	.LM65:
 604 021e 299A      		sbi 0x5,1
 605 0220 2998      		cbi 0x5,1
 152:/Users/manueldeneu/Documents/projets/dev/Monu100/MicroController/MicMonu100/MicMonu100/Display.c ****         
 153:/Users/manueldeneu/Documents/projets/dev/Monu100/MicroController/MicMonu100/MicMonu100/Display.c ****         
 154:/Users/manueldeneu/Documents/projets/dev/Monu100/MicroController/MicMonu100/MicMonu100/Display.c ****     }
 155:/Users/manueldeneu/Documents/projets/dev/Monu100/MicroController/MicMonu100/MicMonu100/Display.c ****     
 156:/Users/manueldeneu/Documents/projets/dev/Monu100/MicroController/MicMonu100/MicMonu100/Display.c ****     
 157:/Users/manueldeneu/Documents/projets/dev/Monu100/MicroController/MicMonu100/MicMonu100/Display.c ****     rowIndex++;
 607               	.LM66:
 608 0222 8091 0000 		lds r24,rowIndex.2268
 609 0226 9091 0000 		lds r25,rowIndex.2268+1
 610 022a 0196      		adiw r24,1
 611 022c 9093 0000 		sts rowIndex.2268+1,r25
 612 0230 8093 0000 		sts rowIndex.2268,r24
 613               	/* epilogue start */
 158:/Users/manueldeneu/Documents/projets/dev/Monu100/MicroController/MicMonu100/MicMonu100/Display.c ****     
 159:/Users/manueldeneu/Documents/projets/dev/Monu100/MicroController/MicMonu100/MicMonu100/Display.c ****     
 160:/Users/manueldeneu/Documents/projets/dev/Monu100/MicroController/MicMonu100/MicMonu100/Display.c **** }
 615               	.LM67:
 616 0234 FF91      		pop r31
 617 0236 EF91      		pop r30
 618 0238 9F91      		pop r25
 619 023a 8F91      		pop r24
 620 023c 7F91      		pop r23
 621 023e 6F91      		pop r22
 622 0240 5F91      		pop r21
 623 0242 4F91      		pop r20
 624 0244 3F91      		pop r19
 625 0246 2F91      		pop r18
 626 0248 0F90      		pop r0
 627 024a 0BBE      		out __RAMPZ__,r0
 628 024c 0F90      		pop r0
 629 024e 0FBE      		out __SREG__,r0
 630 0250 0F90      		pop r0
 631 0252 1F90      		pop r1
 632 0254 1895      		reti
 652               	.Lscope3:
 654               	.global	TLC5940_Init
 656               	TLC5940_Init:
 161:/Users/manueldeneu/Documents/projets/dev/Monu100/MicroController/MicMonu100/MicMonu100/Display.c **** 
 162:/Users/manueldeneu/Documents/projets/dev/Monu100/MicroController/MicMonu100/MicMonu100/Display.c **** /* **** **** **** **** **** **** **** **** **** **** **** **** **** **** **** **** **** **** **** *
 163:/Users/manueldeneu/Documents/projets/dev/Monu100/MicroController/MicMonu100/MicMonu100/Display.c **** 
 164:/Users/manueldeneu/Documents/projets/dev/Monu100/MicroController/MicMonu100/MicMonu100/Display.c **** void TLC5940_Init(void)
 165:/Users/manueldeneu/Documents/projets/dev/Monu100/MicroController/MicMonu100/MicMonu100/Display.c **** {
 658               	.LM68:
 659               	.LFBB4:
 660               	/* prologue: function */
 661               	/* frame size = 0 */
 662               	/* stack size = 0 */
 663               	.L__stack_usage = 0
 166:/Users/manueldeneu/Documents/projets/dev/Monu100/MicroController/MicMonu100/MicMonu100/Display.c ****     // init MICs leds
 167:/Users/manueldeneu/Documents/projets/dev/Monu100/MicroController/MicMonu100/MicMonu100/Display.c ****     setOutput( DATA0_DDR , DATA0_PIN         ); // data row1
 665               	.LM69:
 666 0256 8091 0A01 		lds r24,266
 667 025a 8860      		ori r24,lo8(8)
 668 025c 8093 0A01 		sts 266,r24
 168:/Users/manueldeneu/Documents/projets/dev/Monu100/MicroController/MicMonu100/MicMonu100/Display.c ****     setOutput( DATA1_DDR , DATA1_PIN         ); // data row2
 670               	.LM70:
 671 0260 8091 0A01 		lds r24,266
 672 0264 8061      		ori r24,lo8(16)
 673 0266 8093 0A01 		sts 266,r24
 169:/Users/manueldeneu/Documents/projets/dev/Monu100/MicroController/MicMonu100/MicMonu100/Display.c ****     setOutput( MIC_CLOCK_DDR , MIC_CLOCK_PIN ); // clock
 675               	.LM71:
 676 026a 8091 0A01 		lds r24,266
 677 026e 8260      		ori r24,lo8(2)
 678 0270 8093 0A01 		sts 266,r24
 170:/Users/manueldeneu/Documents/projets/dev/Monu100/MicroController/MicMonu100/MicMonu100/Display.c ****     
 171:/Users/manueldeneu/Documents/projets/dev/Monu100/MicroController/MicMonu100/MicMonu100/Display.c ****     setOutput( MIC_STROBE_DDR , MIC_STROBE_PIN ); // strobe
 680               	.LM72:
 681 0274 8091 0A01 		lds r24,266
 682 0278 8460      		ori r24,lo8(4)
 683 027a 8093 0A01 		sts 266,r24
 172:/Users/manueldeneu/Documents/projets/dev/Monu100/MicroController/MicMonu100/MicMonu100/Display.c ****     
 173:/Users/manueldeneu/Documents/projets/dev/Monu100/MicroController/MicMonu100/MicMonu100/Display.c ****     setOutput( MIC_OUT_ENABLE_DDR , MIC_OUT_ENABLE_PIN ); // utile?
 685               	.LM73:
 686 027e 8091 0A01 		lds r24,266
 687 0282 8160      		ori r24,lo8(1)
 688 0284 8093 0A01 		sts 266,r24
 174:/Users/manueldeneu/Documents/projets/dev/Monu100/MicroController/MicMonu100/MicMonu100/Display.c ****     
 175:/Users/manueldeneu/Documents/projets/dev/Monu100/MicroController/MicMonu100/MicMonu100/Display.c ****     
 176:/Users/manueldeneu/Documents/projets/dev/Monu100/MicroController/MicMonu100/MicMonu100/Display.c ****     setLow(MIC_OUT_ENABLE_PORT, MIC_OUT_ENABLE_PIN);
 690               	.LM74:
 691 0288 8091 0B01 		lds r24,267
 692 028c 8E7F      		andi r24,lo8(-2)
 693 028e 8093 0B01 		sts 267,r24
 177:/Users/manueldeneu/Documents/projets/dev/Monu100/MicroController/MicMonu100/MicMonu100/Display.c ****     // reset mic buffers
 178:/Users/manueldeneu/Documents/projets/dev/Monu100/MicroController/MicMonu100/MicMonu100/Display.c ****     
 179:/Users/manueldeneu/Documents/projets/dev/Monu100/MicroController/MicMonu100/MicMonu100/Display.c ****     
 180:/Users/manueldeneu/Documents/projets/dev/Monu100/MicroController/MicMonu100/MicMonu100/Display.c ****     setLow( DATA0_PORT , DATA0_PIN); // val 0 prévue -> pulse après écrit la valeur dans le buff
 695               	.LM75:
 696 0292 8091 0B01 		lds r24,267
 697 0296 877F      		andi r24,lo8(-9)
 698 0298 8093 0B01 		sts 267,r24
 181:/Users/manueldeneu/Documents/projets/dev/Monu100/MicroController/MicMonu100/MicMonu100/Display.c ****     setLow( DATA1_PORT , DATA1_PIN);
 700               	.LM76:
 701 029c 8091 0B01 		lds r24,267
 702 02a0 8F7E      		andi r24,lo8(-17)
 703 02a2 8093 0B01 		sts 267,r24
 704 02a6 8EE1      		ldi r24,lo8(30)
 705 02a8 90E0      		ldi r25,0
 706               	.L46:
 707               	.LBB83:
 182:/Users/manueldeneu/Documents/projets/dev/Monu100/MicroController/MicMonu100/MicMonu100/Display.c ****     
 183:/Users/manueldeneu/Documents/projets/dev/Monu100/MicroController/MicMonu100/MicMonu100/Display.c ****     for (int i=0; i< Y_MIC_MAX ; i++)
 184:/Users/manueldeneu/Documents/projets/dev/Monu100/MicroController/MicMonu100/MicMonu100/Display.c ****     {
 185:/Users/manueldeneu/Documents/projets/dev/Monu100/MicroController/MicMonu100/MicMonu100/Display.c ****         pulse( MIC_CLOCK_PORT , MIC_CLOCK_PIN );
 709               	.LM77:
 710 02aa 2091 0B01 		lds r18,267
 711 02ae 2260      		ori r18,lo8(2)
 712 02b0 2093 0B01 		sts 267,r18
 713 02b4 2091 0B01 		lds r18,267
 714 02b8 2D7F      		andi r18,lo8(-3)
 715 02ba 2093 0B01 		sts 267,r18
 716 02be 0197      		sbiw r24,1
 183:/Users/manueldeneu/Documents/projets/dev/Monu100/MicroController/MicMonu100/MicMonu100/Display.c ****     for (int i=0; i< Y_MIC_MAX ; i++)
 718               	.LM78:
 719 02c0 0097      		sbiw r24,0
 720 02c2 01F4      		brne .L46
 721               	.LBE83:
 186:/Users/manueldeneu/Documents/projets/dev/Monu100/MicroController/MicMonu100/MicMonu100/Display.c ****         
 187:/Users/manueldeneu/Documents/projets/dev/Monu100/MicroController/MicMonu100/MicMonu100/Display.c ****     }
 188:/Users/manueldeneu/Documents/projets/dev/Monu100/MicroController/MicMonu100/MicMonu100/Display.c ****     
 189:/Users/manueldeneu/Documents/projets/dev/Monu100/MicroController/MicMonu100/MicMonu100/Display.c ****     setHigh( MIC_STROBE_PORT , MIC_STROBE_PIN ); // strobe mic leds
 723               	.LM79:
 724 02c4 8091 0B01 		lds r24,267
 725 02c8 8460      		ori r24,lo8(4)
 726 02ca 8093 0B01 		sts 267,r24
 190:/Users/manueldeneu/Documents/projets/dev/Monu100/MicroController/MicMonu100/MicMonu100/Display.c **** 
 191:/Users/manueldeneu/Documents/projets/dev/Monu100/MicroController/MicMonu100/MicMonu100/Display.c ****     
 192:/Users/manueldeneu/Documents/projets/dev/Monu100/MicroController/MicMonu100/MicMonu100/Display.c ****     setOutput(SCLK_DDR, SCLK_PIN);
 728               	.LM80:
 729 02ce 219A      		sbi 0x4,1
 193:/Users/manueldeneu/Documents/projets/dev/Monu100/MicroController/MicMonu100/MicMonu100/Display.c ****     
 194:/Users/manueldeneu/Documents/projets/dev/Monu100/MicroController/MicMonu100/MicMonu100/Display.c ****     setOutput(XLAT_DDR, XLAT_PIN);
 731               	.LM81:
 732 02d0 259A      		sbi 0x4,5
 195:/Users/manueldeneu/Documents/projets/dev/Monu100/MicroController/MicMonu100/MicMonu100/Display.c ****     setOutput(BLANK_DDR, BLANK_PIN);
 734               	.LM82:
 735 02d2 209A      		sbi 0x4,0
 196:/Users/manueldeneu/Documents/projets/dev/Monu100/MicroController/MicMonu100/MicMonu100/Display.c ****     setOutput(SIN_DDR, SIN_PIN);
 737               	.LM83:
 738 02d4 229A      		sbi 0x4,2
 197:/Users/manueldeneu/Documents/projets/dev/Monu100/MicroController/MicMonu100/MicMonu100/Display.c ****     
 198:/Users/manueldeneu/Documents/projets/dev/Monu100/MicroController/MicMonu100/MicMonu100/Display.c ****     setLow(SCLK_PORT, SCLK_PIN);
 740               	.LM84:
 741 02d6 2998      		cbi 0x5,1
 199:/Users/manueldeneu/Documents/projets/dev/Monu100/MicroController/MicMonu100/MicMonu100/Display.c ****     
 200:/Users/manueldeneu/Documents/projets/dev/Monu100/MicroController/MicMonu100/MicMonu100/Display.c ****     setLow(XLAT_PORT, XLAT_PIN);
 743               	.LM85:
 744 02d8 2D98      		cbi 0x5,5
 201:/Users/manueldeneu/Documents/projets/dev/Monu100/MicroController/MicMonu100/MicMonu100/Display.c ****     
 202:/Users/manueldeneu/Documents/projets/dev/Monu100/MicroController/MicMonu100/MicMonu100/Display.c ****     setHigh(BLANK_PORT, BLANK_PIN);
 746               	.LM86:
 747 02da 289A      		sbi 0x5,0
 203:/Users/manueldeneu/Documents/projets/dev/Monu100/MicroController/MicMonu100/MicMonu100/Display.c ****     
 204:/Users/manueldeneu/Documents/projets/dev/Monu100/MicroController/MicMonu100/MicMonu100/Display.c ****     // Enable SPI, Master, set clock rate fck/2
 205:/Users/manueldeneu/Documents/projets/dev/Monu100/MicroController/MicMonu100/MicMonu100/Display.c ****     SPCR = (1 << SPE) | (1 << MSTR);
 749               	.LM87:
 750 02dc 80E5      		ldi r24,lo8(80)
 751 02de 8CBD      		out 0x2c,r24
 206:/Users/manueldeneu/Documents/projets/dev/Monu100/MicroController/MicMonu100/MicMonu100/Display.c ****     SPSR = (1 << SPI2X);
 753               	.LM88:
 754 02e0 81E0      		ldi r24,lo8(1)
 755 02e2 8DBD      		out 0x2d,r24
 207:/Users/manueldeneu/Documents/projets/dev/Monu100/MicroController/MicMonu100/MicMonu100/Display.c ****     
 208:/Users/manueldeneu/Documents/projets/dev/Monu100/MicroController/MicMonu100/MicMonu100/Display.c ****     // CTC with OCR0A as TOP
 209:/Users/manueldeneu/Documents/projets/dev/Monu100/MicroController/MicMonu100/MicMonu100/Display.c ****     TCCR0A = (1 << WGM01);
 757               	.LM89:
 758 02e4 82E0      		ldi r24,lo8(2)
 759 02e6 84BD      		out 0x24,r24
 210:/Users/manueldeneu/Documents/projets/dev/Monu100/MicroController/MicMonu100/MicMonu100/Display.c ****     // clk_io/1024 (From prescaler)
 211:/Users/manueldeneu/Documents/projets/dev/Monu100/MicroController/MicMonu100/MicMonu100/Display.c ****     TCCR0B = ((1 << CS02) | (1 << CS00));
 761               	.LM90:
 762 02e8 85E0      		ldi r24,lo8(5)
 763 02ea 85BD      		out 0x25,r24
 212:/Users/manueldeneu/Documents/projets/dev/Monu100/MicroController/MicMonu100/MicMonu100/Display.c ****     // Generate an interrupt every 4096 clock cycles
 213:/Users/manueldeneu/Documents/projets/dev/Monu100/MicroController/MicMonu100/MicMonu100/Display.c ****     OCR0A = 3; // 3
 765               	.LM91:
 766 02ec 83E0      		ldi r24,lo8(3)
 767 02ee 87BD      		out 0x27,r24
 214:/Users/manueldeneu/Documents/projets/dev/Monu100/MicroController/MicMonu100/MicMonu100/Display.c ****     // Enable Timer/Counter0 Compare Match A interrupt
 215:/Users/manueldeneu/Documents/projets/dev/Monu100/MicroController/MicMonu100/MicMonu100/Display.c ****     TIMSK0 |= (1 << OCIE0A);
 769               	.LM92:
 770 02f0 8091 6E00 		lds r24,110
 771 02f4 8260      		ori r24,lo8(2)
 772 02f6 8093 6E00 		sts 110,r24
 773 02fa 0895      		ret
 775               	.Lscope4:
 778               	.global	display_swapbuffers
 780               	display_swapbuffers:
 216:/Users/manueldeneu/Documents/projets/dev/Monu100/MicroController/MicMonu100/MicMonu100/Display.c **** }
 217:/Users/manueldeneu/Documents/projets/dev/Monu100/MicroController/MicMonu100/MicMonu100/Display.c **** 
 218:/Users/manueldeneu/Documents/projets/dev/Monu100/MicroController/MicMonu100/MicMonu100/Display.c **** 
 219:/Users/manueldeneu/Documents/projets/dev/Monu100/MicroController/MicMonu100/MicMonu100/Display.c **** /* **** **** **** **** **** **** **** **** **** **** **** **** **** **** **** **** **** **** **** *
 220:/Users/manueldeneu/Documents/projets/dev/Monu100/MicroController/MicMonu100/MicMonu100/Display.c **** /* **** **** **** **** **** **** **** **** **** **** **** **** **** **** **** **** **** **** **** *
 221:/Users/manueldeneu/Documents/projets/dev/Monu100/MicroController/MicMonu100/MicMonu100/Display.c **** 
 222:/Users/manueldeneu/Documents/projets/dev/Monu100/MicroController/MicMonu100/MicMonu100/Display.c **** 
 223:/Users/manueldeneu/Documents/projets/dev/Monu100/MicroController/MicMonu100/MicMonu100/Display.c **** 
 224:/Users/manueldeneu/Documents/projets/dev/Monu100/MicroController/MicMonu100/MicMonu100/Display.c **** void display_init( Display *display)
 225:/Users/manueldeneu/Documents/projets/dev/Monu100/MicroController/MicMonu100/MicMonu100/Display.c **** {
 226:/Users/manueldeneu/Documents/projets/dev/Monu100/MicroController/MicMonu100/MicMonu100/Display.c ****     display_clear( display);
 227:/Users/manueldeneu/Documents/projets/dev/Monu100/MicroController/MicMonu100/MicMonu100/Display.c **** 
 228:/Users/manueldeneu/Documents/projets/dev/Monu100/MicroController/MicMonu100/MicMonu100/Display.c **** 
 229:/Users/manueldeneu/Documents/projets/dev/Monu100/MicroController/MicMonu100/MicMonu100/Display.c ****     
 230:/Users/manueldeneu/Documents/projets/dev/Monu100/MicroController/MicMonu100/MicMonu100/Display.c ****     display->backgroundColor = 0b00000000;
 231:/Users/manueldeneu/Documents/projets/dev/Monu100/MicroController/MicMonu100/MicMonu100/Display.c ****     display->fontColor = PIXEL_MAX_VALUE;
 232:/Users/manueldeneu/Documents/projets/dev/Monu100/MicroController/MicMonu100/MicMonu100/Display.c ****     display->fillColor = PIXEL_MAX_VALUE;
 233:/Users/manueldeneu/Documents/projets/dev/Monu100/MicroController/MicMonu100/MicMonu100/Display.c ****     
 234:/Users/manueldeneu/Documents/projets/dev/Monu100/MicroController/MicMonu100/MicMonu100/Display.c ****     display->isDrawing = 0;
 235:/Users/manueldeneu/Documents/projets/dev/Monu100/MicroController/MicMonu100/MicMonu100/Display.c ****     
 236:/Users/manueldeneu/Documents/projets/dev/Monu100/MicroController/MicMonu100/MicMonu100/Display.c ****     TLC5940_Init();    
 237:/Users/manueldeneu/Documents/projets/dev/Monu100/MicroController/MicMonu100/MicMonu100/Display.c **** }
 238:/Users/manueldeneu/Documents/projets/dev/Monu100/MicroController/MicMonu100/MicMonu100/Display.c **** 
 239:/Users/manueldeneu/Documents/projets/dev/Monu100/MicroController/MicMonu100/MicMonu100/Display.c **** /* **** **** **** **** **** **** **** **** **** **** **** */
 240:/Users/manueldeneu/Documents/projets/dev/Monu100/MicroController/MicMonu100/MicMonu100/Display.c **** 
 241:/Users/manueldeneu/Documents/projets/dev/Monu100/MicroController/MicMonu100/MicMonu100/Display.c **** void display_swapbuffers( Display *display)
 242:/Users/manueldeneu/Documents/projets/dev/Monu100/MicroController/MicMonu100/MicMonu100/Display.c **** {
 782               	.LM93:
 783               	.LFBB5:
 784               	/* prologue: function */
 785               	/* frame size = 0 */
 786               	/* stack size = 0 */
 787               	.L__stack_usage = 0
 788 02fc 0895      		ret
 790               	.Lscope5:
 793               	.global	display_setNeedsUpdate
 795               	display_setNeedsUpdate:
 243:/Users/manueldeneu/Documents/projets/dev/Monu100/MicroController/MicMonu100/MicMonu100/Display.c ****     
 244:/Users/manueldeneu/Documents/projets/dev/Monu100/MicroController/MicMonu100/MicMonu100/Display.c **** }
 245:/Users/manueldeneu/Documents/projets/dev/Monu100/MicroController/MicMonu100/MicMonu100/Display.c **** 
 246:/Users/manueldeneu/Documents/projets/dev/Monu100/MicroController/MicMonu100/MicMonu100/Display.c **** /* **** **** **** **** **** **** **** **** **** **** **** */
 247:/Users/manueldeneu/Documents/projets/dev/Monu100/MicroController/MicMonu100/MicMonu100/Display.c **** 
 248:/Users/manueldeneu/Documents/projets/dev/Monu100/MicroController/MicMonu100/MicMonu100/Display.c **** void display_setNeedsUpdate( Display *display)
 249:/Users/manueldeneu/Documents/projets/dev/Monu100/MicroController/MicMonu100/MicMonu100/Display.c **** {
 797               	.LM94:
 798               	.LFBB6:
 799               	/* prologue: function */
 800               	/* frame size = 0 */
 801               	/* stack size = 0 */
 802               	.L__stack_usage = 0
 250:/Users/manueldeneu/Documents/projets/dev/Monu100/MicroController/MicMonu100/MicMonu100/Display.c ****     display->needsDisplay+=(1 << 0);
 804               	.LM95:
 805 02fe FC01      		movw r30,r24
 806 0300 E55F      		subi r30,-11
 807 0302 F84F      		sbci r31,-8
 808 0304 8081      		ld r24,Z
 809 0306 8F5F      		subi r24,lo8(-(1))
 810 0308 8083      		st Z,r24
 811 030a 0895      		ret
 813               	.Lscope6:
 816               	.global	display_needsUpdate
 818               	display_needsUpdate:
 251:/Users/manueldeneu/Documents/projets/dev/Monu100/MicroController/MicMonu100/MicMonu100/Display.c **** }
 252:/Users/manueldeneu/Documents/projets/dev/Monu100/MicroController/MicMonu100/MicMonu100/Display.c **** 
 253:/Users/manueldeneu/Documents/projets/dev/Monu100/MicroController/MicMonu100/MicMonu100/Display.c **** /* **** **** **** **** **** **** **** **** **** **** **** */
 254:/Users/manueldeneu/Documents/projets/dev/Monu100/MicroController/MicMonu100/MicMonu100/Display.c **** 
 255:/Users/manueldeneu/Documents/projets/dev/Monu100/MicroController/MicMonu100/MicMonu100/Display.c **** uint8_t display_needsUpdate( Display *display)
 256:/Users/manueldeneu/Documents/projets/dev/Monu100/MicroController/MicMonu100/MicMonu100/Display.c **** {
 820               	.LM96:
 821               	.LFBB7:
 822               	/* prologue: function */
 823               	/* frame size = 0 */
 824               	/* stack size = 0 */
 825               	.L__stack_usage = 0
 257:/Users/manueldeneu/Documents/projets/dev/Monu100/MicroController/MicMonu100/MicMonu100/Display.c ****     return display->needsDisplay & 1 <<0;
 827               	.LM97:
 828 030c 855F      		subi r24,-11
 829 030e 984F      		sbci r25,-8
 830 0310 FC01      		movw r30,r24
 831 0312 8081      		ld r24,Z
 258:/Users/manueldeneu/Documents/projets/dev/Monu100/MicroController/MicMonu100/MicMonu100/Display.c **** }
 833               	.LM98:
 834 0314 8170      		andi r24,lo8(1)
 835 0316 0895      		ret
 837               	.Lscope7:
 841               	.global	display_setFontColor
 843               	display_setFontColor:
 259:/Users/manueldeneu/Documents/projets/dev/Monu100/MicroController/MicMonu100/MicMonu100/Display.c **** 
 260:/Users/manueldeneu/Documents/projets/dev/Monu100/MicroController/MicMonu100/MicMonu100/Display.c **** /* **** **** **** **** **** **** **** **** **** **** **** **** **** **** **** **** **** **** **** *
 261:/Users/manueldeneu/Documents/projets/dev/Monu100/MicroController/MicMonu100/MicMonu100/Display.c **** 
 262:/Users/manueldeneu/Documents/projets/dev/Monu100/MicroController/MicMonu100/MicMonu100/Display.c **** void display_setFontColor( Display *display ,uint8_t color)
 263:/Users/manueldeneu/Documents/projets/dev/Monu100/MicroController/MicMonu100/MicMonu100/Display.c **** {
 845               	.LM99:
 846               	.LFBB8:
 847               	/* prologue: function */
 848               	/* frame size = 0 */
 849               	/* stack size = 0 */
 850               	.L__stack_usage = 0
 264:/Users/manueldeneu/Documents/projets/dev/Monu100/MicroController/MicMonu100/MicMonu100/Display.c ****     display->fontColor = clipVal(color);
 852               	.LM100:
 853 0318 865F      		subi r24,-10
 854 031a 984F      		sbci r25,-8
 855               	.LBB84:
 856               	.LBB85:
  36:/Users/manueldeneu/Documents/projets/dev/Monu100/MicroController/MicMonu100/MicMonu100/Display.c ****     return val>=PIXEL_MAX_VALUE ? PIXEL_MAX_VALUE : val;
 858               	.LM101:
 859 031c 6536      		cpi r22,lo8(101)
 860 031e 00F0      		brlo .L51
 861 0320 64E6      		ldi r22,lo8(100)
 862               	.L51:
 863               	.LBE85:
 864               	.LBE84:
 866               	.LM102:
 867 0322 FC01      		movw r30,r24
 868 0324 6083      		st Z,r22
 869 0326 0895      		ret
 871               	.Lscope8:
 875               	.global	display_setFillColor
 877               	display_setFillColor:
 265:/Users/manueldeneu/Documents/projets/dev/Monu100/MicroController/MicMonu100/MicMonu100/Display.c **** }
 266:/Users/manueldeneu/Documents/projets/dev/Monu100/MicroController/MicMonu100/MicMonu100/Display.c **** 
 267:/Users/manueldeneu/Documents/projets/dev/Monu100/MicroController/MicMonu100/MicMonu100/Display.c **** void display_setFillColor( Display *display ,uint8_t color)
 268:/Users/manueldeneu/Documents/projets/dev/Monu100/MicroController/MicMonu100/MicMonu100/Display.c **** {
 879               	.LM103:
 880               	.LFBB9:
 881               	/* prologue: function */
 882               	/* frame size = 0 */
 883               	/* stack size = 0 */
 884               	.L__stack_usage = 0
 269:/Users/manueldeneu/Documents/projets/dev/Monu100/MicroController/MicMonu100/MicMonu100/Display.c ****     display->fillColor = clipVal( color);
 886               	.LM104:
 887 0328 875F      		subi r24,-9
 888 032a 984F      		sbci r25,-8
 889               	.LBB86:
 890               	.LBB87:
  36:/Users/manueldeneu/Documents/projets/dev/Monu100/MicroController/MicMonu100/MicMonu100/Display.c ****     return val>=PIXEL_MAX_VALUE ? PIXEL_MAX_VALUE : val;
 892               	.LM105:
 893 032c 6536      		cpi r22,lo8(101)
 894 032e 00F0      		brlo .L53
 895 0330 64E6      		ldi r22,lo8(100)
 896               	.L53:
 897               	.LBE87:
 898               	.LBE86:
 900               	.LM106:
 901 0332 FC01      		movw r30,r24
 902 0334 6083      		st Z,r22
 903 0336 0895      		ret
 905               	.Lscope9:
 912               	.global	display_clearZone
 914               	display_clearZone:
 270:/Users/manueldeneu/Documents/projets/dev/Monu100/MicroController/MicMonu100/MicMonu100/Display.c **** }
 271:/Users/manueldeneu/Documents/projets/dev/Monu100/MicroController/MicMonu100/MicMonu100/Display.c **** 
 272:/Users/manueldeneu/Documents/projets/dev/Monu100/MicroController/MicMonu100/MicMonu100/Display.c **** /* **** **** **** **** **** **** **** **** **** **** **** **** **** **** **** **** **** **** **** *
 273:/Users/manueldeneu/Documents/projets/dev/Monu100/MicroController/MicMonu100/MicMonu100/Display.c **** 
 274:/Users/manueldeneu/Documents/projets/dev/Monu100/MicroController/MicMonu100/MicMonu100/Display.c **** void display_clearZone( Display *display , const int8_t x , const int8_t y, const uint8_t w , const
 275:/Users/manueldeneu/Documents/projets/dev/Monu100/MicroController/MicMonu100/MicMonu100/Display.c **** {
 916               	.LM107:
 917               	.LFBB10:
 918 0338 0F93      		push r16
 919 033a CF93      		push r28
 920 033c DF93      		push r29
 921               	/* prologue: function */
 922               	/* frame size = 0 */
 923               	/* stack size = 3 */
 924               	.L__stack_usage = 3
 276:/Users/manueldeneu/Documents/projets/dev/Monu100/MicroController/MicMonu100/MicMonu100/Display.c ****     if (display->isDrawing == 1)
 926               	.LM108:
 927 033e FC01      		movw r30,r24
 928 0340 E45F      		subi r30,-12
 929 0342 F84F      		sbci r31,-8
 930 0344 3081      		ld r19,Z
 931 0346 3130      		cpi r19,lo8(1)
 932 0348 01F0      		breq .L54
 933 034a 260F      		add r18,r22
 934 034c 040F      		add r16,r20
 935               	.LBB88:
 936               	.LBB89:
 937               	.LBB90:
 277:/Users/manueldeneu/Documents/projets/dev/Monu100/MicroController/MicMonu100/MicMonu100/Display.c ****         return;
 278:/Users/manueldeneu/Documents/projets/dev/Monu100/MicroController/MicMonu100/MicMonu100/Display.c ****     
 279:/Users/manueldeneu/Documents/projets/dev/Monu100/MicroController/MicMonu100/MicMonu100/Display.c ****     
 280:/Users/manueldeneu/Documents/projets/dev/Monu100/MicroController/MicMonu100/MicMonu100/Display.c **** // inv x<->y
 281:/Users/manueldeneu/Documents/projets/dev/Monu100/MicroController/MicMonu100/MicMonu100/Display.c ****     for (uint8_t xx=0; xx< w; xx++)
 282:/Users/manueldeneu/Documents/projets/dev/Monu100/MicroController/MicMonu100/MicMonu100/Display.c ****         
 283:/Users/manueldeneu/Documents/projets/dev/Monu100/MicroController/MicMonu100/MicMonu100/Display.c ****         for (uint8_t yy=0; yy<h; yy++)
 284:/Users/manueldeneu/Documents/projets/dev/Monu100/MicroController/MicMonu100/MicMonu100/Display.c ****         {
 285:/Users/manueldeneu/Documents/projets/dev/Monu100/MicroController/MicMonu100/MicMonu100/Display.c ****             const int8_t defX =x+xx;
 286:/Users/manueldeneu/Documents/projets/dev/Monu100/MicroController/MicMonu100/MicMonu100/Display.c ****             const int8_t defY =y+yy;
 287:/Users/manueldeneu/Documents/projets/dev/Monu100/MicroController/MicMonu100/MicMonu100/Display.c ****             
 288:/Users/manueldeneu/Documents/projets/dev/Monu100/MicroController/MicMonu100/MicMonu100/Display.c ****             if( inBouds(defX, defY) )
 289:/Users/manueldeneu/Documents/projets/dev/Monu100/MicroController/MicMonu100/MicMonu100/Display.c ****                 display->buff_A[defY][defX] = display->backgroundColor;
 939               	.LM109:
 940 034e 5EE1      		ldi r21,lo8(30)
 941 0350 EC01      		movw r28,r24
 942 0352 C85F      		subi r28,-8
 943 0354 D84F      		sbci r29,-8
 944               	.L56:
 945               	.LBE90:
 946               	.LBE89:
 281:/Users/manueldeneu/Documents/projets/dev/Monu100/MicroController/MicMonu100/MicMonu100/Display.c ****     for (uint8_t xx=0; xx< w; xx++)
 948               	.LM110:
 949 0356 6217      		cp r22,r18
 950 0358 01F0      		breq .L54
 951 035a 342F      		mov r19,r20
 952               	.LBB95:
 953               	.LBB93:
 955               	.LM111:
 956 035c A62F      		mov r26,r22
 957 035e BB27      		clr r27
 958 0360 A7FD      		sbrc r26,7
 959 0362 B095      		com r27
 960               	.L61:
 961               	.LBE93:
 283:/Users/manueldeneu/Documents/projets/dev/Monu100/MicroController/MicMonu100/MicMonu100/Display.c ****         for (uint8_t yy=0; yy<h; yy++)
 963               	.LM112:
 964 0364 3017      		cp r19,r16
 965 0366 01F0      		breq .L69
 966               	.LBB94:
 967               	.LBB91:
 968               	.LBB92:
 970               	.Ltext1:
   1:/Users/manueldeneu/Documents/projets/dev/Monu100/MicroController/MicMonu100/MicMonu100/Display.h **** //
   2:/Users/manueldeneu/Documents/projets/dev/Monu100/MicroController/MicMonu100/MicMonu100/Display.h **** //  Display.h
   3:/Users/manueldeneu/Documents/projets/dev/Monu100/MicroController/MicMonu100/MicMonu100/Display.h **** //  MicMonu100
   4:/Users/manueldeneu/Documents/projets/dev/Monu100/MicroController/MicMonu100/MicMonu100/Display.h **** //
   5:/Users/manueldeneu/Documents/projets/dev/Monu100/MicroController/MicMonu100/MicMonu100/Display.h **** //  Created by Manuel Deneu on 01/03/15.
   6:/Users/manueldeneu/Documents/projets/dev/Monu100/MicroController/MicMonu100/MicMonu100/Display.h **** //  Copyright (c) 2015 Manuel Deneu. All rights reserved.
   7:/Users/manueldeneu/Documents/projets/dev/Monu100/MicroController/MicMonu100/MicMonu100/Display.h **** //
   8:/Users/manueldeneu/Documents/projets/dev/Monu100/MicroController/MicMonu100/MicMonu100/Display.h **** 
   9:/Users/manueldeneu/Documents/projets/dev/Monu100/MicroController/MicMonu100/MicMonu100/Display.h **** #ifndef MicMonu100_Display_h
  10:/Users/manueldeneu/Documents/projets/dev/Monu100/MicroController/MicMonu100/MicMonu100/Display.h **** #define MicMonu100_Display_h
  11:/Users/manueldeneu/Documents/projets/dev/Monu100/MicroController/MicMonu100/MicMonu100/Display.h **** 
  12:/Users/manueldeneu/Documents/projets/dev/Monu100/MicroController/MicMonu100/MicMonu100/Display.h **** 
  13:/Users/manueldeneu/Documents/projets/dev/Monu100/MicroController/MicMonu100/MicMonu100/Display.h **** #define X_TLC_MAX 30
  14:/Users/manueldeneu/Documents/projets/dev/Monu100/MicroController/MicMonu100/MicMonu100/Display.h **** #define Y_MIC_MAX 30
  15:/Users/manueldeneu/Documents/projets/dev/Monu100/MicroController/MicMonu100/MicMonu100/Display.h **** 
  16:/Users/manueldeneu/Documents/projets/dev/Monu100/MicroController/MicMonu100/MicMonu100/Display.h **** #define PIXEL_MAX_VALUE  100 //112
  17:/Users/manueldeneu/Documents/projets/dev/Monu100/MicroController/MicMonu100/MicMonu100/Display.h **** 
  18:/Users/manueldeneu/Documents/projets/dev/Monu100/MicroController/MicMonu100/MicMonu100/Display.h **** 
  19:/Users/manueldeneu/Documents/projets/dev/Monu100/MicroController/MicMonu100/MicMonu100/Display.h **** /* **** **** **** **** **** **** **** **** **** **** **** */
  20:/Users/manueldeneu/Documents/projets/dev/Monu100/MicroController/MicMonu100/MicMonu100/Display.h **** /*
  21:/Users/manueldeneu/Documents/projets/dev/Monu100/MicroController/MicMonu100/MicMonu100/Display.h ****  
  22:/Users/manueldeneu/Documents/projets/dev/Monu100/MicroController/MicMonu100/MicMonu100/Display.h ****  inversion x<->y entre le buffer et la matrice :
  23:/Users/manueldeneu/Documents/projets/dev/Monu100/MicroController/MicMonu100/MicMonu100/Display.h ****     Pour l'instant l'inversion est compensée dans l'interface ( fonctions display_*** )
  24:/Users/manueldeneu/Documents/projets/dev/Monu100/MicroController/MicMonu100/MicMonu100/Display.h ****  */
  25:/Users/manueldeneu/Documents/projets/dev/Monu100/MicroController/MicMonu100/MicMonu100/Display.h **** struct _Display
  26:/Users/manueldeneu/Documents/projets/dev/Monu100/MicroController/MicMonu100/MicMonu100/Display.h **** {
  27:/Users/manueldeneu/Documents/projets/dev/Monu100/MicroController/MicMonu100/MicMonu100/Display.h ****     uint8_t buff_A[ X_TLC_MAX ][ Y_MIC_MAX ]; // -> to display
  28:/Users/manueldeneu/Documents/projets/dev/Monu100/MicroController/MicMonu100/MicMonu100/Display.h ****     uint8_t buff_B[ X_TLC_MAX ][ Y_MIC_MAX ]; // -> image is constructed in this one
  29:/Users/manueldeneu/Documents/projets/dev/Monu100/MicroController/MicMonu100/MicMonu100/Display.h **** 
  30:/Users/manueldeneu/Documents/projets/dev/Monu100/MicroController/MicMonu100/MicMonu100/Display.h ****    // Point pos; // -> drawing pos
  31:/Users/manueldeneu/Documents/projets/dev/Monu100/MicroController/MicMonu100/MicMonu100/Display.h **** 
  32:/Users/manueldeneu/Documents/projets/dev/Monu100/MicroController/MicMonu100/MicMonu100/Display.h **** 
  33:/Users/manueldeneu/Documents/projets/dev/Monu100/MicroController/MicMonu100/MicMonu100/Display.h ****     
  34:/Users/manueldeneu/Documents/projets/dev/Monu100/MicroController/MicMonu100/MicMonu100/Display.h ****     /* This color will be used when clearing the display */
  35:/Users/manueldeneu/Documents/projets/dev/Monu100/MicroController/MicMonu100/MicMonu100/Display.h ****     uint8_t backgroundColor;
  36:/Users/manueldeneu/Documents/projets/dev/Monu100/MicroController/MicMonu100/MicMonu100/Display.h ****     uint8_t fillColor;
  37:/Users/manueldeneu/Documents/projets/dev/Monu100/MicroController/MicMonu100/MicMonu100/Display.h ****     uint8_t fontColor;
  38:/Users/manueldeneu/Documents/projets/dev/Monu100/MicroController/MicMonu100/MicMonu100/Display.h ****     
  39:/Users/manueldeneu/Documents/projets/dev/Monu100/MicroController/MicMonu100/MicMonu100/Display.h ****     
  40:/Users/manueldeneu/Documents/projets/dev/Monu100/MicroController/MicMonu100/MicMonu100/Display.h ****     uint8_t needsDisplay; // byte 0
  41:/Users/manueldeneu/Documents/projets/dev/Monu100/MicroController/MicMonu100/MicMonu100/Display.h ****     
  42:/Users/manueldeneu/Documents/projets/dev/Monu100/MicroController/MicMonu100/MicMonu100/Display.h ****     /* This flag will be set to 1 during the drawing interupt */
  43:/Users/manueldeneu/Documents/projets/dev/Monu100/MicroController/MicMonu100/MicMonu100/Display.h ****     volatile uint8_t isDrawing;
  44:/Users/manueldeneu/Documents/projets/dev/Monu100/MicroController/MicMonu100/MicMonu100/Display.h ****     
  45:/Users/manueldeneu/Documents/projets/dev/Monu100/MicroController/MicMonu100/MicMonu100/Display.h **** };
  46:/Users/manueldeneu/Documents/projets/dev/Monu100/MicroController/MicMonu100/MicMonu100/Display.h **** 
  47:/Users/manueldeneu/Documents/projets/dev/Monu100/MicroController/MicMonu100/MicMonu100/Display.h **** typedef struct _Display Display;
  48:/Users/manueldeneu/Documents/projets/dev/Monu100/MicroController/MicMonu100/MicMonu100/Display.h **** 
  49:/Users/manueldeneu/Documents/projets/dev/Monu100/MicroController/MicMonu100/MicMonu100/Display.h **** /* **** **** **** **** **** **** **** **** **** **** **** **** **** */
  50:/Users/manueldeneu/Documents/projets/dev/Monu100/MicroController/MicMonu100/MicMonu100/Display.h **** 
  51:/Users/manueldeneu/Documents/projets/dev/Monu100/MicroController/MicMonu100/MicMonu100/Display.h **** inline uint8_t inBouds( int8_t x , int8_t y)
  52:/Users/manueldeneu/Documents/projets/dev/Monu100/MicroController/MicMonu100/MicMonu100/Display.h **** {
  53:/Users/manueldeneu/Documents/projets/dev/Monu100/MicroController/MicMonu100/MicMonu100/Display.h ****     return    ( x >=0 && x <X_TLC_MAX )
  54:/Users/manueldeneu/Documents/projets/dev/Monu100/MicroController/MicMonu100/MicMonu100/Display.h ****            && ( y >=0 && y <Y_MIC_MAX );
 972               	.LM113:
 973 0368 6E31      		cpi r22,lo8(30)
 974 036a 00F4      		brsh .L59
 975 036c E1E0      		ldi r30,lo8(1)
 976 036e F0E0      		ldi r31,0
 977 0370 3E31      		cpi r19,lo8(30)
 978 0372 00F0      		brlo .L58
 979 0374 E0E0      		ldi r30,0
 980 0376 F0E0      		ldi r31,0
 981               	.L58:
 982               	.LBE92:
 983               	.LBE91:
 985               	.Ltext2:
 288:/Users/manueldeneu/Documents/projets/dev/Monu100/MicroController/MicMonu100/MicMonu100/Display.c ****             if( inBouds(defX, defY) )
 987               	.LM114:
 988 0378 EF2B      		or r30,r31
 989 037a 01F0      		breq .L59
 991               	.LM115:
 992 037c 3503      		mulsu r19,r21
 993 037e F001      		movw r30,r0
 994 0380 1124      		clr __zero_reg__
 995 0382 EA0F      		add r30,r26
 996 0384 FB1F      		adc r31,r27
 997 0386 E80F      		add r30,r24
 998 0388 F91F      		adc r31,r25
 999 038a 7881      		ld r23,Y
 1000 038c 7083      		st Z,r23
 1001               	.L59:
 1002 038e 3F5F      		subi r19,lo8(-(1))
 1003 0390 00C0      		rjmp .L61
 1004               	.L69:
 1005 0392 6F5F      		subi r22,lo8(-(1))
 1006 0394 00C0      		rjmp .L56
 1007               	.L54:
 1008               	/* epilogue start */
 1009               	.LBE94:
 1010               	.LBE95:
 1011               	.LBE88:
 290:/Users/manueldeneu/Documents/projets/dev/Monu100/MicroController/MicMonu100/MicMonu100/Display.c ****         }
 291:/Users/manueldeneu/Documents/projets/dev/Monu100/MicroController/MicMonu100/MicMonu100/Display.c **** }
 1013               	.LM116:
 1014 0396 DF91      		pop r29
 1015 0398 CF91      		pop r28
 1016 039a 0F91      		pop r16
 1017 039c 0895      		ret
 1019               	.Lscope10:
 1022               	.global	display_clear
 1024               	display_clear:
 292:/Users/manueldeneu/Documents/projets/dev/Monu100/MicroController/MicMonu100/MicMonu100/Display.c **** 
 293:/Users/manueldeneu/Documents/projets/dev/Monu100/MicroController/MicMonu100/MicMonu100/Display.c **** /* **** **** **** **** **** **** **** **** **** **** **** */
 294:/Users/manueldeneu/Documents/projets/dev/Monu100/MicroController/MicMonu100/MicMonu100/Display.c **** 
 295:/Users/manueldeneu/Documents/projets/dev/Monu100/MicroController/MicMonu100/MicMonu100/Display.c **** void display_clear( Display *display)
 296:/Users/manueldeneu/Documents/projets/dev/Monu100/MicroController/MicMonu100/MicMonu100/Display.c **** {
 1026               	.LM117:
 1027               	.LFBB11:
 1028 039e 0F93      		push r16
 1029               	/* prologue: function */
 1030               	/* frame size = 0 */
 1031               	/* stack size = 1 */
 1032               	.L__stack_usage = 1
 297:/Users/manueldeneu/Documents/projets/dev/Monu100/MicroController/MicMonu100/MicMonu100/Display.c ****     display_clearZone( display ,0,0 , X_TLC_MAX ,Y_MIC_MAX  );
 1034               	.LM118:
 1035 03a0 0EE1      		ldi r16,lo8(30)
 1036 03a2 2EE1      		ldi r18,lo8(30)
 1037 03a4 40E0      		ldi r20,0
 1038 03a6 60E0      		ldi r22,0
 1039 03a8 0E94 0000 		call display_clearZone
 1040               	/* epilogue start */
 298:/Users/manueldeneu/Documents/projets/dev/Monu100/MicroController/MicMonu100/MicMonu100/Display.c **** 
 299:/Users/manueldeneu/Documents/projets/dev/Monu100/MicroController/MicMonu100/MicMonu100/Display.c **** }
 1042               	.LM119:
 1043 03ac 0F91      		pop r16
 1044 03ae 0895      		ret
 1046               	.Lscope11:
 1049               	.global	display_init
 1051               	display_init:
 225:/Users/manueldeneu/Documents/projets/dev/Monu100/MicroController/MicMonu100/MicMonu100/Display.c **** {
 1053               	.LM120:
 1054               	.LFBB12:
 1055 03b0 CF93      		push r28
 1056 03b2 DF93      		push r29
 1057               	/* prologue: function */
 1058               	/* frame size = 0 */
 1059               	/* stack size = 2 */
 1060               	.L__stack_usage = 2
 1061 03b4 EC01      		movw r28,r24
 226:/Users/manueldeneu/Documents/projets/dev/Monu100/MicroController/MicMonu100/MicMonu100/Display.c ****     display_clear( display);
 1063               	.LM121:
 1064 03b6 0E94 0000 		call display_clear
 230:/Users/manueldeneu/Documents/projets/dev/Monu100/MicroController/MicMonu100/MicMonu100/Display.c ****     display->backgroundColor = 0b00000000;
 1066               	.LM122:
 1067 03ba FE01      		movw r30,r28
 1068 03bc E85F      		subi r30,-8
 1069 03be F84F      		sbci r31,-8
 1070 03c0 1082      		st Z,__zero_reg__
 231:/Users/manueldeneu/Documents/projets/dev/Monu100/MicroController/MicMonu100/MicMonu100/Display.c ****     display->fontColor = PIXEL_MAX_VALUE;
 1072               	.LM123:
 1073 03c2 3296      		adiw r30,2
 1074 03c4 84E6      		ldi r24,lo8(100)
 1075 03c6 8083      		st Z,r24
 232:/Users/manueldeneu/Documents/projets/dev/Monu100/MicroController/MicMonu100/MicMonu100/Display.c ****     display->fillColor = PIXEL_MAX_VALUE;
 1077               	.LM124:
 1078 03c8 3197      		sbiw r30,1
 1079 03ca 8083      		st Z,r24
 234:/Users/manueldeneu/Documents/projets/dev/Monu100/MicroController/MicMonu100/MicMonu100/Display.c ****     display->isDrawing = 0;
 1081               	.LM125:
 1082 03cc C45F      		subi r28,-12
 1083 03ce D84F      		sbci r29,-8
 1084 03d0 1882      		st Y,__zero_reg__
 1085               	/* epilogue start */
 237:/Users/manueldeneu/Documents/projets/dev/Monu100/MicroController/MicMonu100/MicMonu100/Display.c **** }
 1087               	.LM126:
 1088 03d2 DF91      		pop r29
 1089 03d4 CF91      		pop r28
 236:/Users/manueldeneu/Documents/projets/dev/Monu100/MicroController/MicMonu100/MicMonu100/Display.c ****     TLC5940_Init();    
 1091               	.LM127:
 1092 03d6 0C94 0000 		jmp TLC5940_Init
 1094               	.Lscope12:
 1099               	.global	display_translate
 1101               	display_translate:
 300:/Users/manueldeneu/Documents/projets/dev/Monu100/MicroController/MicMonu100/MicMonu100/Display.c **** 
 301:/Users/manueldeneu/Documents/projets/dev/Monu100/MicroController/MicMonu100/MicMonu100/Display.c **** /* **** **** **** **** **** **** **** **** **** **** **** **** **** **** **** **** **** **** **** *
 302:/Users/manueldeneu/Documents/projets/dev/Monu100/MicroController/MicMonu100/MicMonu100/Display.c **** 
 303:/Users/manueldeneu/Documents/projets/dev/Monu100/MicroController/MicMonu100/MicMonu100/Display.c **** void display_translate( Display *display , int8_t dX , int8_t dY)
 304:/Users/manueldeneu/Documents/projets/dev/Monu100/MicroController/MicMonu100/MicMonu100/Display.c **** {
 1103               	.LM128:
 1104               	.LFBB13:
 1105               	/* prologue: function */
 1106               	/* frame size = 0 */
 1107               	/* stack size = 0 */
 1108               	.L__stack_usage = 0
 1109 03da 0895      		ret
 1111               	.Lscope13:
 1117               	.global	display_write
 1119               	display_write:
 305:/Users/manueldeneu/Documents/projets/dev/Monu100/MicroController/MicMonu100/MicMonu100/Display.c ****     
 306:/Users/manueldeneu/Documents/projets/dev/Monu100/MicroController/MicMonu100/MicMonu100/Display.c **** }
 307:/Users/manueldeneu/Documents/projets/dev/Monu100/MicroController/MicMonu100/MicMonu100/Display.c **** 
 308:/Users/manueldeneu/Documents/projets/dev/Monu100/MicroController/MicMonu100/MicMonu100/Display.c **** /* **** **** **** **** **** **** **** **** **** **** **** **** **** **** **** **** **** **** **** *
 309:/Users/manueldeneu/Documents/projets/dev/Monu100/MicroController/MicMonu100/MicMonu100/Display.c **** 
 310:/Users/manueldeneu/Documents/projets/dev/Monu100/MicroController/MicMonu100/MicMonu100/Display.c **** void display_write(Display *display , const char* text, int8_t x , int8_t y , uint8_t dir /* 0 : ho
 311:/Users/manueldeneu/Documents/projets/dev/Monu100/MicroController/MicMonu100/MicMonu100/Display.c **** {
 1121               	.LM129:
 1122               	.LFBB14:
 1124               	.LM130:
 1125 03dc 2F92      		push r2
 1126 03de 3F92      		push r3
 1127 03e0 5F92      		push r5
 1128 03e2 6F92      		push r6
 1129 03e4 7F92      		push r7
 1130 03e6 8F92      		push r8
 1131 03e8 9F92      		push r9
 1132 03ea AF92      		push r10
 1133 03ec BF92      		push r11
 1134 03ee CF92      		push r12
 1135 03f0 DF92      		push r13
 1136 03f2 EF92      		push r14
 1137 03f4 FF92      		push r15
 1138 03f6 0F93      		push r16
 1139 03f8 1F93      		push r17
 1140 03fa CF93      		push r28
 1141 03fc DF93      		push r29
 1142               	/* prologue: function */
 1143               	/* frame size = 0 */
 1144               	/* stack size = 17 */
 1145               	.L__stack_usage = 17
 1146 03fe 502F      		mov r21,r16
 1147 0400 1B01      		movw r2,r22
 312:/Users/manueldeneu/Documents/projets/dev/Monu100/MicroController/MicMonu100/MicMonu100/Display.c ****     /*
 313:/Users/manueldeneu/Documents/projets/dev/Monu100/MicroController/MicMonu100/MicMonu100/Display.c ****     if (display->isDrawing == 1)
 314:/Users/manueldeneu/Documents/projets/dev/Monu100/MicroController/MicMonu100/MicMonu100/Display.c ****         return;
 315:/Users/manueldeneu/Documents/projets/dev/Monu100/MicroController/MicMonu100/MicMonu100/Display.c ****     */
 316:/Users/manueldeneu/Documents/projets/dev/Monu100/MicroController/MicMonu100/MicMonu100/Display.c ****     // inv x<->y
 317:/Users/manueldeneu/Documents/projets/dev/Monu100/MicroController/MicMonu100/MicMonu100/Display.c ****     int i =0;
 318:/Users/manueldeneu/Documents/projets/dev/Monu100/MicroController/MicMonu100/MicMonu100/Display.c ****     
 319:/Users/manueldeneu/Documents/projets/dev/Monu100/MicroController/MicMonu100/MicMonu100/Display.c ****     
 320:/Users/manueldeneu/Documents/projets/dev/Monu100/MicroController/MicMonu100/MicMonu100/Display.c ****     int8_t xx =y;
 321:/Users/manueldeneu/Documents/projets/dev/Monu100/MicroController/MicMonu100/MicMonu100/Display.c ****     int8_t yy =x;
 1149               	.LM131:
 1150 0402 342F      		mov r19,r20
 1151 0404 77E0      		ldi r23,lo8(7)
 1152 0406 672E      		mov r6,r23
 1153 0408 712C      		mov r7,__zero_reg__
 1154               	.LBB96:
 1155               	.LBB97:
 1156               	.LBB98:
 1157               	.LBB99:
 322:/Users/manueldeneu/Documents/projets/dev/Monu100/MicroController/MicMonu100/MicMonu100/Display.c ****     
 323:/Users/manueldeneu/Documents/projets/dev/Monu100/MicroController/MicMonu100/MicMonu100/Display.c ****     while ( text[i] != '\0' )
 324:/Users/manueldeneu/Documents/projets/dev/Monu100/MicroController/MicMonu100/MicMonu100/Display.c ****     {
 325:/Users/manueldeneu/Documents/projets/dev/Monu100/MicroController/MicMonu100/MicMonu100/Display.c ****         if ( text[i] == '\n' )
 326:/Users/manueldeneu/Documents/projets/dev/Monu100/MicroController/MicMonu100/MicMonu100/Display.c ****         {
 327:/Users/manueldeneu/Documents/projets/dev/Monu100/MicroController/MicMonu100/MicMonu100/Display.c ****             xx+= CHAR_HEIGHT;
 328:/Users/manueldeneu/Documents/projets/dev/Monu100/MicroController/MicMonu100/MicMonu100/Display.c ****             yy = x;
 329:/Users/manueldeneu/Documents/projets/dev/Monu100/MicroController/MicMonu100/MicMonu100/Display.c ****         }
 330:/Users/manueldeneu/Documents/projets/dev/Monu100/MicroController/MicMonu100/MicMonu100/Display.c ****         
 331:/Users/manueldeneu/Documents/projets/dev/Monu100/MicroController/MicMonu100/MicMonu100/Display.c ****         else if ( text[i] == ' ' )
 332:/Users/manueldeneu/Documents/projets/dev/Monu100/MicroController/MicMonu100/MicMonu100/Display.c ****             yy+=CHAR_WIDTH;
 333:/Users/manueldeneu/Documents/projets/dev/Monu100/MicroController/MicMonu100/MicMonu100/Display.c ****         
 334:/Users/manueldeneu/Documents/projets/dev/Monu100/MicroController/MicMonu100/MicMonu100/Display.c ****         else
 335:/Users/manueldeneu/Documents/projets/dev/Monu100/MicroController/MicMonu100/MicMonu100/Display.c ****         {
 336:/Users/manueldeneu/Documents/projets/dev/Monu100/MicroController/MicMonu100/MicMonu100/Display.c ****             const Glyphe* ch = getChar( text[i] );
 337:/Users/manueldeneu/Documents/projets/dev/Monu100/MicroController/MicMonu100/MicMonu100/Display.c ****             const uint8_t* buf = ch->buf;
 338:/Users/manueldeneu/Documents/projets/dev/Monu100/MicroController/MicMonu100/MicMonu100/Display.c ****             
 339:/Users/manueldeneu/Documents/projets/dev/Monu100/MicroController/MicMonu100/MicMonu100/Display.c ****             for (int i= 0;i<CHAR_HEIGHT ;i++)
 340:/Users/manueldeneu/Documents/projets/dev/Monu100/MicroController/MicMonu100/MicMonu100/Display.c ****             {
 341:/Users/manueldeneu/Documents/projets/dev/Monu100/MicroController/MicMonu100/MicMonu100/Display.c ****                 
 342:/Users/manueldeneu/Documents/projets/dev/Monu100/MicroController/MicMonu100/MicMonu100/Display.c ****                 for (int j= 0;j<ch->advance ;j++)
 343:/Users/manueldeneu/Documents/projets/dev/Monu100/MicroController/MicMonu100/MicMonu100/Display.c ****                 {
 344:/Users/manueldeneu/Documents/projets/dev/Monu100/MicroController/MicMonu100/MicMonu100/Display.c ****                     if ( buf[i] & (1<<(7-j) ))
 345:/Users/manueldeneu/Documents/projets/dev/Monu100/MicroController/MicMonu100/MicMonu100/Display.c ****                     {
 346:/Users/manueldeneu/Documents/projets/dev/Monu100/MicroController/MicMonu100/MicMonu100/Display.c ****                         const int8_t defX = xx+i;
 347:/Users/manueldeneu/Documents/projets/dev/Monu100/MicroController/MicMonu100/MicMonu100/Display.c ****                         const int8_t defY = yy+j;
 348:/Users/manueldeneu/Documents/projets/dev/Monu100/MicroController/MicMonu100/MicMonu100/Display.c ****                         
 349:/Users/manueldeneu/Documents/projets/dev/Monu100/MicroController/MicMonu100/MicMonu100/Display.c ****                         // ][ Y_MIC_MAX
 350:/Users/manueldeneu/Documents/projets/dev/Monu100/MicroController/MicMonu100/MicMonu100/Display.c ****                         if( inBouds(defX, defY) )
 351:/Users/manueldeneu/Documents/projets/dev/Monu100/MicroController/MicMonu100/MicMonu100/Display.c ****                         {
 352:/Users/manueldeneu/Documents/projets/dev/Monu100/MicroController/MicMonu100/MicMonu100/Display.c ****                             display->buff_A[ defX ][ defY ] = display->fontColor;
 1159               	.LM132:
 1160 040a 7C01      		movw r14,r24
 1161 040c 06EF      		ldi r16,-10
 1162 040e E01A      		sub r14,r16
 1163 0410 08EF      		ldi r16,-8
 1164 0412 F00A      		sbc r15,r16
 1165               	.L74:
 1166               	.LBE99:
 1167               	.LBE98:
 1168               	.LBE97:
 1169               	.LBE96:
 323:/Users/manueldeneu/Documents/projets/dev/Monu100/MicroController/MicMonu100/MicMonu100/Display.c ****     while ( text[i] != '\0' )
 1171               	.LM133:
 1172 0414 D101      		movw r26,r2
 1173 0416 ED91      		ld r30,X+
 1174 0418 1D01      		movw r2,r26
 1175 041a EE23      		tst r30
 1176 041c 01F4      		brne .+2
 1177 041e 00C0      		rjmp .L96
 325:/Users/manueldeneu/Documents/projets/dev/Monu100/MicroController/MicMonu100/MicMonu100/Display.c ****         if ( text[i] == '\n' )
 1179               	.LM134:
 1180 0420 EA30      		cpi r30,lo8(10)
 1181 0422 01F4      		brne .L75
 327:/Users/manueldeneu/Documents/projets/dev/Monu100/MicroController/MicMonu100/MicMonu100/Display.c ****             xx+= CHAR_HEIGHT;
 1183               	.LM135:
 1184 0424 265F      		subi r18,lo8(-(10))
 328:/Users/manueldeneu/Documents/projets/dev/Monu100/MicroController/MicMonu100/MicMonu100/Display.c ****             yy = x;
 1186               	.LM136:
 1187 0426 342F      		mov r19,r20
 1188 0428 00C0      		rjmp .L74
 1189               	.L75:
 331:/Users/manueldeneu/Documents/projets/dev/Monu100/MicroController/MicMonu100/MicMonu100/Display.c ****         else if ( text[i] == ' ' )
 1191               	.LM137:
 1192 042a E032      		cpi r30,lo8(32)
 1193 042c 01F4      		brne .L77
 332:/Users/manueldeneu/Documents/projets/dev/Monu100/MicroController/MicMonu100/MicMonu100/Display.c ****             yy+=CHAR_WIDTH;
 1195               	.LM138:
 1196 042e 385F      		subi r19,lo8(-(8))
 1197 0430 00C0      		rjmp .L74
 1198               	.L77:
 1199 0432 E053      		subi r30,lo8(-(-48))
 1200 0434 EB34      		cpi r30,lo8(75)
 1201 0436 00F4      		brsh .L88
 1202 0438 F0E0      		ldi r31,0
 1203 043a EE0F      		lsl r30
 1204 043c FF1F      		rol r31
 1205 043e E050      		subi r30,lo8(-(CSWTCH.21))
 1206 0440 F040      		sbci r31,hi8(-(CSWTCH.21))
 1207 0442 C081      		ld r28,Z
 1208 0444 D181      		ldd r29,Z+1
 1209 0446 00C0      		rjmp .L78
 1210               	.L88:
 331:/Users/manueldeneu/Documents/projets/dev/Monu100/MicroController/MicMonu100/MicMonu100/Display.c ****         else if ( text[i] == ' ' )
 1212               	.LM139:
 1213 0448 C0E0      		ldi r28,lo8(c_NULL)
 1214 044a D0E0      		ldi r29,hi8(c_NULL)
 1215               	.L78:
 1216               	.LBB108:
 1217               	.LBB107:
 339:/Users/manueldeneu/Documents/projets/dev/Monu100/MicroController/MicMonu100/MicMonu100/Display.c ****             for (int i= 0;i<CHAR_HEIGHT ;i++)
 1219               	.LM140:
 1220 044c 60E0      		ldi r22,0
 1221 044e 70E0      		ldi r23,0
 1222               	.L79:
 1223               	.LBB106:
 1224               	.LBB104:
 1225               	.LBB100:
 1226               	.LBB101:
 1228               	.Ltext3:
 1230               	.LM141:
 1231 0450 E0E0      		ldi r30,0
 1232 0452 F0E0      		ldi r31,0
 1233 0454 5E01      		movw r10,r28
 1234 0456 A60E      		add r10,r22
 1235 0458 B71E      		adc r11,r23
 1236 045a 522E      		mov r5,r18
 1237 045c 560E      		add r5,r22
 1238               	.LBE101:
 1239               	.LBE100:
 1241               	.Ltext4:
 1243               	.LM142:
 1244 045e 0EE1      		ldi r16,lo8(30)
 1245 0460 152D      		mov r17,r5
 1246 0462 1003      		mulsu r17,r16
 1247 0464 6001      		movw r12,r0
 1248 0466 1124      		clr __zero_reg__
 1249               	.L85:
 1250               	.LBE104:
 342:/Users/manueldeneu/Documents/projets/dev/Monu100/MicroController/MicMonu100/MicMonu100/Display.c ****                 for (int j= 0;j<ch->advance ;j++)
 1252               	.LM143:
 1253 0468 9A84      		ldd r9,Y+10
 1254 046a 092D      		mov r16,r9
 1255 046c 10E0      		ldi r17,0
 1256 046e E017      		cp r30,r16
 1257 0470 F107      		cpc r31,r17
 1258 0472 04F4      		brge .L97
 344:/Users/manueldeneu/Documents/projets/dev/Monu100/MicroController/MicMonu100/MicMonu100/Display.c ****                     if ( buf[i] & (1<<(7-j) ))
 1260               	.LM144:
 1261 0474 D501      		movw r26,r10
 1262 0476 0C91      		ld r16,X
 1263 0478 10E0      		ldi r17,0
 1264 047a 4301      		movw r8,r6
 1265 047c 8E1A      		sub r8,r30
 1266 047e 9F0A      		sbc r9,r31
 1267 0480 00C0      		rjmp 2f
 1268               		1:
 1269 0482 1595      		asr r17
 1270 0484 0795      		ror r16
 1271               		2:
 1272 0486 8A94      		dec r8
 1273 0488 02F4      		brpl 1b
 1274 048a 00FF      		sbrs r16,0
 1275 048c 00C0      		rjmp .L80
 1276               	.LBB105:
 1277               	.LBB103:
 1278               	.LBB102:
 1280               	.Ltext5:
 1282               	.LM145:
 1283 048e BDE1      		ldi r27,lo8(29)
 1284 0490 B515      		cp r27,r5
 1285 0492 00F0      		brlo .L80
 1286 0494 932E      		mov r9,r19
 1287 0496 9E0E      		add r9,r30
 1288 0498 01E0      		ldi r16,lo8(1)
 1289 049a 10E0      		ldi r17,0
 1290 049c B915      		cp r27,r9
 1291 049e 00F4      		brsh .L82
 1292 04a0 00E0      		ldi r16,0
 1293 04a2 10E0      		ldi r17,0
 1294               	.L82:
 1295               	.LBE102:
 1296               	.LBE103:
 1298               	.Ltext6:
 350:/Users/manueldeneu/Documents/projets/dev/Monu100/MicroController/MicMonu100/MicMonu100/Display.c ****                         if( inBouds(defX, defY) )
 1300               	.LM146:
 1301 04a4 012B      		or r16,r17
 1302 04a6 01F0      		breq .L80
 1304               	.LM147:
 1305 04a8 8601      		movw r16,r12
 1306 04aa 090D      		add r16,r9
 1307 04ac 111D      		adc r17,__zero_reg__
 1308 04ae 97FC      		sbrc r9,7
 1309 04b0 1A95      		dec r17
 1310 04b2 080F      		add r16,r24
 1311 04b4 191F      		adc r17,r25
 1312 04b6 D701      		movw r26,r14
 1313 04b8 9C90      		ld r9,X
 1314 04ba D801      		movw r26,r16
 1315 04bc 9C92      		st X,r9
 1316               	.L80:
 1317               	.LBE105:
 342:/Users/manueldeneu/Documents/projets/dev/Monu100/MicroController/MicMonu100/MicMonu100/Display.c ****                 for (int j= 0;j<ch->advance ;j++)
 1319               	.LM148:
 1320 04be 3196      		adiw r30,1
 1321 04c0 00C0      		rjmp .L85
 1322               	.L97:
 1323               	.LBE106:
 339:/Users/manueldeneu/Documents/projets/dev/Monu100/MicroController/MicMonu100/MicMonu100/Display.c ****             for (int i= 0;i<CHAR_HEIGHT ;i++)
 1325               	.LM149:
 1326 04c2 6F5F      		subi r22,-1
 1327 04c4 7F4F      		sbci r23,-1
 1328 04c6 6A30      		cpi r22,10
 1329 04c8 7105      		cpc r23,__zero_reg__
 1330 04ca 01F4      		brne .L79
 1331               	.LBE107:
 353:/Users/manueldeneu/Documents/projets/dev/Monu100/MicroController/MicMonu100/MicMonu100/Display.c ****                         }
 354:/Users/manueldeneu/Documents/projets/dev/Monu100/MicroController/MicMonu100/MicMonu100/Display.c ****                     }
 355:/Users/manueldeneu/Documents/projets/dev/Monu100/MicroController/MicMonu100/MicMonu100/Display.c **** 
 356:/Users/manueldeneu/Documents/projets/dev/Monu100/MicroController/MicMonu100/MicMonu100/Display.c ****                 }
 357:/Users/manueldeneu/Documents/projets/dev/Monu100/MicroController/MicMonu100/MicMonu100/Display.c ****             }
 358:/Users/manueldeneu/Documents/projets/dev/Monu100/MicroController/MicMonu100/MicMonu100/Display.c ****             
 359:/Users/manueldeneu/Documents/projets/dev/Monu100/MicroController/MicMonu100/MicMonu100/Display.c ****             //
 360:/Users/manueldeneu/Documents/projets/dev/Monu100/MicroController/MicMonu100/MicMonu100/Display.c ****             if( dir == 0 )
 1333               	.LM150:
 1334 04cc 5111      		cpse r21,__zero_reg__
 1335 04ce 00C0      		rjmp .L86
 361:/Users/manueldeneu/Documents/projets/dev/Monu100/MicroController/MicMonu100/MicMonu100/Display.c ****                 yy+=ch->advance;
 1337               	.LM151:
 1338 04d0 390D      		add r19,r9
 1339 04d2 00C0      		rjmp .L74
 1340               	.L86:
 362:/Users/manueldeneu/Documents/projets/dev/Monu100/MicroController/MicMonu100/MicMonu100/Display.c ****             else
 363:/Users/manueldeneu/Documents/projets/dev/Monu100/MicroController/MicMonu100/MicMonu100/Display.c ****                 xx+= CHAR_HEIGHT;
 1342               	.LM152:
 1343 04d4 265F      		subi r18,lo8(-(10))
 1344 04d6 00C0      		rjmp .L74
 1345               	.L96:
 1346               	/* epilogue start */
 1347               	.LBE108:
 364:/Users/manueldeneu/Documents/projets/dev/Monu100/MicroController/MicMonu100/MicMonu100/Display.c ****         }
 365:/Users/manueldeneu/Documents/projets/dev/Monu100/MicroController/MicMonu100/MicMonu100/Display.c ****         i++;
 366:/Users/manueldeneu/Documents/projets/dev/Monu100/MicroController/MicMonu100/MicMonu100/Display.c ****         
 367:/Users/manueldeneu/Documents/projets/dev/Monu100/MicroController/MicMonu100/MicMonu100/Display.c ****         
 368:/Users/manueldeneu/Documents/projets/dev/Monu100/MicroController/MicMonu100/MicMonu100/Display.c ****     }
 369:/Users/manueldeneu/Documents/projets/dev/Monu100/MicroController/MicMonu100/MicMonu100/Display.c **** }
 1349               	.LM153:
 1350 04d8 DF91      		pop r29
 1351 04da CF91      		pop r28
 1352 04dc 1F91      		pop r17
 1353 04de 0F91      		pop r16
 1354 04e0 FF90      		pop r15
 1355 04e2 EF90      		pop r14
 1356 04e4 DF90      		pop r13
 1357 04e6 CF90      		pop r12
 1358 04e8 BF90      		pop r11
 1359 04ea AF90      		pop r10
 1360 04ec 9F90      		pop r9
 1361 04ee 8F90      		pop r8
 1362 04f0 7F90      		pop r7
 1363 04f2 6F90      		pop r6
 1364 04f4 5F90      		pop r5
 1365 04f6 3F90      		pop r3
 1366 04f8 2F90      		pop r2
 1367 04fa 0895      		ret
 1381               	.Lscope14:
 1385               	.global	display_writeImage
 1387               	display_writeImage:
 370:/Users/manueldeneu/Documents/projets/dev/Monu100/MicroController/MicMonu100/MicMonu100/Display.c **** 
 371:/Users/manueldeneu/Documents/projets/dev/Monu100/MicroController/MicMonu100/MicMonu100/Display.c **** /* **** **** **** **** **** **** **** **** **** **** **** */
 372:/Users/manueldeneu/Documents/projets/dev/Monu100/MicroController/MicMonu100/MicMonu100/Display.c **** 
 373:/Users/manueldeneu/Documents/projets/dev/Monu100/MicroController/MicMonu100/MicMonu100/Display.c **** void display_writeImage( Display *display,const  uint8_t *image )
 374:/Users/manueldeneu/Documents/projets/dev/Monu100/MicroController/MicMonu100/MicMonu100/Display.c **** {
 1389               	.LM154:
 1390               	.LFBB15:
 1391 04fc EF92      		push r14
 1392 04fe FF92      		push r15
 1393 0500 0F93      		push r16
 1394 0502 1F93      		push r17
 1395 0504 CF93      		push r28
 1396 0506 DF93      		push r29
 1397               	/* prologue: function */
 1398               	/* frame size = 0 */
 1399               	/* stack size = 6 */
 1400               	.L__stack_usage = 6
 375:/Users/manueldeneu/Documents/projets/dev/Monu100/MicroController/MicMonu100/MicMonu100/Display.c ****     if (display->isDrawing == 1)
 1402               	.LM155:
 1403 0508 FC01      		movw r30,r24
 1404 050a E45F      		subi r30,-12
 1405 050c F84F      		sbci r31,-8
 1406 050e 2081      		ld r18,Z
 1407 0510 2130      		cpi r18,lo8(1)
 1408 0512 01F0      		breq .L98
 1409 0514 20E0      		ldi r18,0
 1410 0516 30E0      		ldi r19,0
 1411               	.L100:
 374:/Users/manueldeneu/Documents/projets/dev/Monu100/MicroController/MicMonu100/MicMonu100/Display.c **** {
 1413               	.LM156:
 1414 0518 40E0      		ldi r20,0
 1415 051a 50E0      		ldi r21,0
 1416 051c DC01      		movw r26,r24
 1417 051e A20F      		add r26,r18
 1418 0520 B31F      		adc r27,r19
 1419 0522 7B01      		movw r14,r22
 1420 0524 E20E      		add r14,r18
 1421 0526 F31E      		adc r15,r19
 1422               	.L103:
 1423 0528 ED01      		movw r28,r26
 1424 052a C40F      		add r28,r20
 1425 052c D51F      		adc r29,r21
 1426 052e 8701      		movw r16,r14
 1427 0530 040F      		add r16,r20
 1428 0532 151F      		adc r17,r21
 1429               	.LBB109:
 1430               	.LBB110:
 1431               	.LBB111:
 1432               	.LBB112:
  36:/Users/manueldeneu/Documents/projets/dev/Monu100/MicroController/MicMonu100/MicMonu100/Display.c ****     return val>=PIXEL_MAX_VALUE ? PIXEL_MAX_VALUE : val;
 1434               	.LM157:
 1435 0534 F801      		movw r30,r16
 1436 0536 1081      		ld r17,Z
 1437 0538 1536      		cpi r17,lo8(101)
 1438 053a 00F0      		brlo .L101
 1439 053c 14E6      		ldi r17,lo8(100)
 1440               	.L101:
 1441               	.LBE112:
 1442               	.LBE111:
 376:/Users/manueldeneu/Documents/projets/dev/Monu100/MicroController/MicMonu100/MicMonu100/Display.c ****         return;
 377:/Users/manueldeneu/Documents/projets/dev/Monu100/MicroController/MicMonu100/MicMonu100/Display.c ****     
 378:/Users/manueldeneu/Documents/projets/dev/Monu100/MicroController/MicMonu100/MicMonu100/Display.c ****     for (int x = 0; x<X_TLC_MAX;x++)
 379:/Users/manueldeneu/Documents/projets/dev/Monu100/MicroController/MicMonu100/MicMonu100/Display.c ****     {
 380:/Users/manueldeneu/Documents/projets/dev/Monu100/MicroController/MicMonu100/MicMonu100/Display.c ****         for (int y = 0; y<Y_MIC_MAX;y++)
 381:/Users/manueldeneu/Documents/projets/dev/Monu100/MicroController/MicMonu100/MicMonu100/Display.c ****         {
 382:/Users/manueldeneu/Documents/projets/dev/Monu100/MicroController/MicMonu100/MicMonu100/Display.c ****             display->buff_A[x][y] = clipVal( image[y + x*30] );
 1444               	.LM158:
 1445 053e 1883      		st Y,r17
 380:/Users/manueldeneu/Documents/projets/dev/Monu100/MicroController/MicMonu100/MicMonu100/Display.c ****         for (int y = 0; y<Y_MIC_MAX;y++)
 1447               	.LM159:
 1448 0540 4F5F      		subi r20,-1
 1449 0542 5F4F      		sbci r21,-1
 1450 0544 4E31      		cpi r20,30
 1451 0546 5105      		cpc r21,__zero_reg__
 1452 0548 01F4      		brne .L103
 1453 054a 225E      		subi r18,-30
 1454 054c 3F4F      		sbci r19,-1
 1455               	.LBE110:
 378:/Users/manueldeneu/Documents/projets/dev/Monu100/MicroController/MicMonu100/MicMonu100/Display.c ****     for (int x = 0; x<X_TLC_MAX;x++)
 1457               	.LM160:
 1458 054e 2438      		cpi r18,-124
 1459 0550 F3E0      		ldi r31,3
 1460 0552 3F07      		cpc r19,r31
 1461 0554 01F4      		brne .L100
 1462               	.L98:
 1463               	/* epilogue start */
 1464               	.LBE109:
 383:/Users/manueldeneu/Documents/projets/dev/Monu100/MicroController/MicMonu100/MicMonu100/Display.c ****         }
 384:/Users/manueldeneu/Documents/projets/dev/Monu100/MicroController/MicMonu100/MicMonu100/Display.c ****     }
 385:/Users/manueldeneu/Documents/projets/dev/Monu100/MicroController/MicMonu100/MicMonu100/Display.c **** }
 1466               	.LM161:
 1467 0556 DF91      		pop r29
 1468 0558 CF91      		pop r28
 1469 055a 1F91      		pop r17
 1470 055c 0F91      		pop r16
 1471 055e FF90      		pop r15
 1472 0560 EF90      		pop r14
 1473 0562 0895      		ret
 1478               	.Lscope15:
 1485               	.global	display_fillZone
 1487               	display_fillZone:
 386:/Users/manueldeneu/Documents/projets/dev/Monu100/MicroController/MicMonu100/MicMonu100/Display.c **** 
 387:/Users/manueldeneu/Documents/projets/dev/Monu100/MicroController/MicMonu100/MicMonu100/Display.c **** /* **** **** **** **** **** **** **** **** **** **** **** */
 388:/Users/manueldeneu/Documents/projets/dev/Monu100/MicroController/MicMonu100/MicMonu100/Display.c **** 
 389:/Users/manueldeneu/Documents/projets/dev/Monu100/MicroController/MicMonu100/MicMonu100/Display.c **** void display_fillZone  ( Display *display , const uint8_t x , const uint8_t y, const uint8_t w , co
 390:/Users/manueldeneu/Documents/projets/dev/Monu100/MicroController/MicMonu100/MicMonu100/Display.c **** {
 1489               	.LM162:
 1490               	.LFBB16:
 1491 0564 FF92      		push r15
 1492 0566 0F93      		push r16
 1493 0568 1F93      		push r17
 1494 056a CF93      		push r28
 1495 056c DF93      		push r29
 1496               	/* prologue: function */
 1497               	/* frame size = 0 */
 1498               	/* stack size = 5 */
 1499               	.L__stack_usage = 5
 1500 056e 70E0      		ldi r23,0
 1501 0570 3EE1      		ldi r19,lo8(30)
 1502 0572 439F      		mul r20,r19
 1503 0574 600D      		add r22,r0
 1504 0576 711D      		adc r23,r1
 1505 0578 1124      		clr __zero_reg__
 1506               	.LBB113:
 391:/Users/manueldeneu/Documents/projets/dev/Monu100/MicroController/MicMonu100/MicMonu100/Display.c ****     /*
 392:/Users/manueldeneu/Documents/projets/dev/Monu100/MicroController/MicMonu100/MicMonu100/Display.c ****     if (display->isDrawing == 1)
 393:/Users/manueldeneu/Documents/projets/dev/Monu100/MicroController/MicMonu100/MicMonu100/Display.c ****         return;
 394:/Users/manueldeneu/Documents/projets/dev/Monu100/MicroController/MicMonu100/MicMonu100/Display.c ****     */
 395:/Users/manueldeneu/Documents/projets/dev/Monu100/MicroController/MicMonu100/MicMonu100/Display.c ****     
 396:/Users/manueldeneu/Documents/projets/dev/Monu100/MicroController/MicMonu100/MicMonu100/Display.c ****     // inv x<->y
 397:/Users/manueldeneu/Documents/projets/dev/Monu100/MicroController/MicMonu100/MicMonu100/Display.c ****     for (uint8_t xx=0; xx< w; xx++)
 1508               	.LM163:
 1509 057a 30E0      		ldi r19,0
 1510               	.LBB114:
 398:/Users/manueldeneu/Documents/projets/dev/Monu100/MicroController/MicMonu100/MicMonu100/Display.c ****         
 399:/Users/manueldeneu/Documents/projets/dev/Monu100/MicroController/MicMonu100/MicMonu100/Display.c ****         for (uint8_t yy=0; yy<h; yy++)
 400:/Users/manueldeneu/Documents/projets/dev/Monu100/MicroController/MicMonu100/MicMonu100/Display.c ****             
 401:/Users/manueldeneu/Documents/projets/dev/Monu100/MicroController/MicMonu100/MicMonu100/Display.c ****             display->buff_A[y+yy][x+xx] = display->fillColor;
 1512               	.LM164:
 1513 057c DC01      		movw r26,r24
 1514 057e A75F      		subi r26,-9
 1515 0580 B84F      		sbci r27,-8
 1516               	.L111:
 1517               	.LBE114:
 397:/Users/manueldeneu/Documents/projets/dev/Monu100/MicroController/MicMonu100/MicMonu100/Display.c ****     for (uint8_t xx=0; xx< w; xx++)
 1519               	.LM165:
 1520 0582 3217      		cp r19,r18
 1521 0584 01F0      		breq .L110
 1522 0586 FB01      		movw r30,r22
 1523 0588 E30F      		add r30,r19
 1524 058a F11D      		adc r31,__zero_reg__
 1525 058c E80F      		add r30,r24
 1526 058e F91F      		adc r31,r25
 397:/Users/manueldeneu/Documents/projets/dev/Monu100/MicroController/MicMonu100/MicMonu100/Display.c ****     for (uint8_t xx=0; xx< w; xx++)
 1528               	.LM166:
 1529 0590 40E0      		ldi r20,0
 1530 0592 50E0      		ldi r21,0
 1531 0594 10E0      		ldi r17,0
 1532               	.L114:
 1533               	.LBB115:
 399:/Users/manueldeneu/Documents/projets/dev/Monu100/MicroController/MicMonu100/MicMonu100/Display.c ****         for (uint8_t yy=0; yy<h; yy++)
 1535               	.LM167:
 1536 0596 1017      		cp r17,r16
 1537 0598 01F0      		breq .L115
 1539               	.LM168:
 1540 059a FC90      		ld r15,X
 1541 059c EF01      		movw r28,r30
 1542 059e C40F      		add r28,r20
 1543 05a0 D51F      		adc r29,r21
 1544 05a2 F882      		st Y,r15
 399:/Users/manueldeneu/Documents/projets/dev/Monu100/MicroController/MicMonu100/MicMonu100/Display.c ****         for (uint8_t yy=0; yy<h; yy++)
 1546               	.LM169:
 1547 05a4 1F5F      		subi r17,lo8(-(1))
 1548 05a6 425E      		subi r20,-30
 1549 05a8 5F4F      		sbci r21,-1
 1550 05aa 00C0      		rjmp .L114
 1551               	.L115:
 1552               	.LBE115:
 397:/Users/manueldeneu/Documents/projets/dev/Monu100/MicroController/MicMonu100/MicMonu100/Display.c ****     for (uint8_t xx=0; xx< w; xx++)
 1554               	.LM170:
 1555 05ac 3F5F      		subi r19,lo8(-(1))
 1556 05ae 00C0      		rjmp .L111
 1557               	.L110:
 1558               	/* epilogue start */
 1559               	.LBE113:
 402:/Users/manueldeneu/Documents/projets/dev/Monu100/MicroController/MicMonu100/MicMonu100/Display.c **** }
 1561               	.LM171:
 1562 05b0 DF91      		pop r29
 1563 05b2 CF91      		pop r28
 1564 05b4 1F91      		pop r17
 1565 05b6 0F91      		pop r16
 1566 05b8 FF90      		pop r15
 1567 05ba 0895      		ret
 1578               	.Lscope16:
 1584               	.global	display_setPixel
 1586               	display_setPixel:
 403:/Users/manueldeneu/Documents/projets/dev/Monu100/MicroController/MicMonu100/MicMonu100/Display.c **** 
 404:/Users/manueldeneu/Documents/projets/dev/Monu100/MicroController/MicMonu100/MicMonu100/Display.c **** /* **** **** **** **** **** **** **** **** **** **** **** */
 405:/Users/manueldeneu/Documents/projets/dev/Monu100/MicroController/MicMonu100/MicMonu100/Display.c **** 
 406:/Users/manueldeneu/Documents/projets/dev/Monu100/MicroController/MicMonu100/MicMonu100/Display.c **** void display_setPixel( Display *display , const uint8_t x , const uint8_t y, const uint8_t value)
 407:/Users/manueldeneu/Documents/projets/dev/Monu100/MicroController/MicMonu100/MicMonu100/Display.c **** {
 1588               	.LM172:
 1589               	.LFBB17:
 1590               	/* prologue: function */
 1591               	/* frame size = 0 */
 1592               	/* stack size = 0 */
 1593               	.L__stack_usage = 0
 408:/Users/manueldeneu/Documents/projets/dev/Monu100/MicroController/MicMonu100/MicMonu100/Display.c **** //    if (display->isDrawing == 1)
 409:/Users/manueldeneu/Documents/projets/dev/Monu100/MicroController/MicMonu100/MicMonu100/Display.c **** //        return;
 410:/Users/manueldeneu/Documents/projets/dev/Monu100/MicroController/MicMonu100/MicMonu100/Display.c ****     
 411:/Users/manueldeneu/Documents/projets/dev/Monu100/MicroController/MicMonu100/MicMonu100/Display.c ****     // inversion x<->y
 412:/Users/manueldeneu/Documents/projets/dev/Monu100/MicroController/MicMonu100/MicMonu100/Display.c ****     if ( (y < X_TLC_MAX) && ( x <Y_MIC_MAX) )
 1595               	.LM173:
 1596 05bc 4E31      		cpi r20,lo8(30)
 1597 05be 00F4      		brsh .L116
 1599               	.LM174:
 1600 05c0 6E31      		cpi r22,lo8(30)
 1601 05c2 00F4      		brsh .L116
 413:/Users/manueldeneu/Documents/projets/dev/Monu100/MicroController/MicMonu100/MicMonu100/Display.c ****         display->buff_A[y][x] = clipVal( value );
 1603               	.LM175:
 1604 05c4 3EE1      		ldi r19,lo8(30)
 1605 05c6 439F      		mul r20,r19
 1606 05c8 F001      		movw r30,r0
 1607 05ca 1124      		clr __zero_reg__
 1608 05cc E60F      		add r30,r22
 1609 05ce F11D      		adc r31,__zero_reg__
 1610 05d0 E80F      		add r30,r24
 1611 05d2 F91F      		adc r31,r25
 1612               	.LBB116:
 1613               	.LBB117:
  36:/Users/manueldeneu/Documents/projets/dev/Monu100/MicroController/MicMonu100/MicMonu100/Display.c ****     return val>=PIXEL_MAX_VALUE ? PIXEL_MAX_VALUE : val;
 1615               	.LM176:
 1616 05d4 2536      		cpi r18,lo8(101)
 1617 05d6 00F0      		brlo .L118
 1618 05d8 24E6      		ldi r18,lo8(100)
 1619               	.L118:
 1620               	.LBE117:
 1621               	.LBE116:
 1623               	.LM177:
 1624 05da 2083      		st Z,r18
 1625               	.L116:
 1626 05dc 0895      		ret
 1628               	.Lscope17:
 1634               	.global	display_addPixel
 1636               	display_addPixel:
 414:/Users/manueldeneu/Documents/projets/dev/Monu100/MicroController/MicMonu100/MicMonu100/Display.c **** }
 415:/Users/manueldeneu/Documents/projets/dev/Monu100/MicroController/MicMonu100/MicMonu100/Display.c **** 
 416:/Users/manueldeneu/Documents/projets/dev/Monu100/MicroController/MicMonu100/MicMonu100/Display.c **** /* **** **** **** **** **** **** **** **** **** **** **** */
 417:/Users/manueldeneu/Documents/projets/dev/Monu100/MicroController/MicMonu100/MicMonu100/Display.c **** 
 418:/Users/manueldeneu/Documents/projets/dev/Monu100/MicroController/MicMonu100/MicMonu100/Display.c **** void display_addPixel( Display *display , const uint8_t x , const uint8_t y, const uint8_t value)
 419:/Users/manueldeneu/Documents/projets/dev/Monu100/MicroController/MicMonu100/MicMonu100/Display.c **** {
 1638               	.LM178:
 1639               	.LFBB18:
 1640               	/* prologue: function */
 1641               	/* frame size = 0 */
 1642               	/* stack size = 0 */
 1643               	.L__stack_usage = 0
 420:/Users/manueldeneu/Documents/projets/dev/Monu100/MicroController/MicMonu100/MicMonu100/Display.c ****     // inversion x<->y
 421:/Users/manueldeneu/Documents/projets/dev/Monu100/MicroController/MicMonu100/MicMonu100/Display.c ****     if ( (y < X_TLC_MAX) && ( x <Y_MIC_MAX) )
 1645               	.LM179:
 1646 05de 4E31      		cpi r20,lo8(30)
 1647 05e0 00F4      		brsh .L119
 1649               	.LM180:
 1650 05e2 6E31      		cpi r22,lo8(30)
 1651 05e4 00F4      		brsh .L119
 422:/Users/manueldeneu/Documents/projets/dev/Monu100/MicroController/MicMonu100/MicMonu100/Display.c ****         display->buff_A[y][x] = clipVal( value );
 1653               	.LM181:
 1654 05e6 3EE1      		ldi r19,lo8(30)
 1655 05e8 439F      		mul r20,r19
 1656 05ea F001      		movw r30,r0
 1657 05ec 1124      		clr __zero_reg__
 1658 05ee E60F      		add r30,r22
 1659 05f0 F11D      		adc r31,__zero_reg__
 1660 05f2 E80F      		add r30,r24
 1661 05f4 F91F      		adc r31,r25
 1662               	.LBB118:
 1663               	.LBB119:
  36:/Users/manueldeneu/Documents/projets/dev/Monu100/MicroController/MicMonu100/MicMonu100/Display.c ****     return val>=PIXEL_MAX_VALUE ? PIXEL_MAX_VALUE : val;
 1665               	.LM182:
 1666 05f6 2536      		cpi r18,lo8(101)
 1667 05f8 00F0      		brlo .L121
 1668 05fa 24E6      		ldi r18,lo8(100)
 1669               	.L121:
 1670               	.LBE119:
 1671               	.LBE118:
 1673               	.LM183:
 1674 05fc 2083      		st Z,r18
 1675               	.L119:
 1676 05fe 0895      		ret
 1678               	.Lscope18:
 1684               	.global	display_drawCircle
 1686               	display_drawCircle:
 423:/Users/manueldeneu/Documents/projets/dev/Monu100/MicroController/MicMonu100/MicMonu100/Display.c **** }
 424:/Users/manueldeneu/Documents/projets/dev/Monu100/MicroController/MicMonu100/MicMonu100/Display.c **** 
 425:/Users/manueldeneu/Documents/projets/dev/Monu100/MicroController/MicMonu100/MicMonu100/Display.c **** /* **** **** **** **** **** **** **** **** **** **** **** **** **** **** **** **** **** **** **** *
 426:/Users/manueldeneu/Documents/projets/dev/Monu100/MicroController/MicMonu100/MicMonu100/Display.c **** /* **** **** **** **** **** **** **** **** **** **** **** **** **** **** **** **** **** **** **** *
 427:/Users/manueldeneu/Documents/projets/dev/Monu100/MicroController/MicMonu100/MicMonu100/Display.c **** 
 428:/Users/manueldeneu/Documents/projets/dev/Monu100/MicroController/MicMonu100/MicMonu100/Display.c **** /*
 429:/Users/manueldeneu/Documents/projets/dev/Monu100/MicroController/MicMonu100/MicMonu100/Display.c ****  
 430:/Users/manueldeneu/Documents/projets/dev/Monu100/MicroController/MicMonu100/MicMonu100/Display.c ****     Drawing routines
 431:/Users/manueldeneu/Documents/projets/dev/Monu100/MicroController/MicMonu100/MicMonu100/Display.c ****  
 432:/Users/manueldeneu/Documents/projets/dev/Monu100/MicroController/MicMonu100/MicMonu100/Display.c ****  */
 433:/Users/manueldeneu/Documents/projets/dev/Monu100/MicroController/MicMonu100/MicMonu100/Display.c **** /* **** **** **** **** **** **** **** **** **** **** **** */
 434:/Users/manueldeneu/Documents/projets/dev/Monu100/MicroController/MicMonu100/MicMonu100/Display.c **** 
 435:/Users/manueldeneu/Documents/projets/dev/Monu100/MicroController/MicMonu100/MicMonu100/Display.c **** void display_drawCircle( Display *display , const uint8_t x0 , const uint8_t y0 , const uint8_t r)
 436:/Users/manueldeneu/Documents/projets/dev/Monu100/MicroController/MicMonu100/MicMonu100/Display.c **** {
 1688               	.LM184:
 1689               	.LFBB19:
 1690 0600 2F92      		push r2
 1691 0602 3F92      		push r3
 1692 0604 4F92      		push r4
 1693 0606 5F92      		push r5
 1694 0608 6F92      		push r6
 1695 060a 7F92      		push r7
 1696 060c 8F92      		push r8
 1697 060e 9F92      		push r9
 1698 0610 AF92      		push r10
 1699 0612 BF92      		push r11
 1700 0614 CF92      		push r12
 1701 0616 DF92      		push r13
 1702 0618 EF92      		push r14
 1703 061a FF92      		push r15
 1704 061c 0F93      		push r16
 1705 061e 1F93      		push r17
 1706 0620 CF93      		push r28
 1707 0622 DF93      		push r29
 1708 0624 00D0      		rcall .
 1709 0626 CDB7      		in r28,__SP_L__
 1710 0628 DEB7      		in r29,__SP_H__
 1711               	/* prologue: function */
 1712               	/* frame size = 3 */
 1713               	/* stack size = 21 */
 1714               	.L__stack_usage = 21
 1715 062a 9B83      		std Y+3,r25
 1716 062c 8A83      		std Y+2,r24
 1717 062e 762E      		mov r7,r22
 1718 0630 642E      		mov r6,r20
 437:/Users/manueldeneu/Documents/projets/dev/Monu100/MicroController/MicMonu100/MicMonu100/Display.c ****     int x = r;
 1720               	.LM185:
 1721 0632 022F      		mov r16,r18
 1722 0634 10E0      		ldi r17,0
 438:/Users/manueldeneu/Documents/projets/dev/Monu100/MicroController/MicMonu100/MicMonu100/Display.c ****     int y = 0;
 439:/Users/manueldeneu/Documents/projets/dev/Monu100/MicroController/MicMonu100/MicMonu100/Display.c ****     int decisionOver2 = 1 - x;   // Decision criterion divided by 2 evaluated at x=r, y=0
 1724               	.LM186:
 1725 0636 AA24      		clr r10
 1726 0638 A394      		inc r10
 1727 063a B12C      		mov r11,__zero_reg__
 1728 063c A01A      		sub r10,r16
 1729 063e B10A      		sbc r11,r17
 1730 0640 A3E0      		ldi r26,lo8(3)
 1731 0642 8A2E      		mov r8,r26
 1732 0644 912C      		mov r9,__zero_reg__
 438:/Users/manueldeneu/Documents/projets/dev/Monu100/MicroController/MicMonu100/MicMonu100/Display.c ****     int y = 0;
 1734               	.LM187:
 1735 0646 C12C      		mov r12,__zero_reg__
 1736 0648 D12C      		mov r13,__zero_reg__
 440:/Users/manueldeneu/Documents/projets/dev/Monu100/MicroController/MicMonu100/MicMonu100/Display.c ****     
 441:/Users/manueldeneu/Documents/projets/dev/Monu100/MicroController/MicMonu100/MicMonu100/Display.c ****     while(x >= y)
 442:/Users/manueldeneu/Documents/projets/dev/Monu100/MicroController/MicMonu100/MicMonu100/Display.c ****     {
 443:/Users/manueldeneu/Documents/projets/dev/Monu100/MicroController/MicMonu100/MicMonu100/Display.c ****         display_setPixel( display , x + x0,  y + y0  , display->fillColor);
 1738               	.LM188:
 1739 064a 7C01      		movw r14,r24
 1740 064c 87EF      		ldi r24,-9
 1741 064e E81A      		sub r14,r24
 1742 0650 88EF      		ldi r24,-8
 1743 0652 F80A      		sbc r15,r24
 1744               	.L126:
 1745 0654 462C      		mov r4,r6
 1746 0656 4C0C      		add r4,r12
 1747 0658 F701      		movw r30,r14
 1748 065a 2081      		ld r18,Z
 1749 065c 442D      		mov r20,r4
 1750 065e 572C      		mov r5,r7
 1751 0660 500E      		add r5,r16
 1752 0662 652D      		mov r22,r5
 1753 0664 8A81      		ldd r24,Y+2
 1754 0666 9B81      		ldd r25,Y+3
 1755 0668 0E94 0000 		call display_setPixel
 444:/Users/manueldeneu/Documents/projets/dev/Monu100/MicroController/MicMonu100/MicMonu100/Display.c ****         display_setPixel( display , x + x0,  y + y0  , display->fillColor);
 1757               	.LM189:
 1758 066c F701      		movw r30,r14
 1759 066e 2081      		ld r18,Z
 1760 0670 442D      		mov r20,r4
 1761 0672 652D      		mov r22,r5
 1762 0674 8A81      		ldd r24,Y+2
 1763 0676 9B81      		ldd r25,Y+3
 1764 0678 0E94 0000 		call display_setPixel
 1765 067c 372C      		mov r3,r7
 1766 067e 3C0C      		add r3,r12
 445:/Users/manueldeneu/Documents/projets/dev/Monu100/MicroController/MicMonu100/MicMonu100/Display.c ****         display_setPixel( display , y + x0,  x + y0  , display->fillColor);
 1768               	.LM190:
 1769 0680 F701      		movw r30,r14
 1770 0682 2081      		ld r18,Z
 1771 0684 262C      		mov r2,r6
 1772 0686 200E      		add r2,r16
 1773 0688 422D      		mov r20,r2
 1774 068a 632D      		mov r22,r3
 1775 068c 8A81      		ldd r24,Y+2
 1776 068e 9B81      		ldd r25,Y+3
 1777 0690 0E94 0000 		call display_setPixel
 446:/Users/manueldeneu/Documents/projets/dev/Monu100/MicroController/MicMonu100/MicMonu100/Display.c ****         display_setPixel( display , -x + x0,  y + y0 , display->fillColor);
 1779               	.LM191:
 1780 0694 F701      		movw r30,r14
 1781 0696 2081      		ld r18,Z
 1782 0698 442D      		mov r20,r4
 1783 069a 472C      		mov r4,r7
 1784 069c 401A      		sub r4,r16
 1785 069e 642D      		mov r22,r4
 1786 06a0 8A81      		ldd r24,Y+2
 1787 06a2 9B81      		ldd r25,Y+3
 1788 06a4 0E94 0000 		call display_setPixel
 1789 06a8 372D      		mov r19,r7
 1790 06aa 3C19      		sub r19,r12
 447:/Users/manueldeneu/Documents/projets/dev/Monu100/MicroController/MicMonu100/MicMonu100/Display.c ****         display_setPixel( display , -y + x0,  x + y0 , display->fillColor);
 1792               	.LM192:
 1793 06ac F701      		movw r30,r14
 1794 06ae 2081      		ld r18,Z
 1795 06b0 422D      		mov r20,r2
 1796 06b2 632F      		mov r22,r19
 1797 06b4 8A81      		ldd r24,Y+2
 1798 06b6 9B81      		ldd r25,Y+3
 1799 06b8 3983      		std Y+1,r19
 1800 06ba 0E94 0000 		call display_setPixel
 1801 06be 262C      		mov r2,r6
 1802 06c0 2C18      		sub r2,r12
 448:/Users/manueldeneu/Documents/projets/dev/Monu100/MicroController/MicMonu100/MicMonu100/Display.c ****         display_setPixel( display , -x + x0, -y + y0 , display->fillColor);
 1804               	.LM193:
 1805 06c2 F701      		movw r30,r14
 1806 06c4 2081      		ld r18,Z
 1807 06c6 422D      		mov r20,r2
 1808 06c8 642D      		mov r22,r4
 1809 06ca 8A81      		ldd r24,Y+2
 1810 06cc 9B81      		ldd r25,Y+3
 1811 06ce 0E94 0000 		call display_setPixel
 449:/Users/manueldeneu/Documents/projets/dev/Monu100/MicroController/MicMonu100/MicMonu100/Display.c ****         display_setPixel( display , -y + x0, -x + y0 , display->fillColor);
 1813               	.LM194:
 1814 06d2 F701      		movw r30,r14
 1815 06d4 2081      		ld r18,Z
 1816 06d6 462C      		mov r4,r6
 1817 06d8 401A      		sub r4,r16
 1818 06da 442D      		mov r20,r4
 1819 06dc 3981      		ldd r19,Y+1
 1820 06de 632F      		mov r22,r19
 1821 06e0 8A81      		ldd r24,Y+2
 1822 06e2 9B81      		ldd r25,Y+3
 1823 06e4 0E94 0000 		call display_setPixel
 450:/Users/manueldeneu/Documents/projets/dev/Monu100/MicroController/MicMonu100/MicMonu100/Display.c ****         display_setPixel( display ,  x + x0, -y + y0 , display->fillColor);
 1825               	.LM195:
 1826 06e8 F701      		movw r30,r14
 1827 06ea 2081      		ld r18,Z
 1828 06ec 422D      		mov r20,r2
 1829 06ee 652D      		mov r22,r5
 1830 06f0 8A81      		ldd r24,Y+2
 1831 06f2 9B81      		ldd r25,Y+3
 1832 06f4 0E94 0000 		call display_setPixel
 451:/Users/manueldeneu/Documents/projets/dev/Monu100/MicroController/MicMonu100/MicMonu100/Display.c ****         display_setPixel( display ,  y + x0, -x + y0 , display->fillColor);
 1834               	.LM196:
 1835 06f8 F701      		movw r30,r14
 1836 06fa 2081      		ld r18,Z
 1837 06fc 442D      		mov r20,r4
 1838 06fe 632D      		mov r22,r3
 1839 0700 8A81      		ldd r24,Y+2
 1840 0702 9B81      		ldd r25,Y+3
 1841 0704 0E94 0000 		call display_setPixel
 452:/Users/manueldeneu/Documents/projets/dev/Monu100/MicroController/MicMonu100/MicMonu100/Display.c ****         y++;
 1843               	.LM197:
 1844 0708 FFEF      		ldi r31,-1
 1845 070a CF1A      		sub r12,r31
 1846 070c DF0A      		sbc r13,r31
 453:/Users/manueldeneu/Documents/projets/dev/Monu100/MicroController/MicMonu100/MicMonu100/Display.c ****         
 454:/Users/manueldeneu/Documents/projets/dev/Monu100/MicroController/MicMonu100/MicMonu100/Display.c ****         if (decisionOver2<=0)
 1848               	.LM198:
 1849 070e 1A14      		cp __zero_reg__,r10
 1850 0710 1B04      		cpc __zero_reg__,r11
 1851 0712 04F0      		brlt .L123
 455:/Users/manueldeneu/Documents/projets/dev/Monu100/MicroController/MicMonu100/MicMonu100/Display.c ****         {
 456:/Users/manueldeneu/Documents/projets/dev/Monu100/MicroController/MicMonu100/MicMonu100/Display.c ****             decisionOver2 += 2 * y + 1;   // Change in decision criterion for y -> y+1
 1853               	.LM199:
 1854 0714 A80C      		add r10,r8
 1855 0716 B91C      		adc r11,r9
 1856 0718 00C0      		rjmp .L124
 1857               	.L123:
 457:/Users/manueldeneu/Documents/projets/dev/Monu100/MicroController/MicMonu100/MicMonu100/Display.c ****         }
 458:/Users/manueldeneu/Documents/projets/dev/Monu100/MicroController/MicMonu100/MicMonu100/Display.c ****         else
 459:/Users/manueldeneu/Documents/projets/dev/Monu100/MicroController/MicMonu100/MicMonu100/Display.c ****         {
 460:/Users/manueldeneu/Documents/projets/dev/Monu100/MicroController/MicMonu100/MicMonu100/Display.c ****             x--;
 1859               	.LM200:
 1860 071a 0150      		subi r16,1
 1861 071c 1109      		sbc r17,__zero_reg__
 461:/Users/manueldeneu/Documents/projets/dev/Monu100/MicroController/MicMonu100/MicMonu100/Display.c ****             decisionOver2 += 2 * (y - x) + 1;   // Change for y -> y+1, x -> x-1
 1863               	.LM201:
 1864 071e C601      		movw r24,r12
 1865 0720 801B      		sub r24,r16
 1866 0722 910B      		sbc r25,r17
 1867 0724 880F      		lsl r24
 1868 0726 991F      		rol r25
 1869 0728 0196      		adiw r24,1
 1870 072a A80E      		add r10,r24
 1871 072c B91E      		adc r11,r25
 1872               	.L124:
 1873 072e 82E0      		ldi r24,2
 1874 0730 880E      		add r8,r24
 1875 0732 911C      		adc r9,__zero_reg__
 441:/Users/manueldeneu/Documents/projets/dev/Monu100/MicroController/MicMonu100/MicMonu100/Display.c ****     while(x >= y)
 1877               	.LM202:
 1878 0734 0C15      		cp r16,r12
 1879 0736 1D05      		cpc r17,r13
 1880 0738 04F0      		brlt .+2
 1881 073a 00C0      		rjmp .L126
 1882               	/* epilogue start */
 462:/Users/manueldeneu/Documents/projets/dev/Monu100/MicroController/MicMonu100/MicMonu100/Display.c ****         }
 463:/Users/manueldeneu/Documents/projets/dev/Monu100/MicroController/MicMonu100/MicMonu100/Display.c ****     }
 464:/Users/manueldeneu/Documents/projets/dev/Monu100/MicroController/MicMonu100/MicMonu100/Display.c **** }
 1884               	.LM203:
 1885 073c 0F90      		pop __tmp_reg__
 1886 073e 0F90      		pop __tmp_reg__
 1887 0740 0F90      		pop __tmp_reg__
 1888 0742 DF91      		pop r29
 1889 0744 CF91      		pop r28
 1890 0746 1F91      		pop r17
 1891 0748 0F91      		pop r16
 1892 074a FF90      		pop r15
 1893 074c EF90      		pop r14
 1894 074e DF90      		pop r13
 1895 0750 CF90      		pop r12
 1896 0752 BF90      		pop r11
 1897 0754 AF90      		pop r10
 1898 0756 9F90      		pop r9
 1899 0758 8F90      		pop r8
 1900 075a 7F90      		pop r7
 1901 075c 6F90      		pop r6
 1902 075e 5F90      		pop r5
 1903 0760 4F90      		pop r4
 1904 0762 3F90      		pop r3
 1905 0764 2F90      		pop r2
 1906 0766 0895      		ret
 1913               	.Lscope19:
 1920               	.global	display_drawLine
 1922               	display_drawLine:
 465:/Users/manueldeneu/Documents/projets/dev/Monu100/MicroController/MicMonu100/MicMonu100/Display.c **** 
 466:/Users/manueldeneu/Documents/projets/dev/Monu100/MicroController/MicMonu100/MicMonu100/Display.c **** /* **** **** **** **** **** **** **** **** **** **** **** */
 467:/Users/manueldeneu/Documents/projets/dev/Monu100/MicroController/MicMonu100/MicMonu100/Display.c **** 
 468:/Users/manueldeneu/Documents/projets/dev/Monu100/MicroController/MicMonu100/MicMonu100/Display.c **** void display_drawLine( Display *display , uint8_t x0 , uint8_t y0 , uint8_t x1 , uint8_t y1 )
 469:/Users/manueldeneu/Documents/projets/dev/Monu100/MicroController/MicMonu100/MicMonu100/Display.c **** {
 1924               	.LM204:
 1925               	.LFBB20:
 1926 0768 2F92      		push r2
 1927 076a 3F92      		push r3
 1928 076c 4F92      		push r4
 1929 076e 5F92      		push r5
 1930 0770 6F92      		push r6
 1931 0772 7F92      		push r7
 1932 0774 8F92      		push r8
 1933 0776 9F92      		push r9
 1934 0778 AF92      		push r10
 1935 077a BF92      		push r11
 1936 077c CF92      		push r12
 1937 077e DF92      		push r13
 1938 0780 EF92      		push r14
 1939 0782 FF92      		push r15
 1940 0784 0F93      		push r16
 1941 0786 1F93      		push r17
 1942 0788 CF93      		push r28
 1943 078a DF93      		push r29
 1944 078c 1F92      		push __zero_reg__
 1945 078e 1F92      		push __zero_reg__
 1946 0790 CDB7      		in r28,__SP_L__
 1947 0792 DEB7      		in r29,__SP_H__
 1948               	/* prologue: function */
 1949               	/* frame size = 2 */
 1950               	/* stack size = 20 */
 1951               	.L__stack_usage = 20
 1952 0794 5C01      		movw r10,r24
 1953 0796 562E      		mov r5,r22
 1954 0798 142F      		mov r17,r20
 1955 079a 422E      		mov r4,r18
 470:/Users/manueldeneu/Documents/projets/dev/Monu100/MicroController/MicMonu100/MicMonu100/Display.c ****     int dx = abs(x1-x0), sx = x0<x1 ? 1 : -1;
 1957               	.LM205:
 1958 079c E22E      		mov r14,r18
 1959 079e F12C      		mov r15,__zero_reg__
 1960 07a0 E61A      		sub r14,r22
 1961 07a2 F108      		sbc r15,__zero_reg__
 1962 07a4 F7FE      		sbrs r15,7
 1963 07a6 00C0      		rjmp .L128
 1964 07a8 F194      		neg r15
 1965 07aa E194      		neg r14
 1966 07ac F108      		sbc r15,__zero_reg__
 1967               	.L128:
 1968 07ae 5414      		cp r5,r4
 1969 07b0 00F4      		brsh .L140
 1970 07b2 51E0      		ldi r21,lo8(1)
 1971 07b4 00C0      		rjmp .L129
 1972               	.L140:
 1973 07b6 5FEF      		ldi r21,lo8(-1)
 1974               	.L129:
 471:/Users/manueldeneu/Documents/projets/dev/Monu100/MicroController/MicMonu100/MicMonu100/Display.c ****     int dy = abs(y1-y0), sy = y0<y1 ? 1 : -1;
 1976               	.LM206:
 1977 07b8 202E      		mov r2,r16
 1978 07ba 312C      		mov r3,__zero_reg__
 1979 07bc 211A      		sub r2,r17
 1980 07be 3108      		sbc r3,__zero_reg__
 1981 07c0 37FE      		sbrs r3,7
 1982 07c2 00C0      		rjmp .L130
 1983 07c4 3194      		neg r3
 1984 07c6 2194      		neg r2
 1985 07c8 3108      		sbc r3,__zero_reg__
 1986               	.L130:
 1987 07ca 1017      		cp r17,r16
 1988 07cc 00F4      		brsh .L141
 1990               	.LM207:
 1991 07ce 31E0      		ldi r19,lo8(1)
 1992 07d0 00C0      		rjmp .L131
 1993               	.L141:
 1994 07d2 3FEF      		ldi r19,lo8(-1)
 1995               	.L131:
 472:/Users/manueldeneu/Documents/projets/dev/Monu100/MicroController/MicMonu100/MicMonu100/Display.c ****     int err = (dx>dy ? dx : -dy)/2, e2;
 1997               	.LM208:
 1998 07d4 2E14      		cp r2,r14
 1999 07d6 3F04      		cpc r3,r15
 2000 07d8 04F4      		brge .L132
 2002               	.LM209:
 2003 07da 6701      		movw r12,r14
 2004 07dc D594      		asr r13
 2005 07de C794      		ror r12
 2006               	.L135:
 473:/Users/manueldeneu/Documents/projets/dev/Monu100/MicroController/MicMonu100/MicMonu100/Display.c ****     
 474:/Users/manueldeneu/Documents/projets/dev/Monu100/MicroController/MicMonu100/MicMonu100/Display.c ****     for(;;)
 475:/Users/manueldeneu/Documents/projets/dev/Monu100/MicroController/MicMonu100/MicMonu100/Display.c ****     {
 476:/Users/manueldeneu/Documents/projets/dev/Monu100/MicroController/MicMonu100/MicMonu100/Display.c ****         display_setPixel( display , x0,  y0  , display->fillColor);
 2008               	.LM210:
 2009 07e0 4501      		movw r8,r10
 2010 07e2 87EF      		ldi r24,-9
 2011 07e4 881A      		sub r8,r24
 2012 07e6 88EF      		ldi r24,-8
 2013 07e8 980A      		sbc r9,r24
 477:/Users/manueldeneu/Documents/projets/dev/Monu100/MicroController/MicMonu100/MicMonu100/Display.c **** 
 478:/Users/manueldeneu/Documents/projets/dev/Monu100/MicroController/MicMonu100/MicMonu100/Display.c ****         if (x0==x1 && y0==y1)
 479:/Users/manueldeneu/Documents/projets/dev/Monu100/MicroController/MicMonu100/MicMonu100/Display.c ****             break;
 480:/Users/manueldeneu/Documents/projets/dev/Monu100/MicroController/MicMonu100/MicMonu100/Display.c ****         e2 = err;
 481:/Users/manueldeneu/Documents/projets/dev/Monu100/MicroController/MicMonu100/MicMonu100/Display.c ****         if (e2 >-dx) { err -= dy; x0 += sx; }
 2015               	.LM211:
 2016 07ea 6624      		clr r6
 2017 07ec 7724      		clr r7
 2018 07ee 6E18      		sub r6,r14
 2019 07f0 7F08      		sbc r7,r15
 2020 07f2 00C0      		rjmp .L133
 2021               	.L132:
 472:/Users/manueldeneu/Documents/projets/dev/Monu100/MicroController/MicMonu100/MicMonu100/Display.c ****     int err = (dx>dy ? dx : -dy)/2, e2;
 2023               	.LM212:
 2024 07f4 6101      		movw r12,r2
 2025 07f6 37FE      		sbrs r3,7
 2026 07f8 00C0      		rjmp .L134
 2027 07fa EFEF      		ldi r30,-1
 2028 07fc CE1A      		sub r12,r30
 2029 07fe DE0A      		sbc r13,r30
 2030               	.L134:
 2031 0800 D594      		asr r13
 2032 0802 C794      		ror r12
 2033 0804 D194      		neg r13
 2034 0806 C194      		neg r12
 2035 0808 D108      		sbc r13,__zero_reg__
 2036 080a 00C0      		rjmp .L135
 2037               	.L144:
 478:/Users/manueldeneu/Documents/projets/dev/Monu100/MicroController/MicMonu100/MicMonu100/Display.c ****         if (x0==x1 && y0==y1)
 2039               	.LM213:
 2040 080c 1017      		cp r17,r16
 2041 080e 01F0      		breq .L127
 2042               	.L136:
 2044               	.LM214:
 2045 0810 F601      		movw r30,r12
 2046 0812 6C14      		cp r6,r12
 2047 0814 7D04      		cpc r7,r13
 2048 0816 04F4      		brge .L138
 2050               	.LM215:
 2051 0818 E219      		sub r30,r2
 2052 081a F309      		sbc r31,r3
 2053 081c 550E      		add r5,r21
 2054               	.L138:
 482:/Users/manueldeneu/Documents/projets/dev/Monu100/MicroController/MicMonu100/MicMonu100/Display.c ****         if (e2 < dy) { err += dx; y0 += sy; }
 2056               	.LM216:
 2057 081e C214      		cp r12,r2
 2058 0820 D304      		cpc r13,r3
 2059 0822 04F0      		brlt .L143
 2060               	.L139:
 471:/Users/manueldeneu/Documents/projets/dev/Monu100/MicroController/MicMonu100/MicMonu100/Display.c ****     int dy = abs(y1-y0), sy = y0<y1 ? 1 : -1;
 2062               	.LM217:
 2063 0824 6F01      		movw r12,r30
 2064               	.L133:
 476:/Users/manueldeneu/Documents/projets/dev/Monu100/MicroController/MicMonu100/MicMonu100/Display.c ****         display_setPixel( display , x0,  y0  , display->fillColor);
 2066               	.LM218:
 2067 0826 F401      		movw r30,r8
 2068 0828 2081      		ld r18,Z
 2069 082a 412F      		mov r20,r17
 2070 082c 652D      		mov r22,r5
 2071 082e C501      		movw r24,r10
 2072 0830 3A83      		std Y+2,r19
 2073 0832 5983      		std Y+1,r21
 2074 0834 0E94 0000 		call display_setPixel
 478:/Users/manueldeneu/Documents/projets/dev/Monu100/MicroController/MicMonu100/MicMonu100/Display.c ****         if (x0==x1 && y0==y1)
 2076               	.LM219:
 2077 0838 3A81      		ldd r19,Y+2
 2078 083a 5981      		ldd r21,Y+1
 2079 083c 5410      		cpse r5,r4
 2080 083e 00C0      		rjmp .L136
 2081 0840 00C0      		rjmp .L144
 2082               	.L143:
 2084               	.LM220:
 2085 0842 EE0D      		add r30,r14
 2086 0844 FF1D      		adc r31,r15
 2087 0846 130F      		add r17,r19
 2088 0848 00C0      		rjmp .L139
 2089               	.L127:
 2090               	/* epilogue start */
 483:/Users/manueldeneu/Documents/projets/dev/Monu100/MicroController/MicMonu100/MicMonu100/Display.c ****     }
 484:/Users/manueldeneu/Documents/projets/dev/Monu100/MicroController/MicMonu100/MicMonu100/Display.c **** }
 2092               	.LM221:
 2093 084a 0F90      		pop __tmp_reg__
 2094 084c 0F90      		pop __tmp_reg__
 2095 084e DF91      		pop r29
 2096 0850 CF91      		pop r28
 2097 0852 1F91      		pop r17
 2098 0854 0F91      		pop r16
 2099 0856 FF90      		pop r15
 2100 0858 EF90      		pop r14
 2101 085a DF90      		pop r13
 2102 085c CF90      		pop r12
 2103 085e BF90      		pop r11
 2104 0860 AF90      		pop r10
 2105 0862 9F90      		pop r9
 2106 0864 8F90      		pop r8
 2107 0866 7F90      		pop r7
 2108 0868 6F90      		pop r6
 2109 086a 5F90      		pop r5
 2110 086c 4F90      		pop r4
 2111 086e 3F90      		pop r3
 2112 0870 2F90      		pop r2
 2113 0872 0895      		ret
 2115               	.Lscope20:
 2116               		.section	.rodata
 2119               	CSWTCH.21:
 2120 0000 0000      		.word	c_0
 2121 0002 0000      		.word	c_1
 2122 0004 0000      		.word	c_2
 2123 0006 0000      		.word	c_3
 2124 0008 0000      		.word	c_4
 2125 000a 0000      		.word	c_5
 2126 000c 0000      		.word	c_6
 2127 000e 0000      		.word	c_7
 2128 0010 0000      		.word	c_8
 2129 0012 0000      		.word	c_9
 2130 0014 0000      		.word	c_NULL
 2131 0016 0000      		.word	c_NULL
 2132 0018 0000      		.word	c_NULL
 2133 001a 0000      		.word	c_NULL
 2134 001c 0000      		.word	c_NULL
 2135 001e 0000      		.word	c_NULL
 2136 0020 0000      		.word	c_NULL
 2137 0022 0000      		.word	c_A
 2138 0024 0000      		.word	c_B
 2139 0026 0000      		.word	c_C
 2140 0028 0000      		.word	c_D
 2141 002a 0000      		.word	c_E
 2142 002c 0000      		.word	c_F
 2143 002e 0000      		.word	c_G
 2144 0030 0000      		.word	c_H
 2145 0032 0000      		.word	c_I
 2146 0034 0000      		.word	c_J
 2147 0036 0000      		.word	c_K
 2148 0038 0000      		.word	c_L
 2149 003a 0000      		.word	c_M
 2150 003c 0000      		.word	c_N
 2151 003e 0000      		.word	c_O
 2152 0040 0000      		.word	c_P
 2153 0042 0000      		.word	c_Q
 2154 0044 0000      		.word	c_R
 2155 0046 0000      		.word	c_S
 2156 0048 0000      		.word	c_T
 2157 004a 0000      		.word	c_U
 2158 004c 0000      		.word	c_V
 2159 004e 0000      		.word	c_W
 2160 0050 0000      		.word	c_X
 2161 0052 0000      		.word	c_Y
 2162 0054 0000      		.word	c_Z
 2163 0056 0000      		.word	c_NULL
 2164 0058 0000      		.word	c_NULL
 2165 005a 0000      		.word	c_NULL
 2166 005c 0000      		.word	c_NULL
 2167 005e 0000      		.word	c_NULL
 2168 0060 0000      		.word	c_NULL
 2169 0062 0000      		.word	c_A
 2170 0064 0000      		.word	c_B
 2171 0066 0000      		.word	c_C
 2172 0068 0000      		.word	c_D
 2173 006a 0000      		.word	c_E
 2174 006c 0000      		.word	c_F
 2175 006e 0000      		.word	c_G
 2176 0070 0000      		.word	c_H
 2177 0072 0000      		.word	c_I
 2178 0074 0000      		.word	c_J
 2179 0076 0000      		.word	c_K
 2180 0078 0000      		.word	c_L
 2181 007a 0000      		.word	c_M
 2182 007c 0000      		.word	c_N
 2183 007e 0000      		.word	c_O
 2184 0080 0000      		.word	c_P
 2185 0082 0000      		.word	c_Q
 2186 0084 0000      		.word	c_R
 2187 0086 0000      		.word	c_S
 2188 0088 0000      		.word	c_T
 2189 008a 0000      		.word	c_U
 2190 008c 0000      		.word	c_V
 2191 008e 0000      		.word	c_W
 2192 0090 0000      		.word	c_X
 2193 0092 0000      		.word	c_Y
 2194 0094 0000      		.word	c_Z
 2195               		.local	xlatNeedsPulse.2270
 2196               		.comm	xlatNeedsPulse.2270,1,1
 2197               		.data
 2200               	rowIndex.2268:
 2201 0000 1E00      		.word	30
 2202               	.global	c_NULL
 2203               		.section	.rodata
 2206               	c_NULL:
 2207 0096 00        		.byte	0
 2208 0097 00        		.byte	0
 2209 0098 00        		.byte	0
 2210 0099 00        		.byte	0
 2211 009a 00        		.byte	0
 2212 009b 00        		.byte	0
 2213 009c 00        		.byte	0
 2214 009d 00        		.byte	0
 2215 009e 00        		.byte	0
 2216 009f 00        		.byte	0
 2217 00a0 08        		.byte	8
 2218               	.global	c_Z
 2221               	c_Z:
 2222 00a1 FF        		.byte	-1
 2223 00a2 FF        		.byte	-1
 2224 00a3 06        		.byte	6
 2225 00a4 0C        		.byte	12
 2226 00a5 18        		.byte	24
 2227 00a6 30        		.byte	48
 2228 00a7 60        		.byte	96
 2229 00a8 FF        		.byte	-1
 2230 00a9 FF        		.byte	-1
 2231 00aa 00        		.byte	0
 2232 00ab 08        		.byte	8
 2233               	.global	c_Y
 2236               	c_Y:
 2237 00ac C3        		.byte	-61
 2238 00ad C3        		.byte	-61
 2239 00ae C3        		.byte	-61
 2240 00af FF        		.byte	-1
 2241 00b0 7F        		.byte	127
 2242 00b1 03        		.byte	3
 2243 00b2 03        		.byte	3
 2244 00b3 FF        		.byte	-1
 2245 00b4 FF        		.byte	-1
 2246 00b5 00        		.byte	0
 2247 00b6 08        		.byte	8
 2248               	.global	c_X
 2251               	c_X:
 2252 00b7 C3        		.byte	-61
 2253 00b8 C3        		.byte	-61
 2254 00b9 66        		.byte	102
 2255 00ba 3C        		.byte	60
 2256 00bb 18        		.byte	24
 2257 00bc 3C        		.byte	60
 2258 00bd 66        		.byte	102
 2259 00be C3        		.byte	-61
 2260 00bf C3        		.byte	-61
 2261 00c0 00        		.byte	0
 2262 00c1 08        		.byte	8
 2263               	.global	c_W
 2266               	c_W:
 2267 00c2 DB        		.byte	-37
 2268 00c3 DB        		.byte	-37
 2269 00c4 DB        		.byte	-37
 2270 00c5 DB        		.byte	-37
 2271 00c6 DB        		.byte	-37
 2272 00c7 DB        		.byte	-37
 2273 00c8 DB        		.byte	-37
 2274 00c9 FF        		.byte	-1
 2275 00ca FF        		.byte	-1
 2276 00cb 00        		.byte	0
 2277 00cc 08        		.byte	8
 2278               	.global	c_V
 2281               	c_V:
 2282 00cd C3        		.byte	-61
 2283 00ce C3        		.byte	-61
 2284 00cf C3        		.byte	-61
 2285 00d0 C3        		.byte	-61
 2286 00d1 C3        		.byte	-61
 2287 00d2 C3        		.byte	-61
 2288 00d3 E7        		.byte	-25
 2289 00d4 7E        		.byte	126
 2290 00d5 3C        		.byte	60
 2291 00d6 00        		.byte	0
 2292 00d7 08        		.byte	8
 2293               	.global	c_U
 2296               	c_U:
 2297 00d8 C3        		.byte	-61
 2298 00d9 C3        		.byte	-61
 2299 00da C3        		.byte	-61
 2300 00db C3        		.byte	-61
 2301 00dc C3        		.byte	-61
 2302 00dd C3        		.byte	-61
 2303 00de C3        		.byte	-61
 2304 00df FF        		.byte	-1
 2305 00e0 7E        		.byte	126
 2306 00e1 00        		.byte	0
 2307 00e2 08        		.byte	8
 2308               	.global	c_T
 2311               	c_T:
 2312 00e3 FF        		.byte	-1
 2313 00e4 FF        		.byte	-1
 2314 00e5 18        		.byte	24
 2315 00e6 18        		.byte	24
 2316 00e7 18        		.byte	24
 2317 00e8 18        		.byte	24
 2318 00e9 18        		.byte	24
 2319 00ea 18        		.byte	24
 2320 00eb 18        		.byte	24
 2321 00ec 00        		.byte	0
 2322 00ed 08        		.byte	8
 2323               	.global	c_S
 2326               	c_S:
 2327 00ee 7F        		.byte	127
 2328 00ef FF        		.byte	-1
 2329 00f0 C0        		.byte	-64
 2330 00f1 FE        		.byte	-2
 2331 00f2 FF        		.byte	-1
 2332 00f3 7F        		.byte	127
 2333 00f4 03        		.byte	3
 2334 00f5 FF        		.byte	-1
 2335 00f6 FE        		.byte	-2
 2336 00f7 00        		.byte	0
 2337 00f8 08        		.byte	8
 2338               	.global	c_R
 2341               	c_R:
 2342 00f9 FE        		.byte	-2
 2343 00fa FF        		.byte	-1
 2344 00fb C3        		.byte	-61
 2345 00fc C3        		.byte	-61
 2346 00fd FF        		.byte	-1
 2347 00fe FE        		.byte	-2
 2348 00ff C6        		.byte	-58
 2349 0100 C7        		.byte	-57
 2350 0101 C7        		.byte	-57
 2351 0102 00        		.byte	0
 2352 0103 08        		.byte	8
 2353               	.global	c_Q
 2356               	c_Q:
 2357 0104 7E        		.byte	126
 2358 0105 FF        		.byte	-1
 2359 0106 C3        		.byte	-61
 2360 0107 C3        		.byte	-61
 2361 0108 C3        		.byte	-61
 2362 0109 C3        		.byte	-61
 2363 010a DB        		.byte	-37
 2364 010b FF        		.byte	-1
 2365 010c 7E        		.byte	126
 2366 010d 0C        		.byte	12
 2367 010e 08        		.byte	8
 2368               	.global	c_P
 2371               	c_P:
 2372 010f FE        		.byte	-2
 2373 0110 FF        		.byte	-1
 2374 0111 C3        		.byte	-61
 2375 0112 C3        		.byte	-61
 2376 0113 FF        		.byte	-1
 2377 0114 FE        		.byte	-2
 2378 0115 C0        		.byte	-64
 2379 0116 C0        		.byte	-64
 2380 0117 C0        		.byte	-64
 2381 0118 00        		.byte	0
 2382 0119 08        		.byte	8
 2383               	.global	c_O
 2386               	c_O:
 2387 011a 7E        		.byte	126
 2388 011b FF        		.byte	-1
 2389 011c C3        		.byte	-61
 2390 011d C3        		.byte	-61
 2391 011e C3        		.byte	-61
 2392 011f C3        		.byte	-61
 2393 0120 C3        		.byte	-61
 2394 0121 FF        		.byte	-1
 2395 0122 7E        		.byte	126
 2396 0123 00        		.byte	0
 2397 0124 08        		.byte	8
 2398               	.global	c_N
 2401               	c_N:
 2402 0125 C3        		.byte	-61
 2403 0126 C3        		.byte	-61
 2404 0127 E3        		.byte	-29
 2405 0128 F3        		.byte	-13
 2406 0129 DB        		.byte	-37
 2407 012a CF        		.byte	-49
 2408 012b C7        		.byte	-57
 2409 012c C3        		.byte	-61
 2410 012d C3        		.byte	-61
 2411 012e 00        		.byte	0
 2412 012f 08        		.byte	8
 2413               	.global	c_M
 2416               	c_M:
 2417 0130 FF        		.byte	-1
 2418 0131 DB        		.byte	-37
 2419 0132 DB        		.byte	-37
 2420 0133 DB        		.byte	-37
 2421 0134 DB        		.byte	-37
 2422 0135 DB        		.byte	-37
 2423 0136 DB        		.byte	-37
 2424 0137 DB        		.byte	-37
 2425 0138 DB        		.byte	-37
 2426 0139 00        		.byte	0
 2427 013a 08        		.byte	8
 2428               	.global	c_L
 2431               	c_L:
 2432 013b 60        		.byte	96
 2433 013c 60        		.byte	96
 2434 013d 60        		.byte	96
 2435 013e 60        		.byte	96
 2436 013f 60        		.byte	96
 2437 0140 60        		.byte	96
 2438 0141 60        		.byte	96
 2439 0142 7E        		.byte	126
 2440 0143 7E        		.byte	126
 2441 0144 00        		.byte	0
 2442 0145 08        		.byte	8
 2443               	.global	c_K
 2446               	c_K:
 2447 0146 66        		.byte	102
 2448 0147 66        		.byte	102
 2449 0148 66        		.byte	102
 2450 0149 7C        		.byte	124
 2451 014a 7C        		.byte	124
 2452 014b 7C        		.byte	124
 2453 014c 66        		.byte	102
 2454 014d 66        		.byte	102
 2455 014e 66        		.byte	102
 2456 014f 00        		.byte	0
 2457 0150 08        		.byte	8
 2458               	.global	c_J
 2461               	c_J:
 2462 0151 7E        		.byte	126
 2463 0152 7E        		.byte	126
 2464 0153 06        		.byte	6
 2465 0154 06        		.byte	6
 2466 0155 06        		.byte	6
 2467 0156 06        		.byte	6
 2468 0157 66        		.byte	102
 2469 0158 7E        		.byte	126
 2470 0159 3C        		.byte	60
 2471 015a 00        		.byte	0
 2472 015b 08        		.byte	8
 2473               	.global	c_I
 2476               	c_I:
 2477 015c 7E        		.byte	126
 2478 015d 7E        		.byte	126
 2479 015e 18        		.byte	24
 2480 015f 18        		.byte	24
 2481 0160 18        		.byte	24
 2482 0161 18        		.byte	24
 2483 0162 18        		.byte	24
 2484 0163 7E        		.byte	126
 2485 0164 7E        		.byte	126
 2486 0165 00        		.byte	0
 2487 0166 08        		.byte	8
 2488               	.global	c_H
 2491               	c_H:
 2492 0167 C3        		.byte	-61
 2493 0168 C3        		.byte	-61
 2494 0169 C3        		.byte	-61
 2495 016a FF        		.byte	-1
 2496 016b FF        		.byte	-1
 2497 016c C3        		.byte	-61
 2498 016d C3        		.byte	-61
 2499 016e C3        		.byte	-61
 2500 016f C3        		.byte	-61
 2501 0170 00        		.byte	0
 2502 0171 08        		.byte	8
 2503               	.global	c_G
 2506               	c_G:
 2507 0172 7F        		.byte	127
 2508 0173 FF        		.byte	-1
 2509 0174 C0        		.byte	-64
 2510 0175 C0        		.byte	-64
 2511 0176 CE        		.byte	-50
 2512 0177 CF        		.byte	-49
 2513 0178 C3        		.byte	-61
 2514 0179 FF        		.byte	-1
 2515 017a 7E        		.byte	126
 2516 017b 00        		.byte	0
 2517 017c 08        		.byte	8
 2518               	.global	c_F
 2521               	c_F:
 2522 017d 7E        		.byte	126
 2523 017e 7E        		.byte	126
 2524 017f 60        		.byte	96
 2525 0180 7C        		.byte	124
 2526 0181 7C        		.byte	124
 2527 0182 60        		.byte	96
 2528 0183 60        		.byte	96
 2529 0184 60        		.byte	96
 2530 0185 60        		.byte	96
 2531 0186 00        		.byte	0
 2532 0187 08        		.byte	8
 2533               	.global	c_E
 2536               	c_E:
 2537 0188 7E        		.byte	126
 2538 0189 7E        		.byte	126
 2539 018a 60        		.byte	96
 2540 018b 7C        		.byte	124
 2541 018c 7C        		.byte	124
 2542 018d 60        		.byte	96
 2543 018e 60        		.byte	96
 2544 018f 7E        		.byte	126
 2545 0190 7E        		.byte	126
 2546 0191 00        		.byte	0
 2547 0192 08        		.byte	8
 2548               	.global	c_D
 2551               	c_D:
 2552 0193 FE        		.byte	-2
 2553 0194 FF        		.byte	-1
 2554 0195 C3        		.byte	-61
 2555 0196 C3        		.byte	-61
 2556 0197 C3        		.byte	-61
 2557 0198 C3        		.byte	-61
 2558 0199 C3        		.byte	-61
 2559 019a FF        		.byte	-1
 2560 019b FE        		.byte	-2
 2561 019c 00        		.byte	0
 2562 019d 08        		.byte	8
 2563               	.global	c_C
 2566               	c_C:
 2567 019e 3E        		.byte	62
 2568 019f 7E        		.byte	126
 2569 01a0 60        		.byte	96
 2570 01a1 60        		.byte	96
 2571 01a2 60        		.byte	96
 2572 01a3 60        		.byte	96
 2573 01a4 60        		.byte	96
 2574 01a5 7E        		.byte	126
 2575 01a6 3E        		.byte	62
 2576 01a7 00        		.byte	0
 2577 01a8 08        		.byte	8
 2578               	.global	c_B
 2581               	c_B:
 2582 01a9 FC        		.byte	-4
 2583 01aa FE        		.byte	-2
 2584 01ab C6        		.byte	-58
 2585 01ac FE        		.byte	-2
 2586 01ad FF        		.byte	-1
 2587 01ae C3        		.byte	-61
 2588 01af C3        		.byte	-61
 2589 01b0 FF        		.byte	-1
 2590 01b1 FF        		.byte	-1
 2591 01b2 00        		.byte	0
 2592 01b3 08        		.byte	8
 2593               	.global	c_A
 2596               	c_A:
 2597 01b4 3C        		.byte	60
 2598 01b5 3C        		.byte	60
 2599 01b6 C3        		.byte	-61
 2600 01b7 C3        		.byte	-61
 2601 01b8 FF        		.byte	-1
 2602 01b9 FF        		.byte	-1
 2603 01ba C3        		.byte	-61
 2604 01bb C3        		.byte	-61
 2605 01bc C3        		.byte	-61
 2606 01bd 00        		.byte	0
 2607 01be 08        		.byte	8
 2608               	.global	c_9
 2611               	c_9:
 2612 01bf 7E        		.byte	126
 2613 01c0 7E        		.byte	126
 2614 01c1 66        		.byte	102
 2615 01c2 7E        		.byte	126
 2616 01c3 7E        		.byte	126
 2617 01c4 06        		.byte	6
 2618 01c5 06        		.byte	6
 2619 01c6 7E        		.byte	126
 2620 01c7 7E        		.byte	126
 2621 01c8 00        		.byte	0
 2622 01c9 08        		.byte	8
 2623               	.global	c_8
 2626               	c_8:
 2627 01ca 7E        		.byte	126
 2628 01cb 7E        		.byte	126
 2629 01cc 66        		.byte	102
 2630 01cd 7E        		.byte	126
 2631 01ce 7E        		.byte	126
 2632 01cf 66        		.byte	102
 2633 01d0 66        		.byte	102
 2634 01d1 7E        		.byte	126
 2635 01d2 7E        		.byte	126
 2636 01d3 00        		.byte	0
 2637 01d4 08        		.byte	8
 2638               	.global	c_7
 2641               	c_7:
 2642 01d5 7E        		.byte	126
 2643 01d6 7E        		.byte	126
 2644 01d7 06        		.byte	6
 2645 01d8 0E        		.byte	14
 2646 01d9 1C        		.byte	28
 2647 01da 38        		.byte	56
 2648 01db 30        		.byte	48
 2649 01dc 30        		.byte	48
 2650 01dd 30        		.byte	48
 2651 01de 00        		.byte	0
 2652 01df 08        		.byte	8
 2653               	.global	c_6
 2656               	c_6:
 2657 01e0 7E        		.byte	126
 2658 01e1 7E        		.byte	126
 2659 01e2 60        		.byte	96
 2660 01e3 7E        		.byte	126
 2661 01e4 7E        		.byte	126
 2662 01e5 66        		.byte	102
 2663 01e6 66        		.byte	102
 2664 01e7 7E        		.byte	126
 2665 01e8 7E        		.byte	126
 2666 01e9 00        		.byte	0
 2667 01ea 08        		.byte	8
 2668               	.global	c_5
 2671               	c_5:
 2672 01eb 7E        		.byte	126
 2673 01ec 7E        		.byte	126
 2674 01ed 60        		.byte	96
 2675 01ee 7C        		.byte	124
 2676 01ef 7E        		.byte	126
 2677 01f0 06        		.byte	6
 2678 01f1 06        		.byte	6
 2679 01f2 7E        		.byte	126
 2680 01f3 7C        		.byte	124
 2681 01f4 00        		.byte	0
 2682 01f5 08        		.byte	8
 2683               	.global	c_4
 2686               	c_4:
 2687 01f6 66        		.byte	102
 2688 01f7 66        		.byte	102
 2689 01f8 66        		.byte	102
 2690 01f9 7E        		.byte	126
 2691 01fa 7E        		.byte	126
 2692 01fb 06        		.byte	6
 2693 01fc 06        		.byte	6
 2694 01fd 06        		.byte	6
 2695 01fe 06        		.byte	6
 2696 01ff 00        		.byte	0
 2697 0200 08        		.byte	8
 2698               	.global	c_3
 2701               	c_3:
 2702 0201 7E        		.byte	126
 2703 0202 7E        		.byte	126
 2704 0203 46        		.byte	70
 2705 0204 1E        		.byte	30
 2706 0205 1C        		.byte	28
 2707 0206 1E        		.byte	30
 2708 0207 46        		.byte	70
 2709 0208 7E        		.byte	126
 2710 0209 7E        		.byte	126
 2711 020a 00        		.byte	0
 2712 020b 08        		.byte	8
 2713               	.global	c_2
 2716               	c_2:
 2717 020c 7E        		.byte	126
 2718 020d 7E        		.byte	126
 2719 020e 66        		.byte	102
 2720 020f 0C        		.byte	12
 2721 0210 18        		.byte	24
 2722 0211 30        		.byte	48
 2723 0212 60        		.byte	96
 2724 0213 7E        		.byte	126
 2725 0214 7E        		.byte	126
 2726 0215 00        		.byte	0
 2727 0216 08        		.byte	8
 2728               	.global	c_1
 2731               	c_1:
 2732 0217 3C        		.byte	60
 2733 0218 3C        		.byte	60
 2734 0219 0C        		.byte	12
 2735 021a 0C        		.byte	12
 2736 021b 0C        		.byte	12
 2737 021c 0C        		.byte	12
 2738 021d 0C        		.byte	12
 2739 021e 0C        		.byte	12
 2740 021f 0C        		.byte	12
 2741 0220 00        		.byte	0
 2742 0221 08        		.byte	8
 2743               	.global	c_0
 2746               	c_0:
 2747 0222 3C        		.byte	60
 2748 0223 7E        		.byte	126
 2749 0224 66        		.byte	102
 2750 0225 66        		.byte	102
 2751 0226 66        		.byte	102
 2752 0227 66        		.byte	102
 2753 0228 66        		.byte	102
 2754 0229 7E        		.byte	126
 2755 022a 3C        		.byte	60
 2756 022b 00        		.byte	0
 2757 022c 08        		.byte	8
 2795               		.text
 2797               	.Letext0:
 2798               		.ident	"GCC: (GNU) 4.8.1"
 2799               	.global __do_copy_data
 2800               	.global __do_clear_bss
DEFINED SYMBOLS
                            *ABS*:00000000 Display.c
/var/folders/8r/0fdlnc995dl_vxqd6srx06ch0000gn/T//ccszvjba.s:2      *ABS*:0000003e __SP_H__
/var/folders/8r/0fdlnc995dl_vxqd6srx06ch0000gn/T//ccszvjba.s:3      *ABS*:0000003d __SP_L__
/var/folders/8r/0fdlnc995dl_vxqd6srx06ch0000gn/T//ccszvjba.s:4      *ABS*:0000003f __SREG__
/var/folders/8r/0fdlnc995dl_vxqd6srx06ch0000gn/T//ccszvjba.s:5      *ABS*:0000003b __RAMPZ__
/var/folders/8r/0fdlnc995dl_vxqd6srx06ch0000gn/T//ccszvjba.s:6      *ABS*:00000000 __tmp_reg__
/var/folders/8r/0fdlnc995dl_vxqd6srx06ch0000gn/T//ccszvjba.s:7      *ABS*:00000001 __zero_reg__
/var/folders/8r/0fdlnc995dl_vxqd6srx06ch0000gn/T//ccszvjba.s:141    .text:00000000 getCharWidth
/var/folders/8r/0fdlnc995dl_vxqd6srx06ch0000gn/T//ccszvjba.s:158    .text:00000004 getCharHeight
/var/folders/8r/0fdlnc995dl_vxqd6srx06ch0000gn/T//ccszvjba.s:175    .text:00000008 __vector_21
/var/folders/8r/0fdlnc995dl_vxqd6srx06ch0000gn/T//ccszvjba.s:2200   .data:00000000 rowIndex.2268
                             .bss:00000000 xlatNeedsPulse.2270
/var/folders/8r/0fdlnc995dl_vxqd6srx06ch0000gn/T//ccszvjba.s:656    .text:00000256 TLC5940_Init
/var/folders/8r/0fdlnc995dl_vxqd6srx06ch0000gn/T//ccszvjba.s:780    .text:000002fc display_swapbuffers
/var/folders/8r/0fdlnc995dl_vxqd6srx06ch0000gn/T//ccszvjba.s:795    .text:000002fe display_setNeedsUpdate
/var/folders/8r/0fdlnc995dl_vxqd6srx06ch0000gn/T//ccszvjba.s:818    .text:0000030c display_needsUpdate
/var/folders/8r/0fdlnc995dl_vxqd6srx06ch0000gn/T//ccszvjba.s:843    .text:00000318 display_setFontColor
/var/folders/8r/0fdlnc995dl_vxqd6srx06ch0000gn/T//ccszvjba.s:877    .text:00000328 display_setFillColor
/var/folders/8r/0fdlnc995dl_vxqd6srx06ch0000gn/T//ccszvjba.s:914    .text:00000338 display_clearZone
/var/folders/8r/0fdlnc995dl_vxqd6srx06ch0000gn/T//ccszvjba.s:1024   .text:0000039e display_clear
/var/folders/8r/0fdlnc995dl_vxqd6srx06ch0000gn/T//ccszvjba.s:1051   .text:000003b0 display_init
/var/folders/8r/0fdlnc995dl_vxqd6srx06ch0000gn/T//ccszvjba.s:1101   .text:000003da display_translate
/var/folders/8r/0fdlnc995dl_vxqd6srx06ch0000gn/T//ccszvjba.s:1119   .text:000003dc display_write
/var/folders/8r/0fdlnc995dl_vxqd6srx06ch0000gn/T//ccszvjba.s:2119   .rodata:00000000 CSWTCH.21
/var/folders/8r/0fdlnc995dl_vxqd6srx06ch0000gn/T//ccszvjba.s:2206   .rodata:00000096 c_NULL
/var/folders/8r/0fdlnc995dl_vxqd6srx06ch0000gn/T//ccszvjba.s:1387   .text:000004fc display_writeImage
/var/folders/8r/0fdlnc995dl_vxqd6srx06ch0000gn/T//ccszvjba.s:1487   .text:00000564 display_fillZone
/var/folders/8r/0fdlnc995dl_vxqd6srx06ch0000gn/T//ccszvjba.s:1586   .text:000005bc display_setPixel
/var/folders/8r/0fdlnc995dl_vxqd6srx06ch0000gn/T//ccszvjba.s:1636   .text:000005de display_addPixel
/var/folders/8r/0fdlnc995dl_vxqd6srx06ch0000gn/T//ccszvjba.s:1686   .text:00000600 display_drawCircle
/var/folders/8r/0fdlnc995dl_vxqd6srx06ch0000gn/T//ccszvjba.s:1922   .text:00000768 display_drawLine
/var/folders/8r/0fdlnc995dl_vxqd6srx06ch0000gn/T//ccszvjba.s:2746   .rodata:00000222 c_0
/var/folders/8r/0fdlnc995dl_vxqd6srx06ch0000gn/T//ccszvjba.s:2731   .rodata:00000217 c_1
/var/folders/8r/0fdlnc995dl_vxqd6srx06ch0000gn/T//ccszvjba.s:2716   .rodata:0000020c c_2
/var/folders/8r/0fdlnc995dl_vxqd6srx06ch0000gn/T//ccszvjba.s:2701   .rodata:00000201 c_3
/var/folders/8r/0fdlnc995dl_vxqd6srx06ch0000gn/T//ccszvjba.s:2686   .rodata:000001f6 c_4
/var/folders/8r/0fdlnc995dl_vxqd6srx06ch0000gn/T//ccszvjba.s:2671   .rodata:000001eb c_5
/var/folders/8r/0fdlnc995dl_vxqd6srx06ch0000gn/T//ccszvjba.s:2656   .rodata:000001e0 c_6
/var/folders/8r/0fdlnc995dl_vxqd6srx06ch0000gn/T//ccszvjba.s:2641   .rodata:000001d5 c_7
/var/folders/8r/0fdlnc995dl_vxqd6srx06ch0000gn/T//ccszvjba.s:2626   .rodata:000001ca c_8
/var/folders/8r/0fdlnc995dl_vxqd6srx06ch0000gn/T//ccszvjba.s:2611   .rodata:000001bf c_9
/var/folders/8r/0fdlnc995dl_vxqd6srx06ch0000gn/T//ccszvjba.s:2596   .rodata:000001b4 c_A
/var/folders/8r/0fdlnc995dl_vxqd6srx06ch0000gn/T//ccszvjba.s:2581   .rodata:000001a9 c_B
/var/folders/8r/0fdlnc995dl_vxqd6srx06ch0000gn/T//ccszvjba.s:2566   .rodata:0000019e c_C
/var/folders/8r/0fdlnc995dl_vxqd6srx06ch0000gn/T//ccszvjba.s:2551   .rodata:00000193 c_D
/var/folders/8r/0fdlnc995dl_vxqd6srx06ch0000gn/T//ccszvjba.s:2536   .rodata:00000188 c_E
/var/folders/8r/0fdlnc995dl_vxqd6srx06ch0000gn/T//ccszvjba.s:2521   .rodata:0000017d c_F
/var/folders/8r/0fdlnc995dl_vxqd6srx06ch0000gn/T//ccszvjba.s:2506   .rodata:00000172 c_G
/var/folders/8r/0fdlnc995dl_vxqd6srx06ch0000gn/T//ccszvjba.s:2491   .rodata:00000167 c_H
/var/folders/8r/0fdlnc995dl_vxqd6srx06ch0000gn/T//ccszvjba.s:2476   .rodata:0000015c c_I
/var/folders/8r/0fdlnc995dl_vxqd6srx06ch0000gn/T//ccszvjba.s:2461   .rodata:00000151 c_J
/var/folders/8r/0fdlnc995dl_vxqd6srx06ch0000gn/T//ccszvjba.s:2446   .rodata:00000146 c_K
/var/folders/8r/0fdlnc995dl_vxqd6srx06ch0000gn/T//ccszvjba.s:2431   .rodata:0000013b c_L
/var/folders/8r/0fdlnc995dl_vxqd6srx06ch0000gn/T//ccszvjba.s:2416   .rodata:00000130 c_M
/var/folders/8r/0fdlnc995dl_vxqd6srx06ch0000gn/T//ccszvjba.s:2401   .rodata:00000125 c_N
/var/folders/8r/0fdlnc995dl_vxqd6srx06ch0000gn/T//ccszvjba.s:2386   .rodata:0000011a c_O
/var/folders/8r/0fdlnc995dl_vxqd6srx06ch0000gn/T//ccszvjba.s:2371   .rodata:0000010f c_P
/var/folders/8r/0fdlnc995dl_vxqd6srx06ch0000gn/T//ccszvjba.s:2356   .rodata:00000104 c_Q
/var/folders/8r/0fdlnc995dl_vxqd6srx06ch0000gn/T//ccszvjba.s:2341   .rodata:000000f9 c_R
/var/folders/8r/0fdlnc995dl_vxqd6srx06ch0000gn/T//ccszvjba.s:2326   .rodata:000000ee c_S
/var/folders/8r/0fdlnc995dl_vxqd6srx06ch0000gn/T//ccszvjba.s:2311   .rodata:000000e3 c_T
/var/folders/8r/0fdlnc995dl_vxqd6srx06ch0000gn/T//ccszvjba.s:2296   .rodata:000000d8 c_U
/var/folders/8r/0fdlnc995dl_vxqd6srx06ch0000gn/T//ccszvjba.s:2281   .rodata:000000cd c_V
/var/folders/8r/0fdlnc995dl_vxqd6srx06ch0000gn/T//ccszvjba.s:2266   .rodata:000000c2 c_W
/var/folders/8r/0fdlnc995dl_vxqd6srx06ch0000gn/T//ccszvjba.s:2251   .rodata:000000b7 c_X
/var/folders/8r/0fdlnc995dl_vxqd6srx06ch0000gn/T//ccszvjba.s:2236   .rodata:000000ac c_Y
/var/folders/8r/0fdlnc995dl_vxqd6srx06ch0000gn/T//ccszvjba.s:2221   .rodata:000000a1 c_Z

UNDEFINED SYMBOLS
_display
__do_copy_data
__do_clear_bss
