   1               		.file	"Display.c"
   2               	__SP_H__ = 0x3e
   3               	__SP_L__ = 0x3d
   4               	__SREG__ = 0x3f
   5               	__RAMPZ__ = 0x3b
   6               	__tmp_reg__ = 0
   7               	__zero_reg__ = 1
   9               		.text
  10               	.Ltext0:
 142               	.global	getCharWidth
 144               	getCharWidth:
   1:/Users/manueldeneu/Documents/projets/dev/Monu100/MicroController/MicMonu100/MicMonu100/Display.c **** //
   2:/Users/manueldeneu/Documents/projets/dev/Monu100/MicroController/MicMonu100/MicMonu100/Display.c **** //  Display.c
   3:/Users/manueldeneu/Documents/projets/dev/Monu100/MicroController/MicMonu100/MicMonu100/Display.c **** //  MicMonu100
   4:/Users/manueldeneu/Documents/projets/dev/Monu100/MicroController/MicMonu100/MicMonu100/Display.c **** //
   5:/Users/manueldeneu/Documents/projets/dev/Monu100/MicroController/MicMonu100/MicMonu100/Display.c **** //  Created by Manuel Deneu on 01/03/15.
   6:/Users/manueldeneu/Documents/projets/dev/Monu100/MicroController/MicMonu100/MicMonu100/Display.c **** //  Copyright (c) 2015 Manuel Deneu. All rights reserved.
   7:/Users/manueldeneu/Documents/projets/dev/Monu100/MicroController/MicMonu100/MicMonu100/Display.c **** //
   8:/Users/manueldeneu/Documents/projets/dev/Monu100/MicroController/MicMonu100/MicMonu100/Display.c **** #include <stdio.h>
   9:/Users/manueldeneu/Documents/projets/dev/Monu100/MicroController/MicMonu100/MicMonu100/Display.c **** #include <avr/io.h>
  10:/Users/manueldeneu/Documents/projets/dev/Monu100/MicroController/MicMonu100/MicMonu100/Display.c **** #define __PROG_TYPES_COMPAT__
  11:/Users/manueldeneu/Documents/projets/dev/Monu100/MicroController/MicMonu100/MicMonu100/Display.c **** #include <avr/pgmspace.h>
  12:/Users/manueldeneu/Documents/projets/dev/Monu100/MicroController/MicMonu100/MicMonu100/Display.c **** #include <avr/interrupt.h>
  13:/Users/manueldeneu/Documents/projets/dev/Monu100/MicroController/MicMonu100/MicMonu100/Display.c **** #include <stdlib.h>
  14:/Users/manueldeneu/Documents/projets/dev/Monu100/MicroController/MicMonu100/MicMonu100/Display.c **** 
  15:/Users/manueldeneu/Documents/projets/dev/Monu100/MicroController/MicMonu100/MicMonu100/Display.c **** #include <util/delay.h>
  16:/Users/manueldeneu/Documents/projets/dev/Monu100/MicroController/MicMonu100/MicMonu100/Display.c **** #include "MCP2515.h"
  17:/Users/manueldeneu/Documents/projets/dev/Monu100/MicroController/MicMonu100/MicMonu100/Display.c **** #include "PinsConfig.h"
  18:/Users/manueldeneu/Documents/projets/dev/Monu100/MicroController/MicMonu100/MicMonu100/Display.c **** 
  19:/Users/manueldeneu/Documents/projets/dev/Monu100/MicroController/MicMonu100/MicMonu100/Display.c **** #include "Display.h"
  20:/Users/manueldeneu/Documents/projets/dev/Monu100/MicroController/MicMonu100/MicMonu100/Display.c **** 
  21:/Users/manueldeneu/Documents/projets/dev/Monu100/MicroController/MicMonu100/MicMonu100/Display.c **** #include "Chars.h"
  22:/Users/manueldeneu/Documents/projets/dev/Monu100/MicroController/MicMonu100/MicMonu100/Display.c **** 
  23:/Users/manueldeneu/Documents/projets/dev/Monu100/MicroController/MicMonu100/MicMonu100/Display.c **** 
  24:/Users/manueldeneu/Documents/projets/dev/Monu100/MicroController/MicMonu100/MicMonu100/Display.c **** extern Display _display;
  25:/Users/manueldeneu/Documents/projets/dev/Monu100/MicroController/MicMonu100/MicMonu100/Display.c **** 
  26:/Users/manueldeneu/Documents/projets/dev/Monu100/MicroController/MicMonu100/MicMonu100/Display.c **** /* **** **** **** **** **** **** **** **** **** **** **** **** **** **** **** **** **** **** **** *
  27:/Users/manueldeneu/Documents/projets/dev/Monu100/MicroController/MicMonu100/MicMonu100/Display.c **** 
  28:/Users/manueldeneu/Documents/projets/dev/Monu100/MicroController/MicMonu100/MicMonu100/Display.c **** uint8_t getCharWidth()
  29:/Users/manueldeneu/Documents/projets/dev/Monu100/MicroController/MicMonu100/MicMonu100/Display.c **** {
 146               	.LM0:
 147               	.LFBB1:
 148               	/* prologue: function */
 149               	/* frame size = 0 */
 150               	/* stack size = 0 */
 151               	.L__stack_usage = 0
  30:/Users/manueldeneu/Documents/projets/dev/Monu100/MicroController/MicMonu100/MicMonu100/Display.c ****     return CHAR_WIDTH;
  31:/Users/manueldeneu/Documents/projets/dev/Monu100/MicroController/MicMonu100/MicMonu100/Display.c **** }
 153               	.LM1:
 154 0000 88E0      		ldi r24,lo8(8)
 155 0002 0895      		ret
 157               	.Lscope1:
 159               	.global	getCharHeight
 161               	getCharHeight:
  32:/Users/manueldeneu/Documents/projets/dev/Monu100/MicroController/MicMonu100/MicMonu100/Display.c **** uint8_t getCharHeight()
  33:/Users/manueldeneu/Documents/projets/dev/Monu100/MicroController/MicMonu100/MicMonu100/Display.c **** {
 163               	.LM2:
 164               	.LFBB2:
 165               	/* prologue: function */
 166               	/* frame size = 0 */
 167               	/* stack size = 0 */
 168               	.L__stack_usage = 0
  34:/Users/manueldeneu/Documents/projets/dev/Monu100/MicroController/MicMonu100/MicMonu100/Display.c ****     return CHAR_HEIGHT;
  35:/Users/manueldeneu/Documents/projets/dev/Monu100/MicroController/MicMonu100/MicMonu100/Display.c **** }
 170               	.LM3:
 171 0004 8AE0      		ldi r24,lo8(10)
 172 0006 0895      		ret
 174               	.Lscope2:
 176               	.global	__vector_21
 178               	__vector_21:
  36:/Users/manueldeneu/Documents/projets/dev/Monu100/MicroController/MicMonu100/MicMonu100/Display.c **** 
  37:/Users/manueldeneu/Documents/projets/dev/Monu100/MicroController/MicMonu100/MicMonu100/Display.c **** inline uint8_t clipVal( uint8_t val)
  38:/Users/manueldeneu/Documents/projets/dev/Monu100/MicroController/MicMonu100/MicMonu100/Display.c **** {
  39:/Users/manueldeneu/Documents/projets/dev/Monu100/MicroController/MicMonu100/MicMonu100/Display.c ****     return val>=PIXEL_MAX_VALUE ? PIXEL_MAX_VALUE : val;
  40:/Users/manueldeneu/Documents/projets/dev/Monu100/MicroController/MicMonu100/MicMonu100/Display.c **** }
  41:/Users/manueldeneu/Documents/projets/dev/Monu100/MicroController/MicMonu100/MicMonu100/Display.c **** 
  42:/Users/manueldeneu/Documents/projets/dev/Monu100/MicroController/MicMonu100/MicMonu100/Display.c **** inline uint8_t getPixel( const uint8_t x , const uint8_t y)
  43:/Users/manueldeneu/Documents/projets/dev/Monu100/MicroController/MicMonu100/MicMonu100/Display.c **** {
  44:/Users/manueldeneu/Documents/projets/dev/Monu100/MicroController/MicMonu100/MicMonu100/Display.c ****     return _display.buff_text[x][y] +_display.buff_draw[x][y] ;
  45:/Users/manueldeneu/Documents/projets/dev/Monu100/MicroController/MicMonu100/MicMonu100/Display.c **** }
  46:/Users/manueldeneu/Documents/projets/dev/Monu100/MicroController/MicMonu100/MicMonu100/Display.c **** 
  47:/Users/manueldeneu/Documents/projets/dev/Monu100/MicroController/MicMonu100/MicMonu100/Display.c **** /* **** **** **** **** **** **** **** **** **** **** **** **** **** **** **** **** **** **** **** *
  48:/Users/manueldeneu/Documents/projets/dev/Monu100/MicroController/MicMonu100/MicMonu100/Display.c **** /* **** **** **** **** **** **** **** **** **** **** **** **** **** **** **** **** **** **** **** *
  49:/Users/manueldeneu/Documents/projets/dev/Monu100/MicroController/MicMonu100/MicMonu100/Display.c **** 
  50:/Users/manueldeneu/Documents/projets/dev/Monu100/MicroController/MicMonu100/MicMonu100/Display.c **** inline void sendSPI( const uint8_t val)
  51:/Users/manueldeneu/Documents/projets/dev/Monu100/MicroController/MicMonu100/MicMonu100/Display.c **** {
  52:/Users/manueldeneu/Documents/projets/dev/Monu100/MicroController/MicMonu100/MicMonu100/Display.c ****     SPDR = val;
  53:/Users/manueldeneu/Documents/projets/dev/Monu100/MicroController/MicMonu100/MicMonu100/Display.c ****     while (!(SPSR & (1 << SPIF)));
  54:/Users/manueldeneu/Documents/projets/dev/Monu100/MicroController/MicMonu100/MicMonu100/Display.c **** }
  55:/Users/manueldeneu/Documents/projets/dev/Monu100/MicroController/MicMonu100/MicMonu100/Display.c **** 
  56:/Users/manueldeneu/Documents/projets/dev/Monu100/MicroController/MicMonu100/MicMonu100/Display.c **** /* **** **** **** **** **** **** **** **** **** **** **** **** **** **** **** **** **** **** **** *
  57:/Users/manueldeneu/Documents/projets/dev/Monu100/MicroController/MicMonu100/MicMonu100/Display.c **** // display's interupt
  58:/Users/manueldeneu/Documents/projets/dev/Monu100/MicroController/MicMonu100/MicMonu100/Display.c **** 
  59:/Users/manueldeneu/Documents/projets/dev/Monu100/MicroController/MicMonu100/MicMonu100/Display.c **** ISR(TIMER0_COMPA_vect)
  60:/Users/manueldeneu/Documents/projets/dev/Monu100/MicroController/MicMonu100/MicMonu100/Display.c **** {
 180               	.LM4:
 181               	.LFBB3:
 182 0008 1F92      		push r1
 183 000a 0F92      		push r0
 184 000c 0FB6      		in r0,__SREG__
 185 000e 0F92      		push r0
 186 0010 1124      		clr __zero_reg__
 187 0012 0BB6      		in r0,__RAMPZ__
 188 0014 0F92      		push r0
 189 0016 2F93      		push r18
 190 0018 3F93      		push r19
 191 001a 4F93      		push r20
 192 001c 5F93      		push r21
 193 001e 6F93      		push r22
 194 0020 7F93      		push r23
 195 0022 8F93      		push r24
 196 0024 9F93      		push r25
 197 0026 AF93      		push r26
 198 0028 BF93      		push r27
 199 002a CF93      		push r28
 200 002c EF93      		push r30
 201 002e FF93      		push r31
 202               	/* prologue: Signal */
 203               	/* frame size = 0 */
 204               	/* stack size = 17 */
 205               	.L__stack_usage = 17
  61:/Users/manueldeneu/Documents/projets/dev/Monu100/MicroController/MicMonu100/MicMonu100/Display.c **** 
  62:/Users/manueldeneu/Documents/projets/dev/Monu100/MicroController/MicMonu100/MicMonu100/Display.c ****     static uint16_t rowIndex = Y_MIC_MAX;
  63:/Users/manueldeneu/Documents/projets/dev/Monu100/MicroController/MicMonu100/MicMonu100/Display.c ****     static uint8_t firstCycleFlag = 1;// 0;
  64:/Users/manueldeneu/Documents/projets/dev/Monu100/MicroController/MicMonu100/MicMonu100/Display.c ****     static uint8_t xlatNeedsPulse = 0;
  65:/Users/manueldeneu/Documents/projets/dev/Monu100/MicroController/MicMonu100/MicMonu100/Display.c ****     
  66:/Users/manueldeneu/Documents/projets/dev/Monu100/MicroController/MicMonu100/MicMonu100/Display.c ****     
  67:/Users/manueldeneu/Documents/projets/dev/Monu100/MicroController/MicMonu100/MicMonu100/Display.c **** 
  68:/Users/manueldeneu/Documents/projets/dev/Monu100/MicroController/MicMonu100/MicMonu100/Display.c ****     
  69:/Users/manueldeneu/Documents/projets/dev/Monu100/MicroController/MicMonu100/MicMonu100/Display.c ****     if ( rowIndex == Y_MIC_MAX ) // matrix ok. return col0;
 207               	.LM5:
 208 0030 8091 0000 		lds r24,rowIndex.2428
 209 0034 9091 0000 		lds r25,rowIndex.2428+1
 210 0038 4497      		sbiw r24,20
 211 003a 01F4      		brne .L4
  70:/Users/manueldeneu/Documents/projets/dev/Monu100/MicroController/MicMonu100/MicMonu100/Display.c ****     {
  71:/Users/manueldeneu/Documents/projets/dev/Monu100/MicroController/MicMonu100/MicMonu100/Display.c ****         setHigh( DATA0_PORT , DATA0_PIN);
 213               	.LM6:
 214 003c 8091 0B01 		lds r24,267
 215 0040 8860      		ori r24,lo8(8)
 216 0042 8093 0B01 		sts 267,r24
  72:/Users/manueldeneu/Documents/projets/dev/Monu100/MicroController/MicMonu100/MicMonu100/Display.c ****         setHigh( DATA1_PORT , DATA1_PIN);
 218               	.LM7:
 219 0046 8091 0B01 		lds r24,267
 220 004a 8061      		ori r24,lo8(16)
 221 004c 8093 0B01 		sts 267,r24
  73:/Users/manueldeneu/Documents/projets/dev/Monu100/MicroController/MicMonu100/MicMonu100/Display.c **** 
  74:/Users/manueldeneu/Documents/projets/dev/Monu100/MicroController/MicMonu100/MicMonu100/Display.c ****         rowIndex = 0;
 223               	.LM8:
 224 0050 1092 0000 		sts rowIndex.2428+1,__zero_reg__
 225 0054 1092 0000 		sts rowIndex.2428,__zero_reg__
 226 0058 00C0      		rjmp .L5
 227               	.L4:
  75:/Users/manueldeneu/Documents/projets/dev/Monu100/MicroController/MicMonu100/MicMonu100/Display.c ****         
  76:/Users/manueldeneu/Documents/projets/dev/Monu100/MicroController/MicMonu100/MicMonu100/Display.c ****     }
  77:/Users/manueldeneu/Documents/projets/dev/Monu100/MicroController/MicMonu100/MicMonu100/Display.c ****     else
  78:/Users/manueldeneu/Documents/projets/dev/Monu100/MicroController/MicMonu100/MicMonu100/Display.c ****     {
  79:/Users/manueldeneu/Documents/projets/dev/Monu100/MicroController/MicMonu100/MicMonu100/Display.c ****         setLow( DATA0_PORT , DATA0_PIN);
 229               	.LM9:
 230 005a 8091 0B01 		lds r24,267
 231 005e 877F      		andi r24,lo8(-9)
 232 0060 8093 0B01 		sts 267,r24
  80:/Users/manueldeneu/Documents/projets/dev/Monu100/MicroController/MicMonu100/MicMonu100/Display.c ****         setLow( DATA1_PORT , DATA1_PIN);
 234               	.LM10:
 235 0064 8091 0B01 		lds r24,267
 236 0068 8F7E      		andi r24,lo8(-17)
 237 006a 8093 0B01 		sts 267,r24
 238               	.L5:
  81:/Users/manueldeneu/Documents/projets/dev/Monu100/MicroController/MicMonu100/MicMonu100/Display.c ****     }
  82:/Users/manueldeneu/Documents/projets/dev/Monu100/MicroController/MicMonu100/MicMonu100/Display.c ****     
  83:/Users/manueldeneu/Documents/projets/dev/Monu100/MicroController/MicMonu100/MicMonu100/Display.c **** 
  84:/Users/manueldeneu/Documents/projets/dev/Monu100/MicroController/MicMonu100/MicMonu100/Display.c ****     
  85:/Users/manueldeneu/Documents/projets/dev/Monu100/MicroController/MicMonu100/MicMonu100/Display.c ****     setLow(BLANK_PORT, BLANK_PIN);
 240               	.LM11:
 241 006e 2898      		cbi 0x5,0
  86:/Users/manueldeneu/Documents/projets/dev/Monu100/MicroController/MicMonu100/MicMonu100/Display.c ****     
  87:/Users/manueldeneu/Documents/projets/dev/Monu100/MicroController/MicMonu100/MicMonu100/Display.c ****     _display.isDrawing = 1;
 243               	.LM12:
 244 0070 81E0      		ldi r24,lo8(1)
 245 0072 8093 0000 		sts _display+1204,r24
 246               	.LBB79:
  88:/Users/manueldeneu/Documents/projets/dev/Monu100/MicroController/MicMonu100/MicMonu100/Display.c ****     /**** FILL TLC BUFFERS *****/
  89:/Users/manueldeneu/Documents/projets/dev/Monu100/MicroController/MicMonu100/MicMonu100/Display.c ****     
  90:/Users/manueldeneu/Documents/projets/dev/Monu100/MicroController/MicMonu100/MicMonu100/Display.c ****     // col 0 -> send dumm values ( not displayed)
  91:/Users/manueldeneu/Documents/projets/dev/Monu100/MicroController/MicMonu100/MicMonu100/Display.c ****     
  92:/Users/manueldeneu/Documents/projets/dev/Monu100/MicroController/MicMonu100/MicMonu100/Display.c ****     for (int x=0;x<14;x+=2)
 248               	.LM13:
 249 0076 20E0      		ldi r18,0
 250 0078 30E0      		ldi r19,0
 251               	.LBB80:
 252               	.LBB81:
 253               	.LBB82:
  44:/Users/manueldeneu/Documents/projets/dev/Monu100/MicroController/MicMonu100/MicMonu100/Display.c ****     return _display.buff_text[x][y] +_display.buff_draw[x][y] ;
 255               	.LM14:
 256 007a C4E1      		ldi r28,lo8(20)
 257               	.L13:
 258 007c 8091 0000 		lds r24,rowIndex.2428
 259 0080 9091 0000 		lds r25,rowIndex.2428+1
 260 0084 9927      		clr r25
  44:/Users/manueldeneu/Documents/projets/dev/Monu100/MicroController/MicMonu100/MicMonu100/Display.c ****     return _display.buff_text[x][y] +_display.buff_draw[x][y] ;
 262               	.LM15:
 263 0086 C29F      		mul r28,r18
 264 0088 F001      		movw r30,r0
 265 008a C39F      		mul r28,r19
 266 008c F00D      		add r31,r0
 267 008e 1124      		clr __zero_reg__
 268 0090 DC01      		movw r26,r24
 269 0092 AE0F      		add r26,r30
 270 0094 BF1F      		adc r27,r31
 271 0096 A050      		subi r26,lo8(-(_display+600))
 272 0098 B040      		sbci r27,hi8(-(_display+600))
 273 009a E80F      		add r30,r24
 274 009c F91F      		adc r31,r25
 275 009e E050      		subi r30,lo8(-(_display))
 276 00a0 F040      		sbci r31,hi8(-(_display))
 277 00a2 AC91      		ld r26,X
 278 00a4 4081      		ld r20,Z
 279 00a6 A40F      		add r26,r20
 280 00a8 B901      		movw r22,r18
 281 00aa 6F5F      		subi r22,-1
 282 00ac 7F4F      		sbci r23,-1
 283               	.LBE82:
 284               	.LBE81:
 285               	.LBB83:
 286               	.LBB84:
 287 00ae C69F      		mul r28,r22
 288 00b0 A001      		movw r20,r0
 289 00b2 C79F      		mul r28,r23
 290 00b4 500D      		add r21,r0
 291 00b6 1124      		clr __zero_reg__
 292 00b8 FC01      		movw r30,r24
 293 00ba E40F      		add r30,r20
 294 00bc F51F      		adc r31,r21
 295 00be E050      		subi r30,lo8(-(_display+600))
 296 00c0 F040      		sbci r31,hi8(-(_display+600))
 297 00c2 840F      		add r24,r20
 298 00c4 951F      		adc r25,r21
 299 00c6 8050      		subi r24,lo8(-(_display))
 300 00c8 9040      		sbci r25,hi8(-(_display))
 301 00ca 4081      		ld r20,Z
 302 00cc FC01      		movw r30,r24
 303 00ce 8081      		ld r24,Z
 304 00d0 480F      		add r20,r24
 305               	.LBE84:
 306               	.LBE83:
  93:/Users/manueldeneu/Documents/projets/dev/Monu100/MicroController/MicMonu100/MicMonu100/Display.c ****     {
  94:/Users/manueldeneu/Documents/projets/dev/Monu100/MicroController/MicMonu100/MicMonu100/Display.c ****         const uint8_t pixA = getPixel(x   , rowIndex);
  95:/Users/manueldeneu/Documents/projets/dev/Monu100/MicroController/MicMonu100/MicMonu100/Display.c ****         const uint8_t pixB = getPixel(x+1 , rowIndex);
  96:/Users/manueldeneu/Documents/projets/dev/Monu100/MicroController/MicMonu100/MicMonu100/Display.c **** 
  97:/Users/manueldeneu/Documents/projets/dev/Monu100/MicroController/MicMonu100/MicMonu100/Display.c ****         sendSPI( pixA >> 4); // p1
 308               	.LM16:
 309 00d2 8A2F      		mov r24,r26
 310 00d4 8295      		swap r24
 311 00d6 8F70      		andi r24,lo8(15)
 312               	.LBB85:
 313               	.LBB86:
  52:/Users/manueldeneu/Documents/projets/dev/Monu100/MicroController/MicMonu100/MicMonu100/Display.c ****     SPDR = val;
 315               	.LM17:
 316 00d8 8EBD      		out 0x2e,r24
 317               	.L7:
  53:/Users/manueldeneu/Documents/projets/dev/Monu100/MicroController/MicMonu100/MicMonu100/Display.c ****     while (!(SPSR & (1 << SPIF)));
 319               	.LM18:
 320 00da 0DB4      		in __tmp_reg__,0x2d
 321 00dc 07FE      		sbrs __tmp_reg__,7
 322 00de 00C0      		rjmp .L7
 323               	.LBE86:
 324               	.LBE85:
  98:/Users/manueldeneu/Documents/projets/dev/Monu100/MicroController/MicMonu100/MicMonu100/Display.c ****         sendSPI( (uint8_t )(pixA << 4) ); // p1
 326               	.LM19:
 327 00e0 A295      		swap r26
 328 00e2 A07F      		andi r26,lo8(-16)
 329               	.LBB87:
 330               	.LBB88:
  52:/Users/manueldeneu/Documents/projets/dev/Monu100/MicroController/MicMonu100/MicMonu100/Display.c ****     SPDR = val;
 332               	.LM20:
 333 00e4 AEBD      		out 0x2e,r26
 334               	.L9:
  53:/Users/manueldeneu/Documents/projets/dev/Monu100/MicroController/MicMonu100/MicMonu100/Display.c ****     while (!(SPSR & (1 << SPIF)));
 336               	.LM21:
 337 00e6 0DB4      		in __tmp_reg__,0x2d
 338 00e8 07FE      		sbrs __tmp_reg__,7
 339 00ea 00C0      		rjmp .L9
 340               	.LBE88:
 341               	.LBE87:
 342               	.LBB89:
 343               	.LBB90:
  52:/Users/manueldeneu/Documents/projets/dev/Monu100/MicroController/MicMonu100/MicMonu100/Display.c ****     SPDR = val;
 345               	.LM22:
 346 00ec 4EBD      		out 0x2e,r20
 347               	.L11:
  53:/Users/manueldeneu/Documents/projets/dev/Monu100/MicroController/MicMonu100/MicMonu100/Display.c ****     while (!(SPSR & (1 << SPIF)));
 349               	.LM23:
 350 00ee 0DB4      		in __tmp_reg__,0x2d
 351 00f0 07FE      		sbrs __tmp_reg__,7
 352 00f2 00C0      		rjmp .L11
 353               	.LBE90:
 354               	.LBE89:
 355               	.LBE80:
  92:/Users/manueldeneu/Documents/projets/dev/Monu100/MicroController/MicMonu100/MicMonu100/Display.c ****     for (int x=0;x<14;x+=2)
 357               	.LM24:
 358 00f4 2E5F      		subi r18,-2
 359 00f6 3F4F      		sbci r19,-1
 360 00f8 2E30      		cpi r18,14
 361 00fa 3105      		cpc r19,__zero_reg__
 362 00fc 01F0      		breq .+2
 363 00fe 00C0      		rjmp .L13
 364 0100 8091 0000 		lds r24,rowIndex.2428
 365 0104 9091 0000 		lds r25,rowIndex.2428+1
 366 0108 9927      		clr r25
 367               	.LBE79:
 368               	.LBB91:
 369               	.LBB92:
 370               	.LBB93:
  44:/Users/manueldeneu/Documents/projets/dev/Monu100/MicroController/MicMonu100/MicMonu100/Display.c ****     return _display.buff_text[x][y] +_display.buff_draw[x][y] ;
 372               	.LM25:
 373 010a 8050      		subi r24,lo8(-(_display))
 374 010c 9040      		sbci r25,hi8(-(_display))
 375 010e FC01      		movw r30,r24
 376 0110 E059      		subi r30,-112
 377 0112 FC4F      		sbci r31,-4
 378 0114 DC01      		movw r26,r24
 379 0116 A85E      		subi r26,-24
 380 0118 BE4F      		sbci r27,-2
 381 011a 2081      		ld r18,Z
 382 011c 8C91      		ld r24,X
 383 011e 280F      		add r18,r24
 384               	.LBE93:
 385               	.LBE92:
  99:/Users/manueldeneu/Documents/projets/dev/Monu100/MicroController/MicMonu100/MicMonu100/Display.c ****         sendSPI( pixB ); // p2
 100:/Users/manueldeneu/Documents/projets/dev/Monu100/MicroController/MicMonu100/MicMonu100/Display.c **** 
 101:/Users/manueldeneu/Documents/projets/dev/Monu100/MicroController/MicMonu100/MicMonu100/Display.c ****     }
 102:/Users/manueldeneu/Documents/projets/dev/Monu100/MicroController/MicMonu100/MicMonu100/Display.c ****     
 103:/Users/manueldeneu/Documents/projets/dev/Monu100/MicroController/MicMonu100/MicMonu100/Display.c ****     //  col 15 a la mano
 104:/Users/manueldeneu/Documents/projets/dev/Monu100/MicroController/MicMonu100/MicMonu100/Display.c ****     {
 105:/Users/manueldeneu/Documents/projets/dev/Monu100/MicroController/MicMonu100/MicMonu100/Display.c ****     const uint8_t  p = getPixel(14, rowIndex);
 106:/Users/manueldeneu/Documents/projets/dev/Monu100/MicroController/MicMonu100/MicMonu100/Display.c ****     sendSPI( p >> 4 ); // p15
 387               	.LM26:
 388 0120 822F      		mov r24,r18
 389 0122 8295      		swap r24
 390 0124 8F70      		andi r24,lo8(15)
 391               	.LBB94:
 392               	.LBB95:
  52:/Users/manueldeneu/Documents/projets/dev/Monu100/MicroController/MicMonu100/MicMonu100/Display.c ****     SPDR = val;
 394               	.LM27:
 395 0126 8EBD      		out 0x2e,r24
 396               	.L15:
  53:/Users/manueldeneu/Documents/projets/dev/Monu100/MicroController/MicMonu100/MicMonu100/Display.c ****     while (!(SPSR & (1 << SPIF)));
 398               	.LM28:
 399 0128 0DB4      		in __tmp_reg__,0x2d
 400 012a 07FE      		sbrs __tmp_reg__,7
 401 012c 00C0      		rjmp .L15
 402               	.LBE95:
 403               	.LBE94:
 107:/Users/manueldeneu/Documents/projets/dev/Monu100/MicroController/MicMonu100/MicMonu100/Display.c ****     sendSPI( p << 4 ); // p15
 405               	.LM29:
 406 012e 2295      		swap r18
 407 0130 207F      		andi r18,lo8(-16)
 408               	.LBB96:
 409               	.LBB97:
  52:/Users/manueldeneu/Documents/projets/dev/Monu100/MicroController/MicMonu100/MicMonu100/Display.c ****     SPDR = val;
 411               	.LM30:
 412 0132 2EBD      		out 0x2e,r18
 413               	.L17:
  53:/Users/manueldeneu/Documents/projets/dev/Monu100/MicroController/MicMonu100/MicMonu100/Display.c ****     while (!(SPSR & (1 << SPIF)));
 415               	.LM31:
 416 0134 0DB4      		in __tmp_reg__,0x2d
 417 0136 07FE      		sbrs __tmp_reg__,7
 418 0138 00C0      		rjmp .L17
 419               	.LBE97:
 420               	.LBE96:
 421               	.LBE91:
 422               	.LBB98:
 423               	.LBB99:
  52:/Users/manueldeneu/Documents/projets/dev/Monu100/MicroController/MicMonu100/MicMonu100/Display.c ****     SPDR = val;
 425               	.LM32:
 426 013a 1EBC      		out 0x2e,__zero_reg__
 427               	.L19:
  53:/Users/manueldeneu/Documents/projets/dev/Monu100/MicroController/MicMonu100/MicMonu100/Display.c ****     while (!(SPSR & (1 << SPIF)));
 429               	.LM33:
 430 013c 0DB4      		in __tmp_reg__,0x2d
 431 013e 07FE      		sbrs __tmp_reg__,7
 432 0140 00C0      		rjmp .L19
 433 0142 2FE0      		ldi r18,lo8(15)
 434 0144 30E0      		ldi r19,0
 435               	.LBE99:
 436               	.LBE98:
 437               	.LBB100:
 438               	.LBB101:
 439               	.LBB102:
 440               	.LBB103:
  44:/Users/manueldeneu/Documents/projets/dev/Monu100/MicroController/MicMonu100/MicMonu100/Display.c ****     return _display.buff_text[x][y] +_display.buff_draw[x][y] ;
 442               	.LM34:
 443 0146 C4E1      		ldi r28,lo8(20)
 444               	.L27:
 445 0148 8091 0000 		lds r24,rowIndex.2428
 446 014c 9091 0000 		lds r25,rowIndex.2428+1
 447 0150 9927      		clr r25
  44:/Users/manueldeneu/Documents/projets/dev/Monu100/MicroController/MicMonu100/MicMonu100/Display.c ****     return _display.buff_text[x][y] +_display.buff_draw[x][y] ;
 449               	.LM35:
 450 0152 C29F      		mul r28,r18
 451 0154 F001      		movw r30,r0
 452 0156 C39F      		mul r28,r19
 453 0158 F00D      		add r31,r0
 454 015a 1124      		clr __zero_reg__
 455 015c DC01      		movw r26,r24
 456 015e AE0F      		add r26,r30
 457 0160 BF1F      		adc r27,r31
 458 0162 A050      		subi r26,lo8(-(_display+600))
 459 0164 B040      		sbci r27,hi8(-(_display+600))
 460 0166 E80F      		add r30,r24
 461 0168 F91F      		adc r31,r25
 462 016a E050      		subi r30,lo8(-(_display))
 463 016c F040      		sbci r31,hi8(-(_display))
 464 016e AC91      		ld r26,X
 465 0170 4081      		ld r20,Z
 466 0172 A40F      		add r26,r20
 467 0174 B901      		movw r22,r18
 468 0176 6F5F      		subi r22,-1
 469 0178 7F4F      		sbci r23,-1
 470               	.LBE103:
 471               	.LBE102:
 472               	.LBB104:
 473               	.LBB105:
 474 017a C69F      		mul r28,r22
 475 017c A001      		movw r20,r0
 476 017e C79F      		mul r28,r23
 477 0180 500D      		add r21,r0
 478 0182 1124      		clr __zero_reg__
 479 0184 FC01      		movw r30,r24
 480 0186 E40F      		add r30,r20
 481 0188 F51F      		adc r31,r21
 482 018a E050      		subi r30,lo8(-(_display+600))
 483 018c F040      		sbci r31,hi8(-(_display+600))
 484 018e 840F      		add r24,r20
 485 0190 951F      		adc r25,r21
 486 0192 8050      		subi r24,lo8(-(_display))
 487 0194 9040      		sbci r25,hi8(-(_display))
 488 0196 4081      		ld r20,Z
 489 0198 FC01      		movw r30,r24
 490 019a 8081      		ld r24,Z
 491 019c 480F      		add r20,r24
 492               	.LBE105:
 493               	.LBE104:
 108:/Users/manueldeneu/Documents/projets/dev/Monu100/MicroController/MicMonu100/MicMonu100/Display.c ****     }
 109:/Users/manueldeneu/Documents/projets/dev/Monu100/MicroController/MicMonu100/MicMonu100/Display.c ****     /**/
 110:/Users/manueldeneu/Documents/projets/dev/Monu100/MicroController/MicMonu100/MicMonu100/Display.c ****     
 111:/Users/manueldeneu/Documents/projets/dev/Monu100/MicroController/MicMonu100/MicMonu100/Display.c ****     // col 16 -> send dumm values ( not displayed)
 112:/Users/manueldeneu/Documents/projets/dev/Monu100/MicroController/MicMonu100/MicMonu100/Display.c ****     sendSPI(0b00000000); // p16
 113:/Users/manueldeneu/Documents/projets/dev/Monu100/MicroController/MicMonu100/MicMonu100/Display.c ****     
 114:/Users/manueldeneu/Documents/projets/dev/Monu100/MicroController/MicMonu100/MicMonu100/Display.c ****     for (int x = 15;x<28;x+=2)
 115:/Users/manueldeneu/Documents/projets/dev/Monu100/MicroController/MicMonu100/MicMonu100/Display.c ****     {
 116:/Users/manueldeneu/Documents/projets/dev/Monu100/MicroController/MicMonu100/MicMonu100/Display.c ****         const uint8_t pixA =  getPixel(x   , rowIndex);
 117:/Users/manueldeneu/Documents/projets/dev/Monu100/MicroController/MicMonu100/MicMonu100/Display.c ****         const uint8_t pixB =  getPixel(x+1 , rowIndex);
 118:/Users/manueldeneu/Documents/projets/dev/Monu100/MicroController/MicMonu100/MicMonu100/Display.c ****         
 119:/Users/manueldeneu/Documents/projets/dev/Monu100/MicroController/MicMonu100/MicMonu100/Display.c ****         sendSPI( pixA >> 4); // p1
 495               	.LM36:
 496 019e 8A2F      		mov r24,r26
 497 01a0 8295      		swap r24
 498 01a2 8F70      		andi r24,lo8(15)
 499               	.LBB106:
 500               	.LBB107:
  52:/Users/manueldeneu/Documents/projets/dev/Monu100/MicroController/MicMonu100/MicMonu100/Display.c ****     SPDR = val;
 502               	.LM37:
 503 01a4 8EBD      		out 0x2e,r24
 504               	.L21:
  53:/Users/manueldeneu/Documents/projets/dev/Monu100/MicroController/MicMonu100/MicMonu100/Display.c ****     while (!(SPSR & (1 << SPIF)));
 506               	.LM38:
 507 01a6 0DB4      		in __tmp_reg__,0x2d
 508 01a8 07FE      		sbrs __tmp_reg__,7
 509 01aa 00C0      		rjmp .L21
 510               	.LBE107:
 511               	.LBE106:
 120:/Users/manueldeneu/Documents/projets/dev/Monu100/MicroController/MicMonu100/MicMonu100/Display.c ****         sendSPI( (uint8_t )(pixA<< 4) ); // p1
 513               	.LM39:
 514 01ac A295      		swap r26
 515 01ae A07F      		andi r26,lo8(-16)
 516               	.LBB108:
 517               	.LBB109:
  52:/Users/manueldeneu/Documents/projets/dev/Monu100/MicroController/MicMonu100/MicMonu100/Display.c ****     SPDR = val;
 519               	.LM40:
 520 01b0 AEBD      		out 0x2e,r26
 521               	.L23:
  53:/Users/manueldeneu/Documents/projets/dev/Monu100/MicroController/MicMonu100/MicMonu100/Display.c ****     while (!(SPSR & (1 << SPIF)));
 523               	.LM41:
 524 01b2 0DB4      		in __tmp_reg__,0x2d
 525 01b4 07FE      		sbrs __tmp_reg__,7
 526 01b6 00C0      		rjmp .L23
 527               	.LBE109:
 528               	.LBE108:
 529               	.LBB110:
 530               	.LBB111:
  52:/Users/manueldeneu/Documents/projets/dev/Monu100/MicroController/MicMonu100/MicMonu100/Display.c ****     SPDR = val;
 532               	.LM42:
 533 01b8 4EBD      		out 0x2e,r20
 534               	.L25:
  53:/Users/manueldeneu/Documents/projets/dev/Monu100/MicroController/MicMonu100/MicMonu100/Display.c ****     while (!(SPSR & (1 << SPIF)));
 536               	.LM43:
 537 01ba 0DB4      		in __tmp_reg__,0x2d
 538 01bc 07FE      		sbrs __tmp_reg__,7
 539 01be 00C0      		rjmp .L25
 540               	.LBE111:
 541               	.LBE110:
 542               	.LBE101:
 114:/Users/manueldeneu/Documents/projets/dev/Monu100/MicroController/MicMonu100/MicMonu100/Display.c ****     for (int x = 15;x<28;x+=2)
 544               	.LM44:
 545 01c0 2E5F      		subi r18,-2
 546 01c2 3F4F      		sbci r19,-1
 547 01c4 2D31      		cpi r18,29
 548 01c6 3105      		cpc r19,__zero_reg__
 549 01c8 01F0      		breq .+2
 550 01ca 00C0      		rjmp .L27
 551 01cc 8091 0000 		lds r24,rowIndex.2428
 552 01d0 9091 0000 		lds r25,rowIndex.2428+1
 553 01d4 9927      		clr r25
 554               	.LBE100:
 555               	.LBB112:
 556               	.LBB113:
 557               	.LBB114:
  44:/Users/manueldeneu/Documents/projets/dev/Monu100/MicroController/MicMonu100/MicMonu100/Display.c ****     return _display.buff_text[x][y] +_display.buff_draw[x][y] ;
 559               	.LM45:
 560 01d6 8050      		subi r24,lo8(-(_display))
 561 01d8 9040      		sbci r25,hi8(-(_display))
 562 01da FC01      		movw r30,r24
 563 01dc E456      		subi r30,100
 564 01de FB4F      		sbci r31,-5
 565 01e0 DC01      		movw r26,r24
 566 01e2 AC5B      		subi r26,-68
 567 01e4 BD4F      		sbci r27,-3
 568 01e6 2081      		ld r18,Z
 569 01e8 8C91      		ld r24,X
 570 01ea 280F      		add r18,r24
 571               	.LBE114:
 572               	.LBE113:
 121:/Users/manueldeneu/Documents/projets/dev/Monu100/MicroController/MicMonu100/MicMonu100/Display.c ****         sendSPI( pixB ); // p2
 122:/Users/manueldeneu/Documents/projets/dev/Monu100/MicroController/MicMonu100/MicMonu100/Display.c ****     }
 123:/Users/manueldeneu/Documents/projets/dev/Monu100/MicroController/MicMonu100/MicMonu100/Display.c ****     
 124:/Users/manueldeneu/Documents/projets/dev/Monu100/MicroController/MicMonu100/MicMonu100/Display.c ****     // col 29 a la mano
 125:/Users/manueldeneu/Documents/projets/dev/Monu100/MicroController/MicMonu100/MicMonu100/Display.c ****     {
 126:/Users/manueldeneu/Documents/projets/dev/Monu100/MicroController/MicMonu100/MicMonu100/Display.c ****         const uint8_t p = getPixel(29,rowIndex);
 127:/Users/manueldeneu/Documents/projets/dev/Monu100/MicroController/MicMonu100/MicMonu100/Display.c ****     sendSPI(  p >> 4 ); // p15
 574               	.LM46:
 575 01ec 822F      		mov r24,r18
 576 01ee 8295      		swap r24
 577 01f0 8F70      		andi r24,lo8(15)
 578               	.LBB115:
 579               	.LBB116:
  52:/Users/manueldeneu/Documents/projets/dev/Monu100/MicroController/MicMonu100/MicMonu100/Display.c ****     SPDR = val;
 581               	.LM47:
 582 01f2 8EBD      		out 0x2e,r24
 583               	.L29:
  53:/Users/manueldeneu/Documents/projets/dev/Monu100/MicroController/MicMonu100/MicMonu100/Display.c ****     while (!(SPSR & (1 << SPIF)));
 585               	.LM48:
 586 01f4 0DB4      		in __tmp_reg__,0x2d
 587 01f6 07FE      		sbrs __tmp_reg__,7
 588 01f8 00C0      		rjmp .L29
 589               	.LBE116:
 590               	.LBE115:
 128:/Users/manueldeneu/Documents/projets/dev/Monu100/MicroController/MicMonu100/MicMonu100/Display.c ****     sendSPI(  p << 4 ); // p15
 592               	.LM49:
 593 01fa 2295      		swap r18
 594 01fc 207F      		andi r18,lo8(-16)
 595               	.LBB117:
 596               	.LBB118:
  52:/Users/manueldeneu/Documents/projets/dev/Monu100/MicroController/MicMonu100/MicMonu100/Display.c ****     SPDR = val;
 598               	.LM50:
 599 01fe 2EBD      		out 0x2e,r18
 600               	.L31:
  53:/Users/manueldeneu/Documents/projets/dev/Monu100/MicroController/MicMonu100/MicMonu100/Display.c ****     while (!(SPSR & (1 << SPIF)));
 602               	.LM51:
 603 0200 0DB4      		in __tmp_reg__,0x2d
 604 0202 07FE      		sbrs __tmp_reg__,7
 605 0204 00C0      		rjmp .L31
 606               	.LBE118:
 607               	.LBE117:
 608               	.LBE112:
 129:/Users/manueldeneu/Documents/projets/dev/Monu100/MicroController/MicMonu100/MicMonu100/Display.c ****     }
 130:/Users/manueldeneu/Documents/projets/dev/Monu100/MicroController/MicMonu100/MicMonu100/Display.c ****     /***** END OF FILL TLC BUFFERS ****/
 131:/Users/manueldeneu/Documents/projets/dev/Monu100/MicroController/MicMonu100/MicMonu100/Display.c ****     
 132:/Users/manueldeneu/Documents/projets/dev/Monu100/MicroController/MicMonu100/MicMonu100/Display.c ****     _display.isDrawing = 0;
 610               	.LM52:
 611 0206 1092 0000 		sts _display+1204,__zero_reg__
 133:/Users/manueldeneu/Documents/projets/dev/Monu100/MicroController/MicMonu100/MicMonu100/Display.c ****     
 134:/Users/manueldeneu/Documents/projets/dev/Monu100/MicroController/MicMonu100/MicMonu100/Display.c ****     xlatNeedsPulse = 1;
 613               	.LM53:
 614 020a 81E0      		ldi r24,lo8(1)
 615 020c 8093 0000 		sts xlatNeedsPulse.2430,r24
 135:/Users/manueldeneu/Documents/projets/dev/Monu100/MicroController/MicMonu100/MicMonu100/Display.c ****     
 136:/Users/manueldeneu/Documents/projets/dev/Monu100/MicroController/MicMonu100/MicMonu100/Display.c ****     pulse( MIC_CLOCK_PORT , MIC_CLOCK_PIN );
 617               	.LM54:
 618 0210 8091 0B01 		lds r24,267
 619 0214 8260      		ori r24,lo8(2)
 620 0216 8093 0B01 		sts 267,r24
 621 021a 8091 0B01 		lds r24,267
 622 021e 8D7F      		andi r24,lo8(-3)
 623 0220 8093 0B01 		sts 267,r24
 137:/Users/manueldeneu/Documents/projets/dev/Monu100/MicroController/MicMonu100/MicMonu100/Display.c ****     
 138:/Users/manueldeneu/Documents/projets/dev/Monu100/MicroController/MicMonu100/MicMonu100/Display.c ****     
 139:/Users/manueldeneu/Documents/projets/dev/Monu100/MicroController/MicMonu100/MicMonu100/Display.c ****     /**/
 140:/Users/manueldeneu/Documents/projets/dev/Monu100/MicroController/MicMonu100/MicMonu100/Display.c ****     // additionnal pulse for non-wired outs of mics.
 141:/Users/manueldeneu/Documents/projets/dev/Monu100/MicroController/MicMonu100/MicMonu100/Display.c ****     /*
 142:/Users/manueldeneu/Documents/projets/dev/Monu100/MicroController/MicMonu100/MicMonu100/Display.c ****     if ( (rowIndex == 15) ||
 143:/Users/manueldeneu/Documents/projets/dev/Monu100/MicroController/MicMonu100/MicMonu100/Display.c ****          (rowIndex == 22)
 144:/Users/manueldeneu/Documents/projets/dev/Monu100/MicroController/MicMonu100/MicMonu100/Display.c ****         )
 145:/Users/manueldeneu/Documents/projets/dev/Monu100/MicroController/MicMonu100/MicMonu100/Display.c ****     {
 146:/Users/manueldeneu/Documents/projets/dev/Monu100/MicroController/MicMonu100/MicMonu100/Display.c ****         setLow( DATA0_PORT , DATA0_PIN);
 147:/Users/manueldeneu/Documents/projets/dev/Monu100/MicroController/MicMonu100/MicMonu100/Display.c ****         setLow( DATA1_PORT , DATA1_PIN);
 148:/Users/manueldeneu/Documents/projets/dev/Monu100/MicroController/MicMonu100/MicMonu100/Display.c ****         
 149:/Users/manueldeneu/Documents/projets/dev/Monu100/MicroController/MicMonu100/MicMonu100/Display.c ****         pulse( MIC_CLOCK_PORT , MIC_CLOCK_PIN );
 150:/Users/manueldeneu/Documents/projets/dev/Monu100/MicroController/MicMonu100/MicMonu100/Display.c ****         
 151:/Users/manueldeneu/Documents/projets/dev/Monu100/MicroController/MicMonu100/MicMonu100/Display.c ****     }
 152:/Users/manueldeneu/Documents/projets/dev/Monu100/MicroController/MicMonu100/MicMonu100/Display.c ****     */
 153:/Users/manueldeneu/Documents/projets/dev/Monu100/MicroController/MicMonu100/MicMonu100/Display.c ****     /**/
 154:/Users/manueldeneu/Documents/projets/dev/Monu100/MicroController/MicMonu100/MicMonu100/Display.c ****     
 155:/Users/manueldeneu/Documents/projets/dev/Monu100/MicroController/MicMonu100/MicMonu100/Display.c ****     setHigh(BLANK_PORT, BLANK_PIN);
 625               	.LM55:
 626 0224 289A      		sbi 0x5,0
 156:/Users/manueldeneu/Documents/projets/dev/Monu100/MicroController/MicMonu100/MicMonu100/Display.c ****     
 157:/Users/manueldeneu/Documents/projets/dev/Monu100/MicroController/MicMonu100/MicMonu100/Display.c ****     
 158:/Users/manueldeneu/Documents/projets/dev/Monu100/MicroController/MicMonu100/MicMonu100/Display.c ****     if (xlatNeedsPulse)
 628               	.LM56:
 629 0226 8091 0000 		lds r24,xlatNeedsPulse.2430
 630 022a 8823      		tst r24
 631 022c 01F0      		breq .L32
 159:/Users/manueldeneu/Documents/projets/dev/Monu100/MicroController/MicMonu100/MicMonu100/Display.c ****     {
 160:/Users/manueldeneu/Documents/projets/dev/Monu100/MicroController/MicMonu100/MicMonu100/Display.c ****         pulse(XLAT_PORT, XLAT_PIN);
 633               	.LM57:
 634 022e 2D9A      		sbi 0x5,5
 635 0230 2D98      		cbi 0x5,5
 161:/Users/manueldeneu/Documents/projets/dev/Monu100/MicroController/MicMonu100/MicMonu100/Display.c ****         xlatNeedsPulse = 0;
 637               	.LM58:
 638 0232 1092 0000 		sts xlatNeedsPulse.2430,__zero_reg__
 639               	.L32:
 162:/Users/manueldeneu/Documents/projets/dev/Monu100/MicroController/MicMonu100/MicMonu100/Display.c ****         
 163:/Users/manueldeneu/Documents/projets/dev/Monu100/MicroController/MicMonu100/MicMonu100/Display.c ****         
 164:/Users/manueldeneu/Documents/projets/dev/Monu100/MicroController/MicMonu100/MicMonu100/Display.c ****     }
 165:/Users/manueldeneu/Documents/projets/dev/Monu100/MicroController/MicMonu100/MicMonu100/Display.c ****     
 166:/Users/manueldeneu/Documents/projets/dev/Monu100/MicroController/MicMonu100/MicMonu100/Display.c ****     if (firstCycleFlag)
 641               	.LM59:
 642 0236 8091 0000 		lds r24,firstCycleFlag.2429
 643 023a 8823      		tst r24
 644 023c 01F0      		breq .L33
 167:/Users/manueldeneu/Documents/projets/dev/Monu100/MicroController/MicMonu100/MicMonu100/Display.c ****     {
 168:/Users/manueldeneu/Documents/projets/dev/Monu100/MicroController/MicMonu100/MicMonu100/Display.c ****         pulse(SCLK_PORT, SCLK_PIN);
 646               	.LM60:
 647 023e 299A      		sbi 0x5,1
 648 0240 2998      		cbi 0x5,1
 169:/Users/manueldeneu/Documents/projets/dev/Monu100/MicroController/MicMonu100/MicMonu100/Display.c **** 
 170:/Users/manueldeneu/Documents/projets/dev/Monu100/MicroController/MicMonu100/MicMonu100/Display.c ****         firstCycleFlag = 0;
 650               	.LM61:
 651 0242 1092 0000 		sts firstCycleFlag.2429,__zero_reg__
 652               	.L33:
 171:/Users/manueldeneu/Documents/projets/dev/Monu100/MicroController/MicMonu100/MicMonu100/Display.c ****     }
 172:/Users/manueldeneu/Documents/projets/dev/Monu100/MicroController/MicMonu100/MicMonu100/Display.c **** 
 173:/Users/manueldeneu/Documents/projets/dev/Monu100/MicroController/MicMonu100/MicMonu100/Display.c **** 
 174:/Users/manueldeneu/Documents/projets/dev/Monu100/MicroController/MicMonu100/MicMonu100/Display.c ****     
 175:/Users/manueldeneu/Documents/projets/dev/Monu100/MicroController/MicMonu100/MicMonu100/Display.c ****     rowIndex++;
 654               	.LM62:
 655 0246 8091 0000 		lds r24,rowIndex.2428
 656 024a 9091 0000 		lds r25,rowIndex.2428+1
 657 024e 0196      		adiw r24,1
 658 0250 9093 0000 		sts rowIndex.2428+1,r25
 659 0254 8093 0000 		sts rowIndex.2428,r24
 660               	/* epilogue start */
 176:/Users/manueldeneu/Documents/projets/dev/Monu100/MicroController/MicMonu100/MicMonu100/Display.c ****     
 177:/Users/manueldeneu/Documents/projets/dev/Monu100/MicroController/MicMonu100/MicMonu100/Display.c **** 
 178:/Users/manueldeneu/Documents/projets/dev/Monu100/MicroController/MicMonu100/MicMonu100/Display.c ****     
 179:/Users/manueldeneu/Documents/projets/dev/Monu100/MicroController/MicMonu100/MicMonu100/Display.c **** }
 662               	.LM63:
 663 0258 FF91      		pop r31
 664 025a EF91      		pop r30
 665 025c CF91      		pop r28
 666 025e BF91      		pop r27
 667 0260 AF91      		pop r26
 668 0262 9F91      		pop r25
 669 0264 8F91      		pop r24
 670 0266 7F91      		pop r23
 671 0268 6F91      		pop r22
 672 026a 5F91      		pop r21
 673 026c 4F91      		pop r20
 674 026e 3F91      		pop r19
 675 0270 2F91      		pop r18
 676 0272 0F90      		pop r0
 677 0274 0BBE      		out __RAMPZ__,r0
 678 0276 0F90      		pop r0
 679 0278 0FBE      		out __SREG__,r0
 680 027a 0F90      		pop r0
 681 027c 1F90      		pop r1
 682 027e 1895      		reti
 695               	.Lscope3:
 697               	.global	TLC5940_Init
 699               	TLC5940_Init:
 180:/Users/manueldeneu/Documents/projets/dev/Monu100/MicroController/MicMonu100/MicMonu100/Display.c **** 
 181:/Users/manueldeneu/Documents/projets/dev/Monu100/MicroController/MicMonu100/MicMonu100/Display.c **** /* **** **** **** **** **** **** **** **** **** **** **** **** **** **** **** **** **** **** **** *
 182:/Users/manueldeneu/Documents/projets/dev/Monu100/MicroController/MicMonu100/MicMonu100/Display.c **** 
 183:/Users/manueldeneu/Documents/projets/dev/Monu100/MicroController/MicMonu100/MicMonu100/Display.c **** void TLC5940_Init(void)
 184:/Users/manueldeneu/Documents/projets/dev/Monu100/MicroController/MicMonu100/MicMonu100/Display.c **** {
 701               	.LM64:
 702               	.LFBB4:
 703               	/* prologue: function */
 704               	/* frame size = 0 */
 705               	/* stack size = 0 */
 706               	.L__stack_usage = 0
 185:/Users/manueldeneu/Documents/projets/dev/Monu100/MicroController/MicMonu100/MicMonu100/Display.c ****     // init MICs leds
 186:/Users/manueldeneu/Documents/projets/dev/Monu100/MicroController/MicMonu100/MicMonu100/Display.c ****     setOutput( DATA0_DDR , DATA0_PIN         ); // data row1
 708               	.LM65:
 709 0280 8091 0A01 		lds r24,266
 710 0284 8860      		ori r24,lo8(8)
 711 0286 8093 0A01 		sts 266,r24
 187:/Users/manueldeneu/Documents/projets/dev/Monu100/MicroController/MicMonu100/MicMonu100/Display.c ****     setOutput( DATA1_DDR , DATA1_PIN         ); // data row2
 713               	.LM66:
 714 028a 8091 0A01 		lds r24,266
 715 028e 8061      		ori r24,lo8(16)
 716 0290 8093 0A01 		sts 266,r24
 188:/Users/manueldeneu/Documents/projets/dev/Monu100/MicroController/MicMonu100/MicMonu100/Display.c ****     setOutput( MIC_CLOCK_DDR , MIC_CLOCK_PIN ); // clock
 718               	.LM67:
 719 0294 8091 0A01 		lds r24,266
 720 0298 8260      		ori r24,lo8(2)
 721 029a 8093 0A01 		sts 266,r24
 189:/Users/manueldeneu/Documents/projets/dev/Monu100/MicroController/MicMonu100/MicMonu100/Display.c ****     
 190:/Users/manueldeneu/Documents/projets/dev/Monu100/MicroController/MicMonu100/MicMonu100/Display.c ****     setOutput( MIC_STROBE_DDR , MIC_STROBE_PIN ); // strobe
 723               	.LM68:
 724 029e 8091 0A01 		lds r24,266
 725 02a2 8460      		ori r24,lo8(4)
 726 02a4 8093 0A01 		sts 266,r24
 191:/Users/manueldeneu/Documents/projets/dev/Monu100/MicroController/MicMonu100/MicMonu100/Display.c ****     
 192:/Users/manueldeneu/Documents/projets/dev/Monu100/MicroController/MicMonu100/MicMonu100/Display.c ****     setOutput( MIC_OUT_ENABLE_DDR , MIC_OUT_ENABLE_PIN ); // utile?
 728               	.LM69:
 729 02a8 8091 0A01 		lds r24,266
 730 02ac 8160      		ori r24,lo8(1)
 731 02ae 8093 0A01 		sts 266,r24
 193:/Users/manueldeneu/Documents/projets/dev/Monu100/MicroController/MicMonu100/MicMonu100/Display.c ****     
 194:/Users/manueldeneu/Documents/projets/dev/Monu100/MicroController/MicMonu100/MicMonu100/Display.c ****     
 195:/Users/manueldeneu/Documents/projets/dev/Monu100/MicroController/MicMonu100/MicMonu100/Display.c ****     setLow(MIC_OUT_ENABLE_PORT, MIC_OUT_ENABLE_PIN);
 733               	.LM70:
 734 02b2 8091 0B01 		lds r24,267
 735 02b6 8E7F      		andi r24,lo8(-2)
 736 02b8 8093 0B01 		sts 267,r24
 196:/Users/manueldeneu/Documents/projets/dev/Monu100/MicroController/MicMonu100/MicMonu100/Display.c ****     // reset mic buffers
 197:/Users/manueldeneu/Documents/projets/dev/Monu100/MicroController/MicMonu100/MicMonu100/Display.c ****     
 198:/Users/manueldeneu/Documents/projets/dev/Monu100/MicroController/MicMonu100/MicMonu100/Display.c ****     
 199:/Users/manueldeneu/Documents/projets/dev/Monu100/MicroController/MicMonu100/MicMonu100/Display.c ****     setLow( DATA0_PORT , DATA0_PIN); // val 0 prévue -> pulse après écrit la valeur dans le buff
 738               	.LM71:
 739 02bc 8091 0B01 		lds r24,267
 740 02c0 877F      		andi r24,lo8(-9)
 741 02c2 8093 0B01 		sts 267,r24
 200:/Users/manueldeneu/Documents/projets/dev/Monu100/MicroController/MicMonu100/MicMonu100/Display.c ****     setLow( DATA1_PORT , DATA1_PIN);
 743               	.LM72:
 744 02c6 8091 0B01 		lds r24,267
 745 02ca 8F7E      		andi r24,lo8(-17)
 746 02cc 8093 0B01 		sts 267,r24
 747 02d0 84E1      		ldi r24,lo8(20)
 748 02d2 90E0      		ldi r25,0
 749               	.L43:
 750               	.LBB119:
 201:/Users/manueldeneu/Documents/projets/dev/Monu100/MicroController/MicMonu100/MicMonu100/Display.c ****     
 202:/Users/manueldeneu/Documents/projets/dev/Monu100/MicroController/MicMonu100/MicMonu100/Display.c ****     for (int i=0; i< Y_MIC_MAX ; i++)
 203:/Users/manueldeneu/Documents/projets/dev/Monu100/MicroController/MicMonu100/MicMonu100/Display.c ****     {
 204:/Users/manueldeneu/Documents/projets/dev/Monu100/MicroController/MicMonu100/MicMonu100/Display.c ****         pulse( MIC_CLOCK_PORT , MIC_CLOCK_PIN );
 752               	.LM73:
 753 02d4 2091 0B01 		lds r18,267
 754 02d8 2260      		ori r18,lo8(2)
 755 02da 2093 0B01 		sts 267,r18
 756 02de 2091 0B01 		lds r18,267
 757 02e2 2D7F      		andi r18,lo8(-3)
 758 02e4 2093 0B01 		sts 267,r18
 759 02e8 0197      		sbiw r24,1
 202:/Users/manueldeneu/Documents/projets/dev/Monu100/MicroController/MicMonu100/MicMonu100/Display.c ****     for (int i=0; i< Y_MIC_MAX ; i++)
 761               	.LM74:
 762 02ea 0097      		sbiw r24,0
 763 02ec 01F4      		brne .L43
 764               	.LBE119:
 205:/Users/manueldeneu/Documents/projets/dev/Monu100/MicroController/MicMonu100/MicMonu100/Display.c ****         
 206:/Users/manueldeneu/Documents/projets/dev/Monu100/MicroController/MicMonu100/MicMonu100/Display.c ****     }
 207:/Users/manueldeneu/Documents/projets/dev/Monu100/MicroController/MicMonu100/MicMonu100/Display.c ****     
 208:/Users/manueldeneu/Documents/projets/dev/Monu100/MicroController/MicMonu100/MicMonu100/Display.c ****     setHigh( MIC_STROBE_PORT , MIC_STROBE_PIN ); // strobe mic leds
 766               	.LM75:
 767 02ee 8091 0B01 		lds r24,267
 768 02f2 8460      		ori r24,lo8(4)
 769 02f4 8093 0B01 		sts 267,r24
 209:/Users/manueldeneu/Documents/projets/dev/Monu100/MicroController/MicMonu100/MicMonu100/Display.c **** 
 210:/Users/manueldeneu/Documents/projets/dev/Monu100/MicroController/MicMonu100/MicMonu100/Display.c ****     
 211:/Users/manueldeneu/Documents/projets/dev/Monu100/MicroController/MicMonu100/MicMonu100/Display.c ****     setOutput(SCLK_DDR, SCLK_PIN);
 771               	.LM76:
 772 02f8 219A      		sbi 0x4,1
 212:/Users/manueldeneu/Documents/projets/dev/Monu100/MicroController/MicMonu100/MicMonu100/Display.c ****     
 213:/Users/manueldeneu/Documents/projets/dev/Monu100/MicroController/MicMonu100/MicMonu100/Display.c ****     setOutput(XLAT_DDR, XLAT_PIN);
 774               	.LM77:
 775 02fa 259A      		sbi 0x4,5
 214:/Users/manueldeneu/Documents/projets/dev/Monu100/MicroController/MicMonu100/MicMonu100/Display.c ****     setOutput(BLANK_DDR, BLANK_PIN);
 777               	.LM78:
 778 02fc 209A      		sbi 0x4,0
 215:/Users/manueldeneu/Documents/projets/dev/Monu100/MicroController/MicMonu100/MicMonu100/Display.c ****     setOutput(SIN_DDR, SIN_PIN);
 780               	.LM79:
 781 02fe 229A      		sbi 0x4,2
 216:/Users/manueldeneu/Documents/projets/dev/Monu100/MicroController/MicMonu100/MicMonu100/Display.c ****     
 217:/Users/manueldeneu/Documents/projets/dev/Monu100/MicroController/MicMonu100/MicMonu100/Display.c ****     setLow(SCLK_PORT, SCLK_PIN);
 783               	.LM80:
 784 0300 2998      		cbi 0x5,1
 218:/Users/manueldeneu/Documents/projets/dev/Monu100/MicroController/MicMonu100/MicMonu100/Display.c ****     
 219:/Users/manueldeneu/Documents/projets/dev/Monu100/MicroController/MicMonu100/MicMonu100/Display.c ****     setLow(XLAT_PORT, XLAT_PIN);
 786               	.LM81:
 787 0302 2D98      		cbi 0x5,5
 220:/Users/manueldeneu/Documents/projets/dev/Monu100/MicroController/MicMonu100/MicMonu100/Display.c ****     
 221:/Users/manueldeneu/Documents/projets/dev/Monu100/MicroController/MicMonu100/MicMonu100/Display.c ****     setHigh(BLANK_PORT, BLANK_PIN);
 789               	.LM82:
 790 0304 289A      		sbi 0x5,0
 222:/Users/manueldeneu/Documents/projets/dev/Monu100/MicroController/MicMonu100/MicMonu100/Display.c ****     
 223:/Users/manueldeneu/Documents/projets/dev/Monu100/MicroController/MicMonu100/MicMonu100/Display.c ****     // Enable SPI, Master, set clock rate fck/2
 224:/Users/manueldeneu/Documents/projets/dev/Monu100/MicroController/MicMonu100/MicMonu100/Display.c ****     SPCR = (1 << SPE) | (1 << MSTR);
 792               	.LM83:
 793 0306 80E5      		ldi r24,lo8(80)
 794 0308 8CBD      		out 0x2c,r24
 225:/Users/manueldeneu/Documents/projets/dev/Monu100/MicroController/MicMonu100/MicMonu100/Display.c ****     SPSR = (1 << SPI2X);
 796               	.LM84:
 797 030a 81E0      		ldi r24,lo8(1)
 798 030c 8DBD      		out 0x2d,r24
 226:/Users/manueldeneu/Documents/projets/dev/Monu100/MicroController/MicMonu100/MicMonu100/Display.c ****     
 227:/Users/manueldeneu/Documents/projets/dev/Monu100/MicroController/MicMonu100/MicMonu100/Display.c ****     // CTC with OCR0A as TOP
 228:/Users/manueldeneu/Documents/projets/dev/Monu100/MicroController/MicMonu100/MicMonu100/Display.c ****     TCCR0A = (1 << WGM01);
 800               	.LM85:
 801 030e 82E0      		ldi r24,lo8(2)
 802 0310 84BD      		out 0x24,r24
 229:/Users/manueldeneu/Documents/projets/dev/Monu100/MicroController/MicMonu100/MicMonu100/Display.c ****     // clk_io/1024 (From prescaler)
 230:/Users/manueldeneu/Documents/projets/dev/Monu100/MicroController/MicMonu100/MicMonu100/Display.c ****     TCCR0B = ((1 << CS02) | (1 << CS00));
 804               	.LM86:
 805 0312 85E0      		ldi r24,lo8(5)
 806 0314 85BD      		out 0x25,r24
 231:/Users/manueldeneu/Documents/projets/dev/Monu100/MicroController/MicMonu100/MicMonu100/Display.c ****     // Generate an interrupt every 4096 clock cycles
 232:/Users/manueldeneu/Documents/projets/dev/Monu100/MicroController/MicMonu100/MicMonu100/Display.c ****     OCR0A = 3; // 3
 808               	.LM87:
 809 0316 83E0      		ldi r24,lo8(3)
 810 0318 87BD      		out 0x27,r24
 233:/Users/manueldeneu/Documents/projets/dev/Monu100/MicroController/MicMonu100/MicMonu100/Display.c ****     // Enable Timer/Counter0 Compare Match A interrupt
 234:/Users/manueldeneu/Documents/projets/dev/Monu100/MicroController/MicMonu100/MicMonu100/Display.c ****     TIMSK0 |= (1 << OCIE0A);
 812               	.LM88:
 813 031a 8091 6E00 		lds r24,110
 814 031e 8260      		ori r24,lo8(2)
 815 0320 8093 6E00 		sts 110,r24
 816 0324 0895      		ret
 818               	.Lscope4:
 822               	.global	display_setFontColor
 824               	display_setFontColor:
 235:/Users/manueldeneu/Documents/projets/dev/Monu100/MicroController/MicMonu100/MicMonu100/Display.c **** }
 236:/Users/manueldeneu/Documents/projets/dev/Monu100/MicroController/MicMonu100/MicMonu100/Display.c **** 
 237:/Users/manueldeneu/Documents/projets/dev/Monu100/MicroController/MicMonu100/MicMonu100/Display.c **** 
 238:/Users/manueldeneu/Documents/projets/dev/Monu100/MicroController/MicMonu100/MicMonu100/Display.c **** /* **** **** **** **** **** **** **** **** **** **** **** **** **** **** **** **** **** **** **** *
 239:/Users/manueldeneu/Documents/projets/dev/Monu100/MicroController/MicMonu100/MicMonu100/Display.c **** /* **** **** **** **** **** **** **** **** **** **** **** **** **** **** **** **** **** **** **** *
 240:/Users/manueldeneu/Documents/projets/dev/Monu100/MicroController/MicMonu100/MicMonu100/Display.c **** 
 241:/Users/manueldeneu/Documents/projets/dev/Monu100/MicroController/MicMonu100/MicMonu100/Display.c **** 
 242:/Users/manueldeneu/Documents/projets/dev/Monu100/MicroController/MicMonu100/MicMonu100/Display.c **** 
 243:/Users/manueldeneu/Documents/projets/dev/Monu100/MicroController/MicMonu100/MicMonu100/Display.c **** void display_init( Display *display)
 244:/Users/manueldeneu/Documents/projets/dev/Monu100/MicroController/MicMonu100/MicMonu100/Display.c **** {
 245:/Users/manueldeneu/Documents/projets/dev/Monu100/MicroController/MicMonu100/MicMonu100/Display.c ****     display_clearAll( display);
 246:/Users/manueldeneu/Documents/projets/dev/Monu100/MicroController/MicMonu100/MicMonu100/Display.c **** 
 247:/Users/manueldeneu/Documents/projets/dev/Monu100/MicroController/MicMonu100/MicMonu100/Display.c **** 
 248:/Users/manueldeneu/Documents/projets/dev/Monu100/MicroController/MicMonu100/MicMonu100/Display.c ****     
 249:/Users/manueldeneu/Documents/projets/dev/Monu100/MicroController/MicMonu100/MicMonu100/Display.c ****     display->backgroundColor = 0b00000000;
 250:/Users/manueldeneu/Documents/projets/dev/Monu100/MicroController/MicMonu100/MicMonu100/Display.c ****     display->fontColor = PIXEL_MAX_VALUE;
 251:/Users/manueldeneu/Documents/projets/dev/Monu100/MicroController/MicMonu100/MicMonu100/Display.c ****     display->fillColor = PIXEL_MAX_VALUE;
 252:/Users/manueldeneu/Documents/projets/dev/Monu100/MicroController/MicMonu100/MicMonu100/Display.c ****     
 253:/Users/manueldeneu/Documents/projets/dev/Monu100/MicroController/MicMonu100/MicMonu100/Display.c ****     display->isDrawing = 0;
 254:/Users/manueldeneu/Documents/projets/dev/Monu100/MicroController/MicMonu100/MicMonu100/Display.c ****     
 255:/Users/manueldeneu/Documents/projets/dev/Monu100/MicroController/MicMonu100/MicMonu100/Display.c ****     TLC5940_Init();    
 256:/Users/manueldeneu/Documents/projets/dev/Monu100/MicroController/MicMonu100/MicMonu100/Display.c **** }
 257:/Users/manueldeneu/Documents/projets/dev/Monu100/MicroController/MicMonu100/MicMonu100/Display.c **** 
 258:/Users/manueldeneu/Documents/projets/dev/Monu100/MicroController/MicMonu100/MicMonu100/Display.c **** /* **** **** **** **** **** **** **** **** **** **** **** **** **** **** **** **** **** **** **** *
 259:/Users/manueldeneu/Documents/projets/dev/Monu100/MicroController/MicMonu100/MicMonu100/Display.c **** 
 260:/Users/manueldeneu/Documents/projets/dev/Monu100/MicroController/MicMonu100/MicMonu100/Display.c **** void display_setFontColor( Display *display ,uint8_t color)
 261:/Users/manueldeneu/Documents/projets/dev/Monu100/MicroController/MicMonu100/MicMonu100/Display.c **** {
 826               	.LM89:
 827               	.LFBB5:
 828               	/* prologue: function */
 829               	/* frame size = 0 */
 830               	/* stack size = 0 */
 831               	.L__stack_usage = 0
 262:/Users/manueldeneu/Documents/projets/dev/Monu100/MicroController/MicMonu100/MicMonu100/Display.c ****     display->fontColor = clipVal(color);
 833               	.LM90:
 834 0326 8E54      		subi r24,78
 835 0328 9B4F      		sbci r25,-5
 836               	.LBB120:
 837               	.LBB121:
  39:/Users/manueldeneu/Documents/projets/dev/Monu100/MicroController/MicMonu100/MicMonu100/Display.c ****     return val>=PIXEL_MAX_VALUE ? PIXEL_MAX_VALUE : val;
 839               	.LM91:
 840 032a 6536      		cpi r22,lo8(101)
 841 032c 00F0      		brlo .L45
 842 032e 64E6      		ldi r22,lo8(100)
 843               	.L45:
 844               	.LBE121:
 845               	.LBE120:
 847               	.LM92:
 848 0330 FC01      		movw r30,r24
 849 0332 6083      		st Z,r22
 850 0334 0895      		ret
 852               	.Lscope5:
 856               	.global	display_setFillColor
 858               	display_setFillColor:
 263:/Users/manueldeneu/Documents/projets/dev/Monu100/MicroController/MicMonu100/MicMonu100/Display.c **** }
 264:/Users/manueldeneu/Documents/projets/dev/Monu100/MicroController/MicMonu100/MicMonu100/Display.c **** 
 265:/Users/manueldeneu/Documents/projets/dev/Monu100/MicroController/MicMonu100/MicMonu100/Display.c **** void display_setFillColor( Display *display ,uint8_t color)
 266:/Users/manueldeneu/Documents/projets/dev/Monu100/MicroController/MicMonu100/MicMonu100/Display.c **** {
 860               	.LM93:
 861               	.LFBB6:
 862               	/* prologue: function */
 863               	/* frame size = 0 */
 864               	/* stack size = 0 */
 865               	.L__stack_usage = 0
 267:/Users/manueldeneu/Documents/projets/dev/Monu100/MicroController/MicMonu100/MicMonu100/Display.c ****     display->fillColor = clipVal( color);
 867               	.LM94:
 868 0336 8F54      		subi r24,79
 869 0338 9B4F      		sbci r25,-5
 870               	.LBB122:
 871               	.LBB123:
  39:/Users/manueldeneu/Documents/projets/dev/Monu100/MicroController/MicMonu100/MicMonu100/Display.c ****     return val>=PIXEL_MAX_VALUE ? PIXEL_MAX_VALUE : val;
 873               	.LM95:
 874 033a 6536      		cpi r22,lo8(101)
 875 033c 00F0      		brlo .L47
 876 033e 64E6      		ldi r22,lo8(100)
 877               	.L47:
 878               	.LBE123:
 879               	.LBE122:
 881               	.LM96:
 882 0340 FC01      		movw r30,r24
 883 0342 6083      		st Z,r22
 884 0344 0895      		ret
 886               	.Lscope6:
 893               	.global	display_clearZoneDraw
 895               	display_clearZoneDraw:
 268:/Users/manueldeneu/Documents/projets/dev/Monu100/MicroController/MicMonu100/MicMonu100/Display.c **** }
 269:/Users/manueldeneu/Documents/projets/dev/Monu100/MicroController/MicMonu100/MicMonu100/Display.c **** 
 270:/Users/manueldeneu/Documents/projets/dev/Monu100/MicroController/MicMonu100/MicMonu100/Display.c **** /* **** **** **** **** **** **** **** **** **** **** **** **** **** **** **** **** **** **** **** *
 271:/Users/manueldeneu/Documents/projets/dev/Monu100/MicroController/MicMonu100/MicMonu100/Display.c **** 
 272:/Users/manueldeneu/Documents/projets/dev/Monu100/MicroController/MicMonu100/MicMonu100/Display.c **** 
 273:/Users/manueldeneu/Documents/projets/dev/Monu100/MicroController/MicMonu100/MicMonu100/Display.c **** void display_clearZoneDraw     ( Display *display , const int8_t x , const int8_t y, const uint8_t 
 274:/Users/manueldeneu/Documents/projets/dev/Monu100/MicroController/MicMonu100/MicMonu100/Display.c **** {
 897               	.LM97:
 898               	.LFBB7:
 899 0346 0F93      		push r16
 900 0348 CF93      		push r28
 901 034a DF93      		push r29
 902               	/* prologue: function */
 903               	/* frame size = 0 */
 904               	/* stack size = 3 */
 905               	.L__stack_usage = 3
 906 034c 260F      		add r18,r22
 907 034e 040F      		add r16,r20
 908               	.LBB124:
 909               	.LBB125:
 910               	.LBB126:
 275:/Users/manueldeneu/Documents/projets/dev/Monu100/MicroController/MicMonu100/MicMonu100/Display.c ****     for (uint8_t xx=0; xx< w; xx++)
 276:/Users/manueldeneu/Documents/projets/dev/Monu100/MicroController/MicMonu100/MicMonu100/Display.c ****         
 277:/Users/manueldeneu/Documents/projets/dev/Monu100/MicroController/MicMonu100/MicMonu100/Display.c ****         for (uint8_t yy=0; yy<h; yy++)
 278:/Users/manueldeneu/Documents/projets/dev/Monu100/MicroController/MicMonu100/MicMonu100/Display.c ****         {
 279:/Users/manueldeneu/Documents/projets/dev/Monu100/MicroController/MicMonu100/MicMonu100/Display.c ****             const int8_t defX =x+xx;
 280:/Users/manueldeneu/Documents/projets/dev/Monu100/MicroController/MicMonu100/MicMonu100/Display.c ****             const int8_t defY =y+yy;
 281:/Users/manueldeneu/Documents/projets/dev/Monu100/MicroController/MicMonu100/MicMonu100/Display.c ****             
 282:/Users/manueldeneu/Documents/projets/dev/Monu100/MicroController/MicMonu100/MicMonu100/Display.c ****             if( inBouds(defX, defY) )
 283:/Users/manueldeneu/Documents/projets/dev/Monu100/MicroController/MicMonu100/MicMonu100/Display.c ****             {
 284:/Users/manueldeneu/Documents/projets/dev/Monu100/MicroController/MicMonu100/MicMonu100/Display.c ****                 display->buff_draw[defX][defY] = display->backgroundColor;
 912               	.LM98:
 913 0350 54E1      		ldi r21,lo8(20)
 914 0352 EC01      		movw r28,r24
 915 0354 C055      		subi r28,80
 916 0356 DB4F      		sbci r29,-5
 917               	.L49:
 918               	.LBE126:
 919               	.LBE125:
 275:/Users/manueldeneu/Documents/projets/dev/Monu100/MicroController/MicMonu100/MicMonu100/Display.c ****     for (uint8_t xx=0; xx< w; xx++)
 921               	.LM99:
 922 0358 6217      		cp r22,r18
 923 035a 01F0      		breq .L48
 924 035c 342F      		mov r19,r20
 925               	.LBB131:
 926               	.LBB129:
 928               	.LM100:
 929 035e 6503      		mulsu r22,r21
 930 0360 F001      		movw r30,r0
 931 0362 1124      		clr __zero_reg__
 932 0364 E80F      		add r30,r24
 933 0366 F91F      		adc r31,r25
 934               	.L55:
 935               	.LBE129:
 277:/Users/manueldeneu/Documents/projets/dev/Monu100/MicroController/MicMonu100/MicMonu100/Display.c ****         for (uint8_t yy=0; yy<h; yy++)
 937               	.LM101:
 938 0368 3017      		cp r19,r16
 939 036a 01F0      		breq .L60
 940               	.LBB130:
 941               	.LBB127:
 942               	.LBB128:
 944               	.Ltext1:
   1:/Users/manueldeneu/Documents/projets/dev/Monu100/MicroController/MicMonu100/MicMonu100/Display.h **** //
   2:/Users/manueldeneu/Documents/projets/dev/Monu100/MicroController/MicMonu100/MicMonu100/Display.h **** //  Display.h
   3:/Users/manueldeneu/Documents/projets/dev/Monu100/MicroController/MicMonu100/MicMonu100/Display.h **** //  MicMonu100
   4:/Users/manueldeneu/Documents/projets/dev/Monu100/MicroController/MicMonu100/MicMonu100/Display.h **** //
   5:/Users/manueldeneu/Documents/projets/dev/Monu100/MicroController/MicMonu100/MicMonu100/Display.h **** //  Created by Manuel Deneu on 01/03/15.
   6:/Users/manueldeneu/Documents/projets/dev/Monu100/MicroController/MicMonu100/MicMonu100/Display.h **** //  Copyright (c) 2015 Manuel Deneu. All rights reserved.
   7:/Users/manueldeneu/Documents/projets/dev/Monu100/MicroController/MicMonu100/MicMonu100/Display.h **** //
   8:/Users/manueldeneu/Documents/projets/dev/Monu100/MicroController/MicMonu100/MicMonu100/Display.h **** 
   9:/Users/manueldeneu/Documents/projets/dev/Monu100/MicroController/MicMonu100/MicMonu100/Display.h **** #ifndef MicMonu100_Display_h
  10:/Users/manueldeneu/Documents/projets/dev/Monu100/MicroController/MicMonu100/MicMonu100/Display.h **** #define MicMonu100_Display_h
  11:/Users/manueldeneu/Documents/projets/dev/Monu100/MicroController/MicMonu100/MicMonu100/Display.h **** 
  12:/Users/manueldeneu/Documents/projets/dev/Monu100/MicroController/MicMonu100/MicMonu100/Display.h **** 
  13:/Users/manueldeneu/Documents/projets/dev/Monu100/MicroController/MicMonu100/MicMonu100/Display.h **** #define X_TLC_MAX 30
  14:/Users/manueldeneu/Documents/projets/dev/Monu100/MicroController/MicMonu100/MicMonu100/Display.h **** #define Y_MIC_MAX 20
  15:/Users/manueldeneu/Documents/projets/dev/Monu100/MicroController/MicMonu100/MicMonu100/Display.h **** 
  16:/Users/manueldeneu/Documents/projets/dev/Monu100/MicroController/MicMonu100/MicMonu100/Display.h **** #define PIXEL_MAX_VALUE  100 //112
  17:/Users/manueldeneu/Documents/projets/dev/Monu100/MicroController/MicMonu100/MicMonu100/Display.h **** 
  18:/Users/manueldeneu/Documents/projets/dev/Monu100/MicroController/MicMonu100/MicMonu100/Display.h **** 
  19:/Users/manueldeneu/Documents/projets/dev/Monu100/MicroController/MicMonu100/MicMonu100/Display.h **** 
  20:/Users/manueldeneu/Documents/projets/dev/Monu100/MicroController/MicMonu100/MicMonu100/Display.h **** 
  21:/Users/manueldeneu/Documents/projets/dev/Monu100/MicroController/MicMonu100/MicMonu100/Display.h **** /* **** **** **** **** **** **** **** **** **** **** **** */
  22:/Users/manueldeneu/Documents/projets/dev/Monu100/MicroController/MicMonu100/MicMonu100/Display.h **** /*
  23:/Users/manueldeneu/Documents/projets/dev/Monu100/MicroController/MicMonu100/MicMonu100/Display.h ****  
  24:/Users/manueldeneu/Documents/projets/dev/Monu100/MicroController/MicMonu100/MicMonu100/Display.h ****  inversion x<->y entre le buffer et la matrice :
  25:/Users/manueldeneu/Documents/projets/dev/Monu100/MicroController/MicMonu100/MicMonu100/Display.h ****     Pour l'instant l'inversion est compensée dans l'interface ( fonctions display_*** )
  26:/Users/manueldeneu/Documents/projets/dev/Monu100/MicroController/MicMonu100/MicMonu100/Display.h ****  */
  27:/Users/manueldeneu/Documents/projets/dev/Monu100/MicroController/MicMonu100/MicMonu100/Display.h **** struct _Display
  28:/Users/manueldeneu/Documents/projets/dev/Monu100/MicroController/MicMonu100/MicMonu100/Display.h **** {
  29:/Users/manueldeneu/Documents/projets/dev/Monu100/MicroController/MicMonu100/MicMonu100/Display.h ****     uint8_t buff_text[ X_TLC_MAX ][ Y_MIC_MAX ];
  30:/Users/manueldeneu/Documents/projets/dev/Monu100/MicroController/MicMonu100/MicMonu100/Display.h ****     uint8_t buff_draw[ X_TLC_MAX ][ Y_MIC_MAX ];
  31:/Users/manueldeneu/Documents/projets/dev/Monu100/MicroController/MicMonu100/MicMonu100/Display.h **** 
  32:/Users/manueldeneu/Documents/projets/dev/Monu100/MicroController/MicMonu100/MicMonu100/Display.h **** 
  33:/Users/manueldeneu/Documents/projets/dev/Monu100/MicroController/MicMonu100/MicMonu100/Display.h **** 
  34:/Users/manueldeneu/Documents/projets/dev/Monu100/MicroController/MicMonu100/MicMonu100/Display.h ****     /* This color will be used when clearing the display */
  35:/Users/manueldeneu/Documents/projets/dev/Monu100/MicroController/MicMonu100/MicMonu100/Display.h ****     uint8_t backgroundColor;
  36:/Users/manueldeneu/Documents/projets/dev/Monu100/MicroController/MicMonu100/MicMonu100/Display.h ****     uint8_t fillColor;
  37:/Users/manueldeneu/Documents/projets/dev/Monu100/MicroController/MicMonu100/MicMonu100/Display.h ****     uint8_t fontColor;
  38:/Users/manueldeneu/Documents/projets/dev/Monu100/MicroController/MicMonu100/MicMonu100/Display.h ****     
  39:/Users/manueldeneu/Documents/projets/dev/Monu100/MicroController/MicMonu100/MicMonu100/Display.h ****     
  40:/Users/manueldeneu/Documents/projets/dev/Monu100/MicroController/MicMonu100/MicMonu100/Display.h ****     uint8_t needsDisplay; // byte 0
  41:/Users/manueldeneu/Documents/projets/dev/Monu100/MicroController/MicMonu100/MicMonu100/Display.h ****     
  42:/Users/manueldeneu/Documents/projets/dev/Monu100/MicroController/MicMonu100/MicMonu100/Display.h ****     /* This flag will be set to 1 during the drawing interupt */
  43:/Users/manueldeneu/Documents/projets/dev/Monu100/MicroController/MicMonu100/MicMonu100/Display.h ****     volatile uint8_t isDrawing;
  44:/Users/manueldeneu/Documents/projets/dev/Monu100/MicroController/MicMonu100/MicMonu100/Display.h ****     
  45:/Users/manueldeneu/Documents/projets/dev/Monu100/MicroController/MicMonu100/MicMonu100/Display.h **** };
  46:/Users/manueldeneu/Documents/projets/dev/Monu100/MicroController/MicMonu100/MicMonu100/Display.h **** 
  47:/Users/manueldeneu/Documents/projets/dev/Monu100/MicroController/MicMonu100/MicMonu100/Display.h **** typedef struct _Display Display;
  48:/Users/manueldeneu/Documents/projets/dev/Monu100/MicroController/MicMonu100/MicMonu100/Display.h **** 
  49:/Users/manueldeneu/Documents/projets/dev/Monu100/MicroController/MicMonu100/MicMonu100/Display.h **** /* **** **** **** **** **** **** **** **** **** **** **** **** **** */
  50:/Users/manueldeneu/Documents/projets/dev/Monu100/MicroController/MicMonu100/MicMonu100/Display.h **** 
  51:/Users/manueldeneu/Documents/projets/dev/Monu100/MicroController/MicMonu100/MicMonu100/Display.h **** inline uint8_t inBouds( int8_t x , int8_t y)
  52:/Users/manueldeneu/Documents/projets/dev/Monu100/MicroController/MicMonu100/MicMonu100/Display.h **** {
  53:/Users/manueldeneu/Documents/projets/dev/Monu100/MicroController/MicMonu100/MicMonu100/Display.h ****     return    ( x >=0 && x <X_TLC_MAX )
  54:/Users/manueldeneu/Documents/projets/dev/Monu100/MicroController/MicMonu100/MicMonu100/Display.h ****            && ( y >=0 && y <Y_MIC_MAX );
 946               	.LM102:
 947 036c 6E31      		cpi r22,lo8(30)
 948 036e 00F4      		brsh .L52
 949 0370 A1E0      		ldi r26,lo8(1)
 950 0372 B0E0      		ldi r27,0
 951 0374 3431      		cpi r19,lo8(20)
 952 0376 00F0      		brlo .L51
 953 0378 A0E0      		ldi r26,0
 954 037a B0E0      		ldi r27,0
 955               	.L51:
 956               	.LBE128:
 957               	.LBE127:
 959               	.Ltext2:
 282:/Users/manueldeneu/Documents/projets/dev/Monu100/MicroController/MicMonu100/MicMonu100/Display.c ****             if( inBouds(defX, defY) )
 961               	.LM103:
 962 037c AB2B      		or r26,r27
 963 037e 01F0      		breq .L52
 965               	.LM104:
 966 0380 DF01      		movw r26,r30
 967 0382 A30F      		add r26,r19
 968 0384 B11D      		adc r27,__zero_reg__
 969 0386 37FD      		sbrc r19,7
 970 0388 BA95      		dec r27
 971 038a A85A      		subi r26,-88
 972 038c BD4F      		sbci r27,-3
 973 038e 7881      		ld r23,Y
 974 0390 7C93      		st X,r23
 975               	.L52:
 976 0392 3F5F      		subi r19,lo8(-(1))
 977 0394 00C0      		rjmp .L55
 978               	.L60:
 979 0396 6F5F      		subi r22,lo8(-(1))
 980 0398 00C0      		rjmp .L49
 981               	.L48:
 982               	/* epilogue start */
 983               	.LBE130:
 984               	.LBE131:
 985               	.LBE124:
 285:/Users/manueldeneu/Documents/projets/dev/Monu100/MicroController/MicMonu100/MicMonu100/Display.c ****             }
 286:/Users/manueldeneu/Documents/projets/dev/Monu100/MicroController/MicMonu100/MicMonu100/Display.c ****         }
 287:/Users/manueldeneu/Documents/projets/dev/Monu100/MicroController/MicMonu100/MicMonu100/Display.c **** }
 987               	.LM105:
 988 039a DF91      		pop r29
 989 039c CF91      		pop r28
 990 039e 0F91      		pop r16
 991 03a0 0895      		ret
 993               	.Lscope7:
 1000               	.global	display_clearZoneText
 1002               	display_clearZoneText:
 288:/Users/manueldeneu/Documents/projets/dev/Monu100/MicroController/MicMonu100/MicMonu100/Display.c **** 
 289:/Users/manueldeneu/Documents/projets/dev/Monu100/MicroController/MicMonu100/MicMonu100/Display.c **** void display_clearZoneText     ( Display *display , const int8_t x , const int8_t y, const uint8_t 
 290:/Users/manueldeneu/Documents/projets/dev/Monu100/MicroController/MicMonu100/MicMonu100/Display.c **** {
 1004               	.LM106:
 1005               	.LFBB8:
 1006 03a2 0F93      		push r16
 1007 03a4 CF93      		push r28
 1008 03a6 DF93      		push r29
 1009               	/* prologue: function */
 1010               	/* frame size = 0 */
 1011               	/* stack size = 3 */
 1012               	.L__stack_usage = 3
 1013 03a8 260F      		add r18,r22
 1014 03aa 040F      		add r16,r20
 1015               	.LBB132:
 1016               	.LBB133:
 1017               	.LBB134:
 291:/Users/manueldeneu/Documents/projets/dev/Monu100/MicroController/MicMonu100/MicMonu100/Display.c ****     for (uint8_t xx=0; xx< w; xx++)
 292:/Users/manueldeneu/Documents/projets/dev/Monu100/MicroController/MicMonu100/MicMonu100/Display.c ****         
 293:/Users/manueldeneu/Documents/projets/dev/Monu100/MicroController/MicMonu100/MicMonu100/Display.c ****         for (uint8_t yy=0; yy<h; yy++)
 294:/Users/manueldeneu/Documents/projets/dev/Monu100/MicroController/MicMonu100/MicMonu100/Display.c ****         {
 295:/Users/manueldeneu/Documents/projets/dev/Monu100/MicroController/MicMonu100/MicMonu100/Display.c ****             const int8_t defX =x+xx;
 296:/Users/manueldeneu/Documents/projets/dev/Monu100/MicroController/MicMonu100/MicMonu100/Display.c ****             const int8_t defY =y+yy;
 297:/Users/manueldeneu/Documents/projets/dev/Monu100/MicroController/MicMonu100/MicMonu100/Display.c ****             
 298:/Users/manueldeneu/Documents/projets/dev/Monu100/MicroController/MicMonu100/MicMonu100/Display.c ****             if( inBouds(defX, defY) )
 299:/Users/manueldeneu/Documents/projets/dev/Monu100/MicroController/MicMonu100/MicMonu100/Display.c ****             {
 300:/Users/manueldeneu/Documents/projets/dev/Monu100/MicroController/MicMonu100/MicMonu100/Display.c ****                 display->buff_text[defX][defY] = display->backgroundColor;
 1019               	.LM107:
 1020 03ac 54E1      		ldi r21,lo8(20)
 1021 03ae EC01      		movw r28,r24
 1022 03b0 C055      		subi r28,80
 1023 03b2 DB4F      		sbci r29,-5
 1024               	.L62:
 1025               	.LBE134:
 1026               	.LBE133:
 291:/Users/manueldeneu/Documents/projets/dev/Monu100/MicroController/MicMonu100/MicMonu100/Display.c ****     for (uint8_t xx=0; xx< w; xx++)
 1028               	.LM108:
 1029 03b4 6217      		cp r22,r18
 1030 03b6 01F0      		breq .L61
 1031 03b8 342F      		mov r19,r20
 1032               	.LBB139:
 1033               	.LBB137:
 1035               	.LM109:
 1036 03ba 6503      		mulsu r22,r21
 1037 03bc D001      		movw r26,r0
 1038 03be 1124      		clr __zero_reg__
 1039               	.L68:
 1040               	.LBE137:
 293:/Users/manueldeneu/Documents/projets/dev/Monu100/MicroController/MicMonu100/MicMonu100/Display.c ****         for (uint8_t yy=0; yy<h; yy++)
 1042               	.LM110:
 1043 03c0 3017      		cp r19,r16
 1044 03c2 01F0      		breq .L73
 1045               	.LBB138:
 1046               	.LBB135:
 1047               	.LBB136:
 1049               	.Ltext3:
 1051               	.LM111:
 1052 03c4 6E31      		cpi r22,lo8(30)
 1053 03c6 00F4      		brsh .L65
 1054 03c8 E1E0      		ldi r30,lo8(1)
 1055 03ca F0E0      		ldi r31,0
 1056 03cc 3431      		cpi r19,lo8(20)
 1057 03ce 00F0      		brlo .L64
 1058 03d0 E0E0      		ldi r30,0
 1059 03d2 F0E0      		ldi r31,0
 1060               	.L64:
 1061               	.LBE136:
 1062               	.LBE135:
 1064               	.Ltext4:
 298:/Users/manueldeneu/Documents/projets/dev/Monu100/MicroController/MicMonu100/MicMonu100/Display.c ****             if( inBouds(defX, defY) )
 1066               	.LM112:
 1067 03d4 EF2B      		or r30,r31
 1068 03d6 01F0      		breq .L65
 1070               	.LM113:
 1071 03d8 FD01      		movw r30,r26
 1072 03da E30F      		add r30,r19
 1073 03dc F11D      		adc r31,__zero_reg__
 1074 03de 37FD      		sbrc r19,7
 1075 03e0 FA95      		dec r31
 1076 03e2 E80F      		add r30,r24
 1077 03e4 F91F      		adc r31,r25
 1078 03e6 7881      		ld r23,Y
 1079 03e8 7083      		st Z,r23
 1080               	.L65:
 1081 03ea 3F5F      		subi r19,lo8(-(1))
 1082 03ec 00C0      		rjmp .L68
 1083               	.L73:
 1084 03ee 6F5F      		subi r22,lo8(-(1))
 1085 03f0 00C0      		rjmp .L62
 1086               	.L61:
 1087               	/* epilogue start */
 1088               	.LBE138:
 1089               	.LBE139:
 1090               	.LBE132:
 301:/Users/manueldeneu/Documents/projets/dev/Monu100/MicroController/MicMonu100/MicMonu100/Display.c ****             }
 302:/Users/manueldeneu/Documents/projets/dev/Monu100/MicroController/MicMonu100/MicMonu100/Display.c ****         }
 303:/Users/manueldeneu/Documents/projets/dev/Monu100/MicroController/MicMonu100/MicMonu100/Display.c **** }
 1092               	.LM114:
 1093 03f2 DF91      		pop r29
 1094 03f4 CF91      		pop r28
 1095 03f6 0F91      		pop r16
 1096 03f8 0895      		ret
 1098               	.Lscope8:
 1101               	.global	display_init
 1103               	display_init:
 244:/Users/manueldeneu/Documents/projets/dev/Monu100/MicroController/MicMonu100/MicMonu100/Display.c **** {
 1105               	.LM115:
 1106               	.LFBB9:
 1107 03fa 0F93      		push r16
 1108 03fc CF93      		push r28
 1109 03fe DF93      		push r29
 1110               	/* prologue: function */
 1111               	/* frame size = 0 */
 1112               	/* stack size = 3 */
 1113               	.L__stack_usage = 3
 1114 0400 EC01      		movw r28,r24
 1115               	.LBB140:
 1116               	.LBB141:
 1118               	.Ltext5:
  55:/Users/manueldeneu/Documents/projets/dev/Monu100/MicroController/MicMonu100/MicMonu100/Display.h **** }
  56:/Users/manueldeneu/Documents/projets/dev/Monu100/MicroController/MicMonu100/MicMonu100/Display.h **** 
  57:/Users/manueldeneu/Documents/projets/dev/Monu100/MicroController/MicMonu100/MicMonu100/Display.h **** //uint8_t strLen( const char *s);
  58:/Users/manueldeneu/Documents/projets/dev/Monu100/MicroController/MicMonu100/MicMonu100/Display.h **** 
  59:/Users/manueldeneu/Documents/projets/dev/Monu100/MicroController/MicMonu100/MicMonu100/Display.h **** uint8_t getCharWidth( void );
  60:/Users/manueldeneu/Documents/projets/dev/Monu100/MicroController/MicMonu100/MicMonu100/Display.h **** uint8_t getCharHeight( void );
  61:/Users/manueldeneu/Documents/projets/dev/Monu100/MicroController/MicMonu100/MicMonu100/Display.h **** 
  62:/Users/manueldeneu/Documents/projets/dev/Monu100/MicroController/MicMonu100/MicMonu100/Display.h **** void update(void);
  63:/Users/manueldeneu/Documents/projets/dev/Monu100/MicroController/MicMonu100/MicMonu100/Display.h **** /* **** **** **** **** **** **** **** **** **** **** **** **** **** */
  64:/Users/manueldeneu/Documents/projets/dev/Monu100/MicroController/MicMonu100/MicMonu100/Display.h **** 
  65:/Users/manueldeneu/Documents/projets/dev/Monu100/MicroController/MicMonu100/MicMonu100/Display.h **** void display_init( Display *display);
  66:/Users/manueldeneu/Documents/projets/dev/Monu100/MicroController/MicMonu100/MicMonu100/Display.h **** 
  67:/Users/manueldeneu/Documents/projets/dev/Monu100/MicroController/MicMonu100/MicMonu100/Display.h **** /* getters/setters */
  68:/Users/manueldeneu/Documents/projets/dev/Monu100/MicroController/MicMonu100/MicMonu100/Display.h **** 
  69:/Users/manueldeneu/Documents/projets/dev/Monu100/MicroController/MicMonu100/MicMonu100/Display.h **** void display_setFontColor( Display *display ,uint8_t color);
  70:/Users/manueldeneu/Documents/projets/dev/Monu100/MicroController/MicMonu100/MicMonu100/Display.h **** void display_setFillColor( Display *display ,uint8_t color);
  71:/Users/manueldeneu/Documents/projets/dev/Monu100/MicroController/MicMonu100/MicMonu100/Display.h **** 
  72:/Users/manueldeneu/Documents/projets/dev/Monu100/MicroController/MicMonu100/MicMonu100/Display.h **** // inv x<->y
  73:/Users/manueldeneu/Documents/projets/dev/Monu100/MicroController/MicMonu100/MicMonu100/Display.h **** void display_clearZoneDraw     ( Display *display , const int8_t x , const int8_t y, const uint8_t 
  74:/Users/manueldeneu/Documents/projets/dev/Monu100/MicroController/MicMonu100/MicMonu100/Display.h **** void display_clearZoneText     ( Display *display , const int8_t x , const int8_t y, const uint8_t 
  75:/Users/manueldeneu/Documents/projets/dev/Monu100/MicroController/MicMonu100/MicMonu100/Display.h **** 
  76:/Users/manueldeneu/Documents/projets/dev/Monu100/MicroController/MicMonu100/MicMonu100/Display.h **** inline void display_clearAll         ( Display *display)
  77:/Users/manueldeneu/Documents/projets/dev/Monu100/MicroController/MicMonu100/MicMonu100/Display.h **** {
  78:/Users/manueldeneu/Documents/projets/dev/Monu100/MicroController/MicMonu100/MicMonu100/Display.h ****     display_clearZoneDraw( display ,0,0 , X_TLC_MAX ,Y_MIC_MAX  );
 1120               	.LM116:
 1121 0402 04E1      		ldi r16,lo8(20)
 1122 0404 2EE1      		ldi r18,lo8(30)
 1123 0406 40E0      		ldi r20,0
 1124 0408 60E0      		ldi r22,0
 1125 040a 0E94 0000 		call display_clearZoneDraw
  79:/Users/manueldeneu/Documents/projets/dev/Monu100/MicroController/MicMonu100/MicMonu100/Display.h ****     display_clearZoneText( display ,0,0 , X_TLC_MAX ,Y_MIC_MAX  );
 1127               	.LM117:
 1128 040e 2EE1      		ldi r18,lo8(30)
 1129 0410 40E0      		ldi r20,0
 1130 0412 60E0      		ldi r22,0
 1131 0414 CE01      		movw r24,r28
 1132 0416 0E94 0000 		call display_clearZoneText
 1133               	.LBE141:
 1134               	.LBE140:
 1136               	.Ltext6:
 249:/Users/manueldeneu/Documents/projets/dev/Monu100/MicroController/MicMonu100/MicMonu100/Display.c ****     display->backgroundColor = 0b00000000;
 1138               	.LM118:
 1139 041a FE01      		movw r30,r28
 1140 041c E055      		subi r30,80
 1141 041e FB4F      		sbci r31,-5
 1142 0420 1082      		st Z,__zero_reg__
 250:/Users/manueldeneu/Documents/projets/dev/Monu100/MicroController/MicMonu100/MicMonu100/Display.c ****     display->fontColor = PIXEL_MAX_VALUE;
 1144               	.LM119:
 1145 0422 3296      		adiw r30,2
 1146 0424 84E6      		ldi r24,lo8(100)
 1147 0426 8083      		st Z,r24
 251:/Users/manueldeneu/Documents/projets/dev/Monu100/MicroController/MicMonu100/MicMonu100/Display.c ****     display->fillColor = PIXEL_MAX_VALUE;
 1149               	.LM120:
 1150 0428 3197      		sbiw r30,1
 1151 042a 8083      		st Z,r24
 253:/Users/manueldeneu/Documents/projets/dev/Monu100/MicroController/MicMonu100/MicMonu100/Display.c ****     display->isDrawing = 0;
 1153               	.LM121:
 1154 042c CC54      		subi r28,76
 1155 042e DB4F      		sbci r29,-5
 1156 0430 1882      		st Y,__zero_reg__
 1157               	/* epilogue start */
 256:/Users/manueldeneu/Documents/projets/dev/Monu100/MicroController/MicMonu100/MicMonu100/Display.c **** }
 1159               	.LM122:
 1160 0432 DF91      		pop r29
 1161 0434 CF91      		pop r28
 1162 0436 0F91      		pop r16
 255:/Users/manueldeneu/Documents/projets/dev/Monu100/MicroController/MicMonu100/MicMonu100/Display.c ****     TLC5940_Init();    
 1164               	.LM123:
 1165 0438 0C94 0000 		jmp TLC5940_Init
 1167               	.Lscope9:
 1172               	.global	display_translate
 1174               	display_translate:
 304:/Users/manueldeneu/Documents/projets/dev/Monu100/MicroController/MicMonu100/MicMonu100/Display.c **** 
 305:/Users/manueldeneu/Documents/projets/dev/Monu100/MicroController/MicMonu100/MicMonu100/Display.c **** 
 306:/Users/manueldeneu/Documents/projets/dev/Monu100/MicroController/MicMonu100/MicMonu100/Display.c **** /* **** **** **** **** **** **** **** **** **** **** **** **** **** **** **** **** **** **** **** *
 307:/Users/manueldeneu/Documents/projets/dev/Monu100/MicroController/MicMonu100/MicMonu100/Display.c **** 
 308:/Users/manueldeneu/Documents/projets/dev/Monu100/MicroController/MicMonu100/MicMonu100/Display.c **** void display_translate( Display *display , int8_t dX , int8_t dY)
 309:/Users/manueldeneu/Documents/projets/dev/Monu100/MicroController/MicMonu100/MicMonu100/Display.c **** {
 1176               	.LM124:
 1177               	.LFBB10:
 1178               	/* prologue: function */
 1179               	/* frame size = 0 */
 1180               	/* stack size = 0 */
 1181               	.L__stack_usage = 0
 1182 043c 0895      		ret
 1184               	.Lscope10:
 1191               	.global	display_write
 1193               	display_write:
 310:/Users/manueldeneu/Documents/projets/dev/Monu100/MicroController/MicMonu100/MicMonu100/Display.c ****     
 311:/Users/manueldeneu/Documents/projets/dev/Monu100/MicroController/MicMonu100/MicMonu100/Display.c **** }
 312:/Users/manueldeneu/Documents/projets/dev/Monu100/MicroController/MicMonu100/MicMonu100/Display.c **** 
 313:/Users/manueldeneu/Documents/projets/dev/Monu100/MicroController/MicMonu100/MicMonu100/Display.c **** /* **** **** **** **** **** **** **** **** **** **** **** **** **** **** **** **** **** **** **** *
 314:/Users/manueldeneu/Documents/projets/dev/Monu100/MicroController/MicMonu100/MicMonu100/Display.c **** 
 315:/Users/manueldeneu/Documents/projets/dev/Monu100/MicroController/MicMonu100/MicMonu100/Display.c **** void display_write(Display *display , const char* text, int8_t x , int8_t y ,
 316:/Users/manueldeneu/Documents/projets/dev/Monu100/MicroController/MicMonu100/MicMonu100/Display.c ****                    uint8_t dir /* 0 : hori , 1 : verti*/,
 317:/Users/manueldeneu/Documents/projets/dev/Monu100/MicroController/MicMonu100/MicMonu100/Display.c ****                    uint8_t mask /* 0 : none , 1 left , 2 right*/)
 318:/Users/manueldeneu/Documents/projets/dev/Monu100/MicroController/MicMonu100/MicMonu100/Display.c **** {
 1195               	.LM125:
 1196               	.LFBB11:
 1198               	.LM126:
 1199 043e 2F92      		push r2
 1200 0440 3F92      		push r3
 1201 0442 4F92      		push r4
 1202 0444 5F92      		push r5
 1203 0446 6F92      		push r6
 1204 0448 7F92      		push r7
 1205 044a 8F92      		push r8
 1206 044c 9F92      		push r9
 1207 044e AF92      		push r10
 1208 0450 BF92      		push r11
 1209 0452 CF92      		push r12
 1210 0454 DF92      		push r13
 1211 0456 EF92      		push r14
 1212 0458 FF92      		push r15
 1213 045a 0F93      		push r16
 1214 045c 1F93      		push r17
 1215 045e CF93      		push r28
 1216 0460 DF93      		push r29
 1217 0462 00D0      		rcall .
 1218 0464 1F92      		push __zero_reg__
 1219 0466 CDB7      		in r28,__SP_L__
 1220 0468 DEB7      		in r29,__SP_H__
 1221               	/* prologue: function */
 1222               	/* frame size = 4 */
 1223               	/* stack size = 22 */
 1224               	.L__stack_usage = 22
 1225 046a EC82      		std Y+4,r14
 1226 046c 1B01      		movw r2,r22
 319:/Users/manueldeneu/Documents/projets/dev/Monu100/MicroController/MicMonu100/MicMonu100/Display.c ****     // inv x<->y
 320:/Users/manueldeneu/Documents/projets/dev/Monu100/MicroController/MicMonu100/MicMonu100/Display.c ****     int i =0;
 321:/Users/manueldeneu/Documents/projets/dev/Monu100/MicroController/MicMonu100/MicMonu100/Display.c ****     
 322:/Users/manueldeneu/Documents/projets/dev/Monu100/MicroController/MicMonu100/MicMonu100/Display.c ****     
 323:/Users/manueldeneu/Documents/projets/dev/Monu100/MicroController/MicMonu100/MicMonu100/Display.c ****     int8_t xx =y;
 324:/Users/manueldeneu/Documents/projets/dev/Monu100/MicroController/MicMonu100/MicMonu100/Display.c ****     int8_t yy =x;
 1228               	.LM127:
 1229 046e 342F      		mov r19,r20
 1230 0470 77E0      		ldi r23,lo8(7)
 1231 0472 472E      		mov r4,r23
 1232 0474 512C      		mov r5,__zero_reg__
 1233               	.LBB142:
 1234               	.LBB143:
 1235               	.LBB144:
 1236               	.LBB145:
 325:/Users/manueldeneu/Documents/projets/dev/Monu100/MicroController/MicMonu100/MicMonu100/Display.c ****     
 326:/Users/manueldeneu/Documents/projets/dev/Monu100/MicroController/MicMonu100/MicMonu100/Display.c ****     while ( text[i] != '\0' )
 327:/Users/manueldeneu/Documents/projets/dev/Monu100/MicroController/MicMonu100/MicMonu100/Display.c ****     {
 328:/Users/manueldeneu/Documents/projets/dev/Monu100/MicroController/MicMonu100/MicMonu100/Display.c ****         if ( !dir && ( text[i] == '\n' ) )
 329:/Users/manueldeneu/Documents/projets/dev/Monu100/MicroController/MicMonu100/MicMonu100/Display.c ****         {
 330:/Users/manueldeneu/Documents/projets/dev/Monu100/MicroController/MicMonu100/MicMonu100/Display.c ****             xx+= CHAR_HEIGHT;
 331:/Users/manueldeneu/Documents/projets/dev/Monu100/MicroController/MicMonu100/MicMonu100/Display.c ****             yy = x;
 332:/Users/manueldeneu/Documents/projets/dev/Monu100/MicroController/MicMonu100/MicMonu100/Display.c ****         }
 333:/Users/manueldeneu/Documents/projets/dev/Monu100/MicroController/MicMonu100/MicMonu100/Display.c ****         
 334:/Users/manueldeneu/Documents/projets/dev/Monu100/MicroController/MicMonu100/MicMonu100/Display.c ****         else if ( text[i] == ' ' )
 335:/Users/manueldeneu/Documents/projets/dev/Monu100/MicroController/MicMonu100/MicMonu100/Display.c ****         {
 336:/Users/manueldeneu/Documents/projets/dev/Monu100/MicroController/MicMonu100/MicMonu100/Display.c ****             if (!dir)
 337:/Users/manueldeneu/Documents/projets/dev/Monu100/MicroController/MicMonu100/MicMonu100/Display.c ****                 yy+=CHAR_WIDTH;
 338:/Users/manueldeneu/Documents/projets/dev/Monu100/MicroController/MicMonu100/MicMonu100/Display.c ****             else
 339:/Users/manueldeneu/Documents/projets/dev/Monu100/MicroController/MicMonu100/MicMonu100/Display.c ****                 xx+=CHAR_HEIGHT;
 340:/Users/manueldeneu/Documents/projets/dev/Monu100/MicroController/MicMonu100/MicMonu100/Display.c ****         }
 341:/Users/manueldeneu/Documents/projets/dev/Monu100/MicroController/MicMonu100/MicMonu100/Display.c ****         
 342:/Users/manueldeneu/Documents/projets/dev/Monu100/MicroController/MicMonu100/MicMonu100/Display.c ****         else
 343:/Users/manueldeneu/Documents/projets/dev/Monu100/MicroController/MicMonu100/MicMonu100/Display.c ****         {
 344:/Users/manueldeneu/Documents/projets/dev/Monu100/MicroController/MicMonu100/MicMonu100/Display.c ****             const Glyphe* ch = getChar( text[i] );
 345:/Users/manueldeneu/Documents/projets/dev/Monu100/MicroController/MicMonu100/MicMonu100/Display.c ****             const uint8_t* buf = ch->buf;
 346:/Users/manueldeneu/Documents/projets/dev/Monu100/MicroController/MicMonu100/MicMonu100/Display.c ****             
 347:/Users/manueldeneu/Documents/projets/dev/Monu100/MicroController/MicMonu100/MicMonu100/Display.c ****             for (int i= 0;i<CHAR_HEIGHT ;i++)
 348:/Users/manueldeneu/Documents/projets/dev/Monu100/MicroController/MicMonu100/MicMonu100/Display.c ****             {
 349:/Users/manueldeneu/Documents/projets/dev/Monu100/MicroController/MicMonu100/MicMonu100/Display.c ****                 
 350:/Users/manueldeneu/Documents/projets/dev/Monu100/MicroController/MicMonu100/MicMonu100/Display.c ****                 for (int j= 0;j<ch->advance ;j++)
 351:/Users/manueldeneu/Documents/projets/dev/Monu100/MicroController/MicMonu100/MicMonu100/Display.c ****                 {
 352:/Users/manueldeneu/Documents/projets/dev/Monu100/MicroController/MicMonu100/MicMonu100/Display.c ****                     if ( buf[i] & (1<<(7-j) ))
 353:/Users/manueldeneu/Documents/projets/dev/Monu100/MicroController/MicMonu100/MicMonu100/Display.c ****                     {
 354:/Users/manueldeneu/Documents/projets/dev/Monu100/MicroController/MicMonu100/MicMonu100/Display.c ****                         const int8_t defX = xx+i;
 355:/Users/manueldeneu/Documents/projets/dev/Monu100/MicroController/MicMonu100/MicMonu100/Display.c ****                         const int8_t defY = yy+j;
 356:/Users/manueldeneu/Documents/projets/dev/Monu100/MicroController/MicMonu100/MicMonu100/Display.c ****                         
 357:/Users/manueldeneu/Documents/projets/dev/Monu100/MicroController/MicMonu100/MicMonu100/Display.c ****                         // ][ Y_MIC_MAX
 358:/Users/manueldeneu/Documents/projets/dev/Monu100/MicroController/MicMonu100/MicMonu100/Display.c ****                         if( inBouds(defX, defY) )
 359:/Users/manueldeneu/Documents/projets/dev/Monu100/MicroController/MicMonu100/MicMonu100/Display.c ****                         {
 360:/Users/manueldeneu/Documents/projets/dev/Monu100/MicroController/MicMonu100/MicMonu100/Display.c ****                             if (    (mask == 0)
 361:/Users/manueldeneu/Documents/projets/dev/Monu100/MicroController/MicMonu100/MicMonu100/Display.c ****                                 || ((mask == 1 ) && (j<4))
 362:/Users/manueldeneu/Documents/projets/dev/Monu100/MicroController/MicMonu100/MicMonu100/Display.c ****                                 || ((mask == 2 ) && (j>3))
 363:/Users/manueldeneu/Documents/projets/dev/Monu100/MicroController/MicMonu100/MicMonu100/Display.c ****                                 )
 364:/Users/manueldeneu/Documents/projets/dev/Monu100/MicroController/MicMonu100/MicMonu100/Display.c ****                                 display->buff_text[ defX ][ defY ] = display->fontColor;
 1238               	.LM128:
 1239 0476 6C01      		movw r12,r24
 1240 0478 1EE4      		ldi r17,78
 1241 047a C11A      		sub r12,r17
 1242 047c 1BEF      		ldi r17,-5
 1243 047e D10A      		sbc r13,r17
 1244               	.L77:
 1245               	.LBE145:
 1246               	.LBE144:
 1247               	.LBE143:
 1248               	.LBE142:
 326:/Users/manueldeneu/Documents/projets/dev/Monu100/MicroController/MicMonu100/MicMonu100/Display.c ****     while ( text[i] != '\0' )
 1250               	.LM129:
 1251 0480 D101      		movw r26,r2
 1252 0482 ED91      		ld r30,X+
 1253 0484 1D01      		movw r2,r26
 1254 0486 EE23      		tst r30
 1255 0488 01F4      		brne .+2
 1256 048a 00C0      		rjmp .L108
 328:/Users/manueldeneu/Documents/projets/dev/Monu100/MicroController/MicMonu100/MicMonu100/Display.c ****         if ( !dir && ( text[i] == '\n' ) )
 1258               	.LM130:
 1259 048c 0111      		cpse r16,__zero_reg__
 1260 048e 00C0      		rjmp .L78
 328:/Users/manueldeneu/Documents/projets/dev/Monu100/MicroController/MicMonu100/MicMonu100/Display.c ****         if ( !dir && ( text[i] == '\n' ) )
 1262               	.LM131:
 1263 0490 EA30      		cpi r30,lo8(10)
 1264 0492 01F4      		brne .L79
 330:/Users/manueldeneu/Documents/projets/dev/Monu100/MicroController/MicMonu100/MicMonu100/Display.c ****             xx+= CHAR_HEIGHT;
 1266               	.LM132:
 1267 0494 265F      		subi r18,lo8(-(10))
 331:/Users/manueldeneu/Documents/projets/dev/Monu100/MicroController/MicMonu100/MicMonu100/Display.c ****             yy = x;
 1269               	.LM133:
 1270 0496 342F      		mov r19,r20
 1271 0498 00C0      		rjmp .L77
 1272               	.L79:
 334:/Users/manueldeneu/Documents/projets/dev/Monu100/MicroController/MicMonu100/MicMonu100/Display.c ****         else if ( text[i] == ' ' )
 1274               	.LM134:
 1275 049a E032      		cpi r30,lo8(32)
 1276 049c 01F4      		brne .L94
 337:/Users/manueldeneu/Documents/projets/dev/Monu100/MicroController/MicMonu100/MicMonu100/Display.c ****                 yy+=CHAR_WIDTH;
 1278               	.LM135:
 1279 049e 385F      		subi r19,lo8(-(8))
 1280 04a0 00C0      		rjmp .L77
 1281               	.L78:
 334:/Users/manueldeneu/Documents/projets/dev/Monu100/MicroController/MicMonu100/MicMonu100/Display.c ****         else if ( text[i] == ' ' )
 1283               	.LM136:
 1284 04a2 E032      		cpi r30,lo8(32)
 1285 04a4 01F4      		brne .+2
 1286 04a6 00C0      		rjmp .L91
 1287               	.L94:
 1288 04a8 E053      		subi r30,lo8(-(-48))
 1289 04aa EB34      		cpi r30,lo8(75)
 1290 04ac 00F4      		brsh .L96
 1291 04ae F0E0      		ldi r31,0
 1292 04b0 EE0F      		lsl r30
 1293 04b2 FF1F      		rol r31
 1294 04b4 E050      		subi r30,lo8(-(CSWTCH.29))
 1295 04b6 F040      		sbci r31,hi8(-(CSWTCH.29))
 1296 04b8 6081      		ld r22,Z
 1297 04ba 7181      		ldd r23,Z+1
 1298 04bc 7B83      		std Y+3,r23
 1299 04be 6A83      		std Y+2,r22
 1300 04c0 00C0      		rjmp .L81
 1301               	.L96:
 318:/Users/manueldeneu/Documents/projets/dev/Monu100/MicroController/MicMonu100/MicMonu100/Display.c **** {
 1303               	.LM137:
 1304 04c2 A0E0      		ldi r26,lo8(c_NULL)
 1305 04c4 B0E0      		ldi r27,hi8(c_NULL)
 1306 04c6 BB83      		std Y+3,r27
 1307 04c8 AA83      		std Y+2,r26
 1308               	.L81:
 1309               	.LBB154:
 1310               	.LBB153:
 347:/Users/manueldeneu/Documents/projets/dev/Monu100/MicroController/MicMonu100/MicMonu100/Display.c ****             for (int i= 0;i<CHAR_HEIGHT ;i++)
 1312               	.LM138:
 1313 04ca E0E0      		ldi r30,0
 1314 04cc F0E0      		ldi r31,0
 1315               	.L82:
 1316               	.LBB152:
 1317               	.LBB150:
 1318               	.LBB146:
 1319               	.LBB147:
 1321               	.Ltext7:
  54:/Users/manueldeneu/Documents/projets/dev/Monu100/MicroController/MicMonu100/MicMonu100/Display.h ****            && ( y >=0 && y <Y_MIC_MAX );
 1323               	.LM139:
 1324 04ce 60E0      		ldi r22,0
 1325 04d0 70E0      		ldi r23,0
 1326 04d2 8A80      		ldd r8,Y+2
 1327 04d4 9B80      		ldd r9,Y+3
 1328 04d6 8E0E      		add r8,r30
 1329 04d8 9F1E      		adc r9,r31
 1330 04da B22F      		mov r27,r18
 1331 04dc BE0F      		add r27,r30
 1332 04de B983      		std Y+1,r27
 1333               	.LBE147:
 1334               	.LBE146:
 1336               	.Ltext8:
 1338               	.LM140:
 1339 04e0 14E1      		ldi r17,lo8(20)
 1340 04e2 5B2F      		mov r21,r27
 1341 04e4 5103      		mulsu r21,r17
 1342 04e6 5001      		movw r10,r0
 1343 04e8 1124      		clr __zero_reg__
 1344               	.L90:
 1345               	.LBE150:
 350:/Users/manueldeneu/Documents/projets/dev/Monu100/MicroController/MicMonu100/MicMonu100/Display.c ****                 for (int j= 0;j<ch->advance ;j++)
 1347               	.LM141:
 1348 04ea AA81      		ldd r26,Y+2
 1349 04ec BB81      		ldd r27,Y+3
 1350 04ee 1A96      		adiw r26,10
 1351 04f0 7C90      		ld r7,X
 1352 04f2 E72C      		mov r14,r7
 1353 04f4 F12C      		mov r15,__zero_reg__
 1354 04f6 6E15      		cp r22,r14
 1355 04f8 7F05      		cpc r23,r15
 1356 04fa 04F4      		brge .L109
 352:/Users/manueldeneu/Documents/projets/dev/Monu100/MicroController/MicMonu100/MicMonu100/Display.c ****                     if ( buf[i] & (1<<(7-j) ))
 1358               	.LM142:
 1359 04fc D401      		movw r26,r8
 1360 04fe EC90      		ld r14,X
 1361 0500 F12C      		mov r15,__zero_reg__
 1362 0502 3201      		movw r6,r4
 1363 0504 661A      		sub r6,r22
 1364 0506 770A      		sbc r7,r23
 1365 0508 00C0      		rjmp 2f
 1366               		1:
 1367 050a F594      		asr r15
 1368 050c E794      		ror r14
 1369               		2:
 1370 050e 6A94      		dec r6
 1371 0510 02F4      		brpl 1b
 1372 0512 E0FE      		sbrs r14,0
 1373 0514 00C0      		rjmp .L83
 1374               	.LBB151:
 1375               	.LBB149:
 1376               	.LBB148:
 1378               	.Ltext9:
  54:/Users/manueldeneu/Documents/projets/dev/Monu100/MicroController/MicMonu100/MicMonu100/Display.h ****            && ( y >=0 && y <Y_MIC_MAX );
 1380               	.LM143:
 1381 0516 B981      		ldd r27,Y+1
 1382 0518 BE31      		cpi r27,lo8(30)
 1383 051a 00F4      		brsh .L83
 1384 051c 732E      		mov r7,r19
 1385 051e 760E      		add r7,r22
 1386 0520 EE24      		clr r14
 1387 0522 E394      		inc r14
 1388 0524 F12C      		mov r15,__zero_reg__
 1389 0526 13E1      		ldi r17,lo8(19)
 1390 0528 1715      		cp r17,r7
 1391 052a 00F4      		brsh .L85
 1392 052c E12C      		mov r14,__zero_reg__
 1393 052e F12C      		mov r15,__zero_reg__
 1394               	.L85:
 1395               	.LBE148:
 1396               	.LBE149:
 1398               	.Ltext10:
 358:/Users/manueldeneu/Documents/projets/dev/Monu100/MicroController/MicMonu100/MicMonu100/Display.c ****                         if( inBouds(defX, defY) )
 1400               	.LM144:
 1401 0530 EF28      		or r14,r15
 1402 0532 01F0      		breq .L83
 360:/Users/manueldeneu/Documents/projets/dev/Monu100/MicroController/MicMonu100/MicMonu100/Display.c ****                             if (    (mask == 0)
 1404               	.LM145:
 1405 0534 5C81      		ldd r21,Y+4
 1406 0536 5523      		tst r21
 1407 0538 01F0      		breq .L86
 361:/Users/manueldeneu/Documents/projets/dev/Monu100/MicroController/MicMonu100/MicMonu100/Display.c ****                                 || ((mask == 1 ) && (j<4))
 1409               	.LM146:
 1410 053a 5130      		cpi r21,lo8(1)
 1411 053c 01F4      		brne .L87
 361:/Users/manueldeneu/Documents/projets/dev/Monu100/MicroController/MicMonu100/MicMonu100/Display.c ****                                 || ((mask == 1 ) && (j<4))
 1413               	.LM147:
 1414 053e 6430      		cpi r22,4
 1415 0540 7105      		cpc r23,__zero_reg__
 1416 0542 04F0      		brlt .L86
 1417 0544 00C0      		rjmp .L83
 1418               	.L87:
 362:/Users/manueldeneu/Documents/projets/dev/Monu100/MicroController/MicMonu100/MicMonu100/Display.c ****                                 || ((mask == 2 ) && (j>3))
 1420               	.LM148:
 1421 0546 AC81      		ldd r26,Y+4
 1422 0548 A230      		cpi r26,lo8(2)
 1423 054a 01F4      		brne .L83
 362:/Users/manueldeneu/Documents/projets/dev/Monu100/MicroController/MicMonu100/MicMonu100/Display.c ****                                 || ((mask == 2 ) && (j>3))
 1425               	.LM149:
 1426 054c 6430      		cpi r22,4
 1427 054e 7105      		cpc r23,__zero_reg__
 1428 0550 04F0      		brlt .L83
 1429               	.L86:
 1431               	.LM150:
 1432 0552 7501      		movw r14,r10
 1433 0554 E70C      		add r14,r7
 1434 0556 F11C      		adc r15,__zero_reg__
 1435 0558 77FC      		sbrc r7,7
 1436 055a FA94      		dec r15
 1437 055c E80E      		add r14,r24
 1438 055e F91E      		adc r15,r25
 1439 0560 D601      		movw r26,r12
 1440 0562 7C90      		ld r7,X
 1441 0564 D701      		movw r26,r14
 1442 0566 7C92      		st X,r7
 1443               	.L83:
 1444               	.LBE151:
 350:/Users/manueldeneu/Documents/projets/dev/Monu100/MicroController/MicMonu100/MicMonu100/Display.c ****                 for (int j= 0;j<ch->advance ;j++)
 1446               	.LM151:
 1447 0568 6F5F      		subi r22,-1
 1448 056a 7F4F      		sbci r23,-1
 1449 056c 00C0      		rjmp .L90
 1450               	.L109:
 1451               	.LBE152:
 347:/Users/manueldeneu/Documents/projets/dev/Monu100/MicroController/MicMonu100/MicMonu100/Display.c ****             for (int i= 0;i<CHAR_HEIGHT ;i++)
 1453               	.LM152:
 1454 056e 3196      		adiw r30,1
 1455 0570 EA30      		cpi r30,10
 1456 0572 F105      		cpc r31,__zero_reg__
 1457 0574 01F0      		breq .+2
 1458 0576 00C0      		rjmp .L82
 1459               	.LBE153:
 365:/Users/manueldeneu/Documents/projets/dev/Monu100/MicroController/MicMonu100/MicMonu100/Display.c ****                         }
 366:/Users/manueldeneu/Documents/projets/dev/Monu100/MicroController/MicMonu100/MicMonu100/Display.c ****                     }
 367:/Users/manueldeneu/Documents/projets/dev/Monu100/MicroController/MicMonu100/MicMonu100/Display.c ****                     
 368:/Users/manueldeneu/Documents/projets/dev/Monu100/MicroController/MicMonu100/MicMonu100/Display.c ****                 }
 369:/Users/manueldeneu/Documents/projets/dev/Monu100/MicroController/MicMonu100/MicMonu100/Display.c ****             }
 370:/Users/manueldeneu/Documents/projets/dev/Monu100/MicroController/MicMonu100/MicMonu100/Display.c ****             
 371:/Users/manueldeneu/Documents/projets/dev/Monu100/MicroController/MicMonu100/MicMonu100/Display.c ****             //
 372:/Users/manueldeneu/Documents/projets/dev/Monu100/MicroController/MicMonu100/MicMonu100/Display.c ****             if( dir == 0 )
 1461               	.LM153:
 1462 0578 0111      		cpse r16,__zero_reg__
 1463 057a 00C0      		rjmp .L91
 373:/Users/manueldeneu/Documents/projets/dev/Monu100/MicroController/MicMonu100/MicMonu100/Display.c ****                 yy+=ch->advance;
 1465               	.LM154:
 1466 057c 370D      		add r19,r7
 1467 057e 00C0      		rjmp .L77
 1468               	.L91:
 374:/Users/manueldeneu/Documents/projets/dev/Monu100/MicroController/MicMonu100/MicMonu100/Display.c ****             else
 375:/Users/manueldeneu/Documents/projets/dev/Monu100/MicroController/MicMonu100/MicMonu100/Display.c ****                 xx+= CHAR_HEIGHT;
 1470               	.LM155:
 1471 0580 265F      		subi r18,lo8(-(10))
 1472 0582 00C0      		rjmp .L77
 1473               	.L108:
 1474               	/* epilogue start */
 1475               	.LBE154:
 376:/Users/manueldeneu/Documents/projets/dev/Monu100/MicroController/MicMonu100/MicMonu100/Display.c ****         }
 377:/Users/manueldeneu/Documents/projets/dev/Monu100/MicroController/MicMonu100/MicMonu100/Display.c ****         i++;
 378:/Users/manueldeneu/Documents/projets/dev/Monu100/MicroController/MicMonu100/MicMonu100/Display.c ****         
 379:/Users/manueldeneu/Documents/projets/dev/Monu100/MicroController/MicMonu100/MicMonu100/Display.c ****         
 380:/Users/manueldeneu/Documents/projets/dev/Monu100/MicroController/MicMonu100/MicMonu100/Display.c ****     }
 381:/Users/manueldeneu/Documents/projets/dev/Monu100/MicroController/MicMonu100/MicMonu100/Display.c **** }
 1477               	.LM156:
 1478 0584 0F90      		pop __tmp_reg__
 1479 0586 0F90      		pop __tmp_reg__
 1480 0588 0F90      		pop __tmp_reg__
 1481 058a 0F90      		pop __tmp_reg__
 1482 058c DF91      		pop r29
 1483 058e CF91      		pop r28
 1484 0590 1F91      		pop r17
 1485 0592 0F91      		pop r16
 1486 0594 FF90      		pop r15
 1487 0596 EF90      		pop r14
 1488 0598 DF90      		pop r13
 1489 059a CF90      		pop r12
 1490 059c BF90      		pop r11
 1491 059e AF90      		pop r10
 1492 05a0 9F90      		pop r9
 1493 05a2 8F90      		pop r8
 1494 05a4 7F90      		pop r7
 1495 05a6 6F90      		pop r6
 1496 05a8 5F90      		pop r5
 1497 05aa 4F90      		pop r4
 1498 05ac 3F90      		pop r3
 1499 05ae 2F90      		pop r2
 1500 05b0 0895      		ret
 1514               	.Lscope11:
 1517               	.global	display_writeImage
 1519               	display_writeImage:
 382:/Users/manueldeneu/Documents/projets/dev/Monu100/MicroController/MicMonu100/MicMonu100/Display.c **** 
 383:/Users/manueldeneu/Documents/projets/dev/Monu100/MicroController/MicMonu100/MicMonu100/Display.c **** /* **** **** **** **** **** **** **** **** **** **** **** */
 384:/Users/manueldeneu/Documents/projets/dev/Monu100/MicroController/MicMonu100/MicMonu100/Display.c **** 
 385:/Users/manueldeneu/Documents/projets/dev/Monu100/MicroController/MicMonu100/MicMonu100/Display.c **** void display_writeImage( Display *display,const  uint8_t *image )
 386:/Users/manueldeneu/Documents/projets/dev/Monu100/MicroController/MicMonu100/MicMonu100/Display.c **** {
 1521               	.LM157:
 1522               	.LFBB12:
 1523 05b2 CF93      		push r28
 1524 05b4 DF93      		push r29
 1525               	/* prologue: function */
 1526               	/* frame size = 0 */
 1527               	/* stack size = 2 */
 1528               	.L__stack_usage = 2
 387:/Users/manueldeneu/Documents/projets/dev/Monu100/MicroController/MicMonu100/MicMonu100/Display.c ****     if (display->isDrawing == 1)
 1530               	.LM158:
 1531 05b6 FC01      		movw r30,r24
 1532 05b8 EC54      		subi r30,76
 1533 05ba FB4F      		sbci r31,-5
 1534 05bc 2081      		ld r18,Z
 1535 05be 2130      		cpi r18,lo8(1)
 1536 05c0 01F0      		breq .L110
 1537 05c2 AB01      		movw r20,r22
 1538 05c4 60E0      		ldi r22,0
 1539 05c6 70E0      		ldi r23,0
 1540               	.L112:
 386:/Users/manueldeneu/Documents/projets/dev/Monu100/MicroController/MicMonu100/MicMonu100/Display.c **** {
 1542               	.LM159:
 1543 05c8 20E0      		ldi r18,0
 1544 05ca 30E0      		ldi r19,0
 1545 05cc FC01      		movw r30,r24
 1546 05ce E60F      		add r30,r22
 1547 05d0 F71F      		adc r31,r23
 1548               	.L115:
 1549 05d2 DF01      		movw r26,r30
 1550 05d4 A20F      		add r26,r18
 1551 05d6 B31F      		adc r27,r19
 1552 05d8 A85A      		subi r26,-88
 1553 05da BD4F      		sbci r27,-3
 1554 05dc EA01      		movw r28,r20
 1555 05de C20F      		add r28,r18
 1556 05e0 D31F      		adc r29,r19
 1557               	.LBB155:
 1558               	.LBB156:
 1559               	.LBB157:
 1560               	.LBB158:
  39:/Users/manueldeneu/Documents/projets/dev/Monu100/MicroController/MicMonu100/MicMonu100/Display.c ****     return val>=PIXEL_MAX_VALUE ? PIXEL_MAX_VALUE : val;
 1562               	.LM160:
 1563 05e2 C881      		ld r28,Y
 1564 05e4 C536      		cpi r28,lo8(101)
 1565 05e6 00F0      		brlo .L113
 1566 05e8 C4E6      		ldi r28,lo8(100)
 1567               	.L113:
 1568               	.LBE158:
 1569               	.LBE157:
 388:/Users/manueldeneu/Documents/projets/dev/Monu100/MicroController/MicMonu100/MicMonu100/Display.c ****         return;
 389:/Users/manueldeneu/Documents/projets/dev/Monu100/MicroController/MicMonu100/MicMonu100/Display.c ****     
 390:/Users/manueldeneu/Documents/projets/dev/Monu100/MicroController/MicMonu100/MicMonu100/Display.c ****     for (int x = 0; x<X_TLC_MAX;x++)
 391:/Users/manueldeneu/Documents/projets/dev/Monu100/MicroController/MicMonu100/MicMonu100/Display.c ****     {
 392:/Users/manueldeneu/Documents/projets/dev/Monu100/MicroController/MicMonu100/MicMonu100/Display.c ****         for (int y = 0; y<Y_MIC_MAX;y++)
 393:/Users/manueldeneu/Documents/projets/dev/Monu100/MicroController/MicMonu100/MicMonu100/Display.c ****         {
 394:/Users/manueldeneu/Documents/projets/dev/Monu100/MicroController/MicMonu100/MicMonu100/Display.c ****             display->buff_draw[x][y] = clipVal( image[y + x*X_TLC_MAX] );
 1571               	.LM161:
 1572 05ea CC93      		st X,r28
 392:/Users/manueldeneu/Documents/projets/dev/Monu100/MicroController/MicMonu100/MicMonu100/Display.c ****         for (int y = 0; y<Y_MIC_MAX;y++)
 1574               	.LM162:
 1575 05ec 2F5F      		subi r18,-1
 1576 05ee 3F4F      		sbci r19,-1
 1577 05f0 2431      		cpi r18,20
 1578 05f2 3105      		cpc r19,__zero_reg__
 1579 05f4 01F4      		brne .L115
 1580 05f6 425E      		subi r20,-30
 1581 05f8 5F4F      		sbci r21,-1
 1582 05fa 6C5E      		subi r22,-20
 1583 05fc 7F4F      		sbci r23,-1
 1584               	.LBE156:
 390:/Users/manueldeneu/Documents/projets/dev/Monu100/MicroController/MicMonu100/MicMonu100/Display.c ****     for (int x = 0; x<X_TLC_MAX;x++)
 1586               	.LM163:
 1587 05fe 6835      		cpi r22,88
 1588 0600 22E0      		ldi r18,2
 1589 0602 7207      		cpc r23,r18
 1590 0604 01F4      		brne .L112
 1591               	.L110:
 1592               	/* epilogue start */
 1593               	.LBE155:
 395:/Users/manueldeneu/Documents/projets/dev/Monu100/MicroController/MicMonu100/MicMonu100/Display.c ****         }
 396:/Users/manueldeneu/Documents/projets/dev/Monu100/MicroController/MicMonu100/MicMonu100/Display.c ****     }
 397:/Users/manueldeneu/Documents/projets/dev/Monu100/MicroController/MicMonu100/MicMonu100/Display.c **** }
 1595               	.LM164:
 1596 0606 DF91      		pop r29
 1597 0608 CF91      		pop r28
 1598 060a 0895      		ret
 1603               	.Lscope12:
 1610               	.global	display_fillZone
 1612               	display_fillZone:
 398:/Users/manueldeneu/Documents/projets/dev/Monu100/MicroController/MicMonu100/MicMonu100/Display.c **** 
 399:/Users/manueldeneu/Documents/projets/dev/Monu100/MicroController/MicMonu100/MicMonu100/Display.c **** /* **** **** **** **** **** **** **** **** **** **** **** */
 400:/Users/manueldeneu/Documents/projets/dev/Monu100/MicroController/MicMonu100/MicMonu100/Display.c **** 
 401:/Users/manueldeneu/Documents/projets/dev/Monu100/MicroController/MicMonu100/MicMonu100/Display.c **** void display_fillZone  ( Display *display , const int8_t x , const int8_t y, const int8_t w , const
 402:/Users/manueldeneu/Documents/projets/dev/Monu100/MicroController/MicMonu100/MicMonu100/Display.c **** {
 1614               	.LM165:
 1615               	.LFBB13:
 1616 060c CF92      		push r12
 1617 060e DF92      		push r13
 1618 0610 FF92      		push r15
 1619 0612 0F93      		push r16
 1620 0614 1F93      		push r17
 1621 0616 CF93      		push r28
 1622 0618 DF93      		push r29
 1623               	/* prologue: function */
 1624               	/* frame size = 0 */
 1625               	/* stack size = 7 */
 1626               	.L__stack_usage = 7
 1627               	.LBB159:
 403:/Users/manueldeneu/Documents/projets/dev/Monu100/MicroController/MicMonu100/MicMonu100/Display.c ****     /*
 404:/Users/manueldeneu/Documents/projets/dev/Monu100/MicroController/MicMonu100/MicMonu100/Display.c ****     if (display->isDrawing == 1)
 405:/Users/manueldeneu/Documents/projets/dev/Monu100/MicroController/MicMonu100/MicMonu100/Display.c ****         return;
 406:/Users/manueldeneu/Documents/projets/dev/Monu100/MicroController/MicMonu100/MicMonu100/Display.c ****     */
 407:/Users/manueldeneu/Documents/projets/dev/Monu100/MicroController/MicMonu100/MicMonu100/Display.c ****     
 408:/Users/manueldeneu/Documents/projets/dev/Monu100/MicroController/MicMonu100/MicMonu100/Display.c ****     // inv x<->y
 409:/Users/manueldeneu/Documents/projets/dev/Monu100/MicroController/MicMonu100/MicMonu100/Display.c ****     for (uint8_t xx=0; xx< w; xx++)
 1629               	.LM166:
 1630 061a 562F      		mov r21,r22
 1631 061c C22E      		mov r12,r18
 1632 061e DD24      		clr r13
 1633 0620 C7FC      		sbrc r12,7
 1634 0622 D094      		com r13
 1635               	.LBB160:
 410:/Users/manueldeneu/Documents/projets/dev/Monu100/MicroController/MicMonu100/MicMonu100/Display.c ****         
 411:/Users/manueldeneu/Documents/projets/dev/Monu100/MicroController/MicMonu100/MicMonu100/Display.c ****         for (uint8_t yy=0; yy<h; yy++)
 1637               	.LM167:
 1638 0624 1127      		clr r17
 1639 0626 07FD      		sbrc r16,7
 1640 0628 1095      		com r17
 1641               	.LBB161:
 412:/Users/manueldeneu/Documents/projets/dev/Monu100/MicroController/MicMonu100/MicMonu100/Display.c ****         {
 413:/Users/manueldeneu/Documents/projets/dev/Monu100/MicroController/MicMonu100/MicMonu100/Display.c ****             const int8_t dX = y+yy;
 414:/Users/manueldeneu/Documents/projets/dev/Monu100/MicroController/MicMonu100/MicMonu100/Display.c ****             const int8_t dY = x+xx;
 415:/Users/manueldeneu/Documents/projets/dev/Monu100/MicroController/MicMonu100/MicMonu100/Display.c ****             
 416:/Users/manueldeneu/Documents/projets/dev/Monu100/MicroController/MicMonu100/MicMonu100/Display.c ****             if( inBouds(dX, dY))
 417:/Users/manueldeneu/Documents/projets/dev/Monu100/MicroController/MicMonu100/MicMonu100/Display.c ****                 display->buff_draw[dX][dY] = display->fillColor;
 1643               	.LM168:
 1644 062a 34E1      		ldi r19,lo8(20)
 1645 062c EC01      		movw r28,r24
 1646 062e CF54      		subi r28,79
 1647 0630 DB4F      		sbci r29,-5
 1648               	.L123:
 1649 0632 E52F      		mov r30,r21
 1650 0634 E61B      		sub r30,r22
 1651               	.LBE161:
 1652               	.LBE160:
 409:/Users/manueldeneu/Documents/projets/dev/Monu100/MicroController/MicMonu100/MicMonu100/Display.c ****     for (uint8_t xx=0; xx< w; xx++)
 1654               	.LM169:
 1655 0636 F0E0      		ldi r31,0
 1656 0638 EC15      		cp r30,r12
 1657 063a FD05      		cpc r31,r13
 1658 063c 04F4      		brge .L122
 409:/Users/manueldeneu/Documents/projets/dev/Monu100/MicroController/MicMonu100/MicMonu100/Display.c ****     for (uint8_t xx=0; xx< w; xx++)
 1660               	.LM170:
 1661 063e 742F      		mov r23,r20
 1662               	.LBB166:
 1663               	.LBB164:
 1665               	.LM171:
 1666 0640 A52F      		mov r26,r21
 1667 0642 BB27      		clr r27
 1668 0644 A7FD      		sbrc r26,7
 1669 0646 B095      		com r27
 1670               	.L129:
 1671 0648 E72F      		mov r30,r23
 1672 064a E41B      		sub r30,r20
 1673               	.LBE164:
 411:/Users/manueldeneu/Documents/projets/dev/Monu100/MicroController/MicMonu100/MicMonu100/Display.c ****         for (uint8_t yy=0; yy<h; yy++)
 1675               	.LM172:
 1676 064c F0E0      		ldi r31,0
 1677 064e E017      		cp r30,r16
 1678 0650 F107      		cpc r31,r17
 1679 0652 04F4      		brge .L134
 1680               	.LBB165:
 1681               	.LBB162:
 1682               	.LBB163:
 1684               	.Ltext11:
  54:/Users/manueldeneu/Documents/projets/dev/Monu100/MicroController/MicMonu100/MicMonu100/Display.h ****            && ( y >=0 && y <Y_MIC_MAX );
 1686               	.LM173:
 1687 0654 7E31      		cpi r23,lo8(30)
 1688 0656 00F4      		brsh .L126
 1689 0658 E1E0      		ldi r30,lo8(1)
 1690 065a F0E0      		ldi r31,0
 1691 065c 5431      		cpi r21,lo8(20)
 1692 065e 00F0      		brlo .L125
 1693 0660 E0E0      		ldi r30,0
 1694 0662 F0E0      		ldi r31,0
 1695               	.L125:
 1696               	.LBE163:
 1697               	.LBE162:
 1699               	.Ltext12:
 416:/Users/manueldeneu/Documents/projets/dev/Monu100/MicroController/MicMonu100/MicMonu100/Display.c ****             if( inBouds(dX, dY))
 1701               	.LM174:
 1702 0664 EF2B      		or r30,r31
 1703 0666 01F0      		breq .L126
 1705               	.LM175:
 1706 0668 7303      		mulsu r23,r19
 1707 066a F001      		movw r30,r0
 1708 066c 1124      		clr __zero_reg__
 1709 066e E80F      		add r30,r24
 1710 0670 F91F      		adc r31,r25
 1711 0672 EA0F      		add r30,r26
 1712 0674 FB1F      		adc r31,r27
 1713 0676 E85A      		subi r30,-88
 1714 0678 FD4F      		sbci r31,-3
 1715 067a F880      		ld r15,Y
 1716 067c F082      		st Z,r15
 1717               	.L126:
 1718 067e 7F5F      		subi r23,lo8(-(1))
 1719 0680 00C0      		rjmp .L129
 1720               	.L134:
 1721 0682 5F5F      		subi r21,lo8(-(1))
 1722 0684 00C0      		rjmp .L123
 1723               	.L122:
 1724               	/* epilogue start */
 1725               	.LBE165:
 1726               	.LBE166:
 1727               	.LBE159:
 418:/Users/manueldeneu/Documents/projets/dev/Monu100/MicroController/MicMonu100/MicMonu100/Display.c ****         }
 419:/Users/manueldeneu/Documents/projets/dev/Monu100/MicroController/MicMonu100/MicMonu100/Display.c **** }
 1729               	.LM176:
 1730 0686 DF91      		pop r29
 1731 0688 CF91      		pop r28
 1732 068a 1F91      		pop r17
 1733 068c 0F91      		pop r16
 1734 068e FF90      		pop r15
 1735 0690 DF90      		pop r13
 1736 0692 CF90      		pop r12
 1737 0694 0895      		ret
 1739               	.Lscope13:
 1745               	.global	display_setPixel
 1747               	display_setPixel:
 420:/Users/manueldeneu/Documents/projets/dev/Monu100/MicroController/MicMonu100/MicMonu100/Display.c **** 
 421:/Users/manueldeneu/Documents/projets/dev/Monu100/MicroController/MicMonu100/MicMonu100/Display.c **** /* **** **** **** **** **** **** **** **** **** **** **** */
 422:/Users/manueldeneu/Documents/projets/dev/Monu100/MicroController/MicMonu100/MicMonu100/Display.c **** 
 423:/Users/manueldeneu/Documents/projets/dev/Monu100/MicroController/MicMonu100/MicMonu100/Display.c **** void display_setPixel( Display *display , const uint8_t x , const uint8_t y, const uint8_t value)
 424:/Users/manueldeneu/Documents/projets/dev/Monu100/MicroController/MicMonu100/MicMonu100/Display.c **** {
 1749               	.LM177:
 1750               	.LFBB14:
 1751               	/* prologue: function */
 1752               	/* frame size = 0 */
 1753               	/* stack size = 0 */
 1754               	.L__stack_usage = 0
 425:/Users/manueldeneu/Documents/projets/dev/Monu100/MicroController/MicMonu100/MicMonu100/Display.c **** //    if (display->isDrawing == 1)
 426:/Users/manueldeneu/Documents/projets/dev/Monu100/MicroController/MicMonu100/MicMonu100/Display.c **** //        return;
 427:/Users/manueldeneu/Documents/projets/dev/Monu100/MicroController/MicMonu100/MicMonu100/Display.c ****     
 428:/Users/manueldeneu/Documents/projets/dev/Monu100/MicroController/MicMonu100/MicMonu100/Display.c ****     // inversion x<->y
 429:/Users/manueldeneu/Documents/projets/dev/Monu100/MicroController/MicMonu100/MicMonu100/Display.c ****     if ( (y < X_TLC_MAX) && ( x <Y_MIC_MAX) )
 1756               	.LM178:
 1757 0696 4E31      		cpi r20,lo8(30)
 1758 0698 00F4      		brsh .L135
 1760               	.LM179:
 1761 069a 6431      		cpi r22,lo8(20)
 1762 069c 00F4      		brsh .L135
 430:/Users/manueldeneu/Documents/projets/dev/Monu100/MicroController/MicMonu100/MicMonu100/Display.c ****         display->buff_draw[y][x] = clipVal( value );
 1764               	.LM180:
 1765 069e 34E1      		ldi r19,lo8(20)
 1766 06a0 439F      		mul r20,r19
 1767 06a2 800D      		add r24,r0
 1768 06a4 911D      		adc r25,r1
 1769 06a6 1124      		clr __zero_reg__
 1770 06a8 860F      		add r24,r22
 1771 06aa 911D      		adc r25,__zero_reg__
 1772 06ac FC01      		movw r30,r24
 1773 06ae E85A      		subi r30,-88
 1774 06b0 FD4F      		sbci r31,-3
 1775               	.LBB167:
 1776               	.LBB168:
  39:/Users/manueldeneu/Documents/projets/dev/Monu100/MicroController/MicMonu100/MicMonu100/Display.c ****     return val>=PIXEL_MAX_VALUE ? PIXEL_MAX_VALUE : val;
 1778               	.LM181:
 1779 06b2 2536      		cpi r18,lo8(101)
 1780 06b4 00F0      		brlo .L137
 1781 06b6 24E6      		ldi r18,lo8(100)
 1782               	.L137:
 1783               	.LBE168:
 1784               	.LBE167:
 1786               	.LM182:
 1787 06b8 2083      		st Z,r18
 1788               	.L135:
 1789 06ba 0895      		ret
 1791               	.Lscope14:
 1797               	.global	display_addPixel
 1799               	display_addPixel:
 431:/Users/manueldeneu/Documents/projets/dev/Monu100/MicroController/MicMonu100/MicMonu100/Display.c **** }
 432:/Users/manueldeneu/Documents/projets/dev/Monu100/MicroController/MicMonu100/MicMonu100/Display.c **** 
 433:/Users/manueldeneu/Documents/projets/dev/Monu100/MicroController/MicMonu100/MicMonu100/Display.c **** /* **** **** **** **** **** **** **** **** **** **** **** */
 434:/Users/manueldeneu/Documents/projets/dev/Monu100/MicroController/MicMonu100/MicMonu100/Display.c **** 
 435:/Users/manueldeneu/Documents/projets/dev/Monu100/MicroController/MicMonu100/MicMonu100/Display.c **** void display_addPixel( Display *display , const uint8_t x , const uint8_t y, const uint8_t value)
 436:/Users/manueldeneu/Documents/projets/dev/Monu100/MicroController/MicMonu100/MicMonu100/Display.c **** {
 1801               	.LM183:
 1802               	.LFBB15:
 1803               	/* prologue: function */
 1804               	/* frame size = 0 */
 1805               	/* stack size = 0 */
 1806               	.L__stack_usage = 0
 437:/Users/manueldeneu/Documents/projets/dev/Monu100/MicroController/MicMonu100/MicMonu100/Display.c ****     // inversion x<->y
 438:/Users/manueldeneu/Documents/projets/dev/Monu100/MicroController/MicMonu100/MicMonu100/Display.c ****     if ( (y < X_TLC_MAX) && ( x <Y_MIC_MAX) )
 1808               	.LM184:
 1809 06bc 4E31      		cpi r20,lo8(30)
 1810 06be 00F4      		brsh .L138
 1812               	.LM185:
 1813 06c0 6431      		cpi r22,lo8(20)
 1814 06c2 00F4      		brsh .L138
 439:/Users/manueldeneu/Documents/projets/dev/Monu100/MicroController/MicMonu100/MicMonu100/Display.c ****         display->buff_draw[y][x] = clipVal( value );
 1816               	.LM186:
 1817 06c4 34E1      		ldi r19,lo8(20)
 1818 06c6 439F      		mul r20,r19
 1819 06c8 800D      		add r24,r0
 1820 06ca 911D      		adc r25,r1
 1821 06cc 1124      		clr __zero_reg__
 1822 06ce 860F      		add r24,r22
 1823 06d0 911D      		adc r25,__zero_reg__
 1824 06d2 FC01      		movw r30,r24
 1825 06d4 E85A      		subi r30,-88
 1826 06d6 FD4F      		sbci r31,-3
 1827               	.LBB169:
 1828               	.LBB170:
  39:/Users/manueldeneu/Documents/projets/dev/Monu100/MicroController/MicMonu100/MicMonu100/Display.c ****     return val>=PIXEL_MAX_VALUE ? PIXEL_MAX_VALUE : val;
 1830               	.LM187:
 1831 06d8 2536      		cpi r18,lo8(101)
 1832 06da 00F0      		brlo .L140
 1833 06dc 24E6      		ldi r18,lo8(100)
 1834               	.L140:
 1835               	.LBE170:
 1836               	.LBE169:
 1838               	.LM188:
 1839 06de 2083      		st Z,r18
 1840               	.L138:
 1841 06e0 0895      		ret
 1843               	.Lscope15:
 1849               	.global	display_drawCircle
 1851               	display_drawCircle:
 440:/Users/manueldeneu/Documents/projets/dev/Monu100/MicroController/MicMonu100/MicMonu100/Display.c **** }
 441:/Users/manueldeneu/Documents/projets/dev/Monu100/MicroController/MicMonu100/MicMonu100/Display.c **** 
 442:/Users/manueldeneu/Documents/projets/dev/Monu100/MicroController/MicMonu100/MicMonu100/Display.c **** /* **** **** **** **** **** **** **** **** **** **** **** **** **** **** **** **** **** **** **** *
 443:/Users/manueldeneu/Documents/projets/dev/Monu100/MicroController/MicMonu100/MicMonu100/Display.c **** /* **** **** **** **** **** **** **** **** **** **** **** **** **** **** **** **** **** **** **** *
 444:/Users/manueldeneu/Documents/projets/dev/Monu100/MicroController/MicMonu100/MicMonu100/Display.c **** 
 445:/Users/manueldeneu/Documents/projets/dev/Monu100/MicroController/MicMonu100/MicMonu100/Display.c **** /*
 446:/Users/manueldeneu/Documents/projets/dev/Monu100/MicroController/MicMonu100/MicMonu100/Display.c ****  
 447:/Users/manueldeneu/Documents/projets/dev/Monu100/MicroController/MicMonu100/MicMonu100/Display.c ****     Drawing routines
 448:/Users/manueldeneu/Documents/projets/dev/Monu100/MicroController/MicMonu100/MicMonu100/Display.c ****  
 449:/Users/manueldeneu/Documents/projets/dev/Monu100/MicroController/MicMonu100/MicMonu100/Display.c ****  */
 450:/Users/manueldeneu/Documents/projets/dev/Monu100/MicroController/MicMonu100/MicMonu100/Display.c **** /* **** **** **** **** **** **** **** **** **** **** **** */
 451:/Users/manueldeneu/Documents/projets/dev/Monu100/MicroController/MicMonu100/MicMonu100/Display.c **** 
 452:/Users/manueldeneu/Documents/projets/dev/Monu100/MicroController/MicMonu100/MicMonu100/Display.c **** void display_drawCircle( Display *display , const uint8_t x0 , const uint8_t y0 , const uint8_t r)
 453:/Users/manueldeneu/Documents/projets/dev/Monu100/MicroController/MicMonu100/MicMonu100/Display.c **** {
 1853               	.LM189:
 1854               	.LFBB16:
 1855 06e2 2F92      		push r2
 1856 06e4 3F92      		push r3
 1857 06e6 4F92      		push r4
 1858 06e8 5F92      		push r5
 1859 06ea 6F92      		push r6
 1860 06ec 7F92      		push r7
 1861 06ee 8F92      		push r8
 1862 06f0 9F92      		push r9
 1863 06f2 AF92      		push r10
 1864 06f4 BF92      		push r11
 1865 06f6 CF92      		push r12
 1866 06f8 DF92      		push r13
 1867 06fa EF92      		push r14
 1868 06fc FF92      		push r15
 1869 06fe 0F93      		push r16
 1870 0700 1F93      		push r17
 1871 0702 CF93      		push r28
 1872 0704 DF93      		push r29
 1873 0706 00D0      		rcall .
 1874 0708 CDB7      		in r28,__SP_L__
 1875 070a DEB7      		in r29,__SP_H__
 1876               	/* prologue: function */
 1877               	/* frame size = 3 */
 1878               	/* stack size = 21 */
 1879               	.L__stack_usage = 21
 1880 070c 9B83      		std Y+3,r25
 1881 070e 8A83      		std Y+2,r24
 1882 0710 762E      		mov r7,r22
 1883 0712 642E      		mov r6,r20
 454:/Users/manueldeneu/Documents/projets/dev/Monu100/MicroController/MicMonu100/MicMonu100/Display.c ****     int x = r;
 1885               	.LM190:
 1886 0714 022F      		mov r16,r18
 1887 0716 10E0      		ldi r17,0
 455:/Users/manueldeneu/Documents/projets/dev/Monu100/MicroController/MicMonu100/MicMonu100/Display.c ****     int y = 0;
 456:/Users/manueldeneu/Documents/projets/dev/Monu100/MicroController/MicMonu100/MicMonu100/Display.c ****     int decisionOver2 = 1 - x;   // Decision criterion divided by 2 evaluated at x=r, y=0
 1889               	.LM191:
 1890 0718 AA24      		clr r10
 1891 071a A394      		inc r10
 1892 071c B12C      		mov r11,__zero_reg__
 1893 071e A01A      		sub r10,r16
 1894 0720 B10A      		sbc r11,r17
 1895 0722 A3E0      		ldi r26,lo8(3)
 1896 0724 8A2E      		mov r8,r26
 1897 0726 912C      		mov r9,__zero_reg__
 455:/Users/manueldeneu/Documents/projets/dev/Monu100/MicroController/MicMonu100/MicMonu100/Display.c ****     int y = 0;
 1899               	.LM192:
 1900 0728 C12C      		mov r12,__zero_reg__
 1901 072a D12C      		mov r13,__zero_reg__
 457:/Users/manueldeneu/Documents/projets/dev/Monu100/MicroController/MicMonu100/MicMonu100/Display.c ****     
 458:/Users/manueldeneu/Documents/projets/dev/Monu100/MicroController/MicMonu100/MicMonu100/Display.c ****     while(x >= y)
 459:/Users/manueldeneu/Documents/projets/dev/Monu100/MicroController/MicMonu100/MicMonu100/Display.c ****     {
 460:/Users/manueldeneu/Documents/projets/dev/Monu100/MicroController/MicMonu100/MicMonu100/Display.c ****         display_setPixel( display , x + x0,  y + y0  , display->fillColor);
 1903               	.LM193:
 1904 072c 7C01      		movw r14,r24
 1905 072e 8FE4      		ldi r24,79
 1906 0730 E81A      		sub r14,r24
 1907 0732 8BEF      		ldi r24,-5
 1908 0734 F80A      		sbc r15,r24
 1909               	.L145:
 1910 0736 462C      		mov r4,r6
 1911 0738 4C0C      		add r4,r12
 1912 073a F701      		movw r30,r14
 1913 073c 2081      		ld r18,Z
 1914 073e 442D      		mov r20,r4
 1915 0740 572C      		mov r5,r7
 1916 0742 500E      		add r5,r16
 1917 0744 652D      		mov r22,r5
 1918 0746 8A81      		ldd r24,Y+2
 1919 0748 9B81      		ldd r25,Y+3
 1920 074a 0E94 0000 		call display_setPixel
 461:/Users/manueldeneu/Documents/projets/dev/Monu100/MicroController/MicMonu100/MicMonu100/Display.c ****         display_setPixel( display , x + x0,  y + y0  , display->fillColor);
 1922               	.LM194:
 1923 074e F701      		movw r30,r14
 1924 0750 2081      		ld r18,Z
 1925 0752 442D      		mov r20,r4
 1926 0754 652D      		mov r22,r5
 1927 0756 8A81      		ldd r24,Y+2
 1928 0758 9B81      		ldd r25,Y+3
 1929 075a 0E94 0000 		call display_setPixel
 1930 075e 372C      		mov r3,r7
 1931 0760 3C0C      		add r3,r12
 462:/Users/manueldeneu/Documents/projets/dev/Monu100/MicroController/MicMonu100/MicMonu100/Display.c ****         display_setPixel( display , y + x0,  x + y0  , display->fillColor);
 1933               	.LM195:
 1934 0762 F701      		movw r30,r14
 1935 0764 2081      		ld r18,Z
 1936 0766 262C      		mov r2,r6
 1937 0768 200E      		add r2,r16
 1938 076a 422D      		mov r20,r2
 1939 076c 632D      		mov r22,r3
 1940 076e 8A81      		ldd r24,Y+2
 1941 0770 9B81      		ldd r25,Y+3
 1942 0772 0E94 0000 		call display_setPixel
 463:/Users/manueldeneu/Documents/projets/dev/Monu100/MicroController/MicMonu100/MicMonu100/Display.c ****         display_setPixel( display , -x + x0,  y + y0 , display->fillColor);
 1944               	.LM196:
 1945 0776 F701      		movw r30,r14
 1946 0778 2081      		ld r18,Z
 1947 077a 442D      		mov r20,r4
 1948 077c 472C      		mov r4,r7
 1949 077e 401A      		sub r4,r16
 1950 0780 642D      		mov r22,r4
 1951 0782 8A81      		ldd r24,Y+2
 1952 0784 9B81      		ldd r25,Y+3
 1953 0786 0E94 0000 		call display_setPixel
 1954 078a 372D      		mov r19,r7
 1955 078c 3C19      		sub r19,r12
 464:/Users/manueldeneu/Documents/projets/dev/Monu100/MicroController/MicMonu100/MicMonu100/Display.c ****         display_setPixel( display , -y + x0,  x + y0 , display->fillColor);
 1957               	.LM197:
 1958 078e F701      		movw r30,r14
 1959 0790 2081      		ld r18,Z
 1960 0792 422D      		mov r20,r2
 1961 0794 632F      		mov r22,r19
 1962 0796 8A81      		ldd r24,Y+2
 1963 0798 9B81      		ldd r25,Y+3
 1964 079a 3983      		std Y+1,r19
 1965 079c 0E94 0000 		call display_setPixel
 1966 07a0 262C      		mov r2,r6
 1967 07a2 2C18      		sub r2,r12
 465:/Users/manueldeneu/Documents/projets/dev/Monu100/MicroController/MicMonu100/MicMonu100/Display.c ****         display_setPixel( display , -x + x0, -y + y0 , display->fillColor);
 1969               	.LM198:
 1970 07a4 F701      		movw r30,r14
 1971 07a6 2081      		ld r18,Z
 1972 07a8 422D      		mov r20,r2
 1973 07aa 642D      		mov r22,r4
 1974 07ac 8A81      		ldd r24,Y+2
 1975 07ae 9B81      		ldd r25,Y+3
 1976 07b0 0E94 0000 		call display_setPixel
 466:/Users/manueldeneu/Documents/projets/dev/Monu100/MicroController/MicMonu100/MicMonu100/Display.c ****         display_setPixel( display , -y + x0, -x + y0 , display->fillColor);
 1978               	.LM199:
 1979 07b4 F701      		movw r30,r14
 1980 07b6 2081      		ld r18,Z
 1981 07b8 462C      		mov r4,r6
 1982 07ba 401A      		sub r4,r16
 1983 07bc 442D      		mov r20,r4
 1984 07be 3981      		ldd r19,Y+1
 1985 07c0 632F      		mov r22,r19
 1986 07c2 8A81      		ldd r24,Y+2
 1987 07c4 9B81      		ldd r25,Y+3
 1988 07c6 0E94 0000 		call display_setPixel
 467:/Users/manueldeneu/Documents/projets/dev/Monu100/MicroController/MicMonu100/MicMonu100/Display.c ****         display_setPixel( display ,  x + x0, -y + y0 , display->fillColor);
 1990               	.LM200:
 1991 07ca F701      		movw r30,r14
 1992 07cc 2081      		ld r18,Z
 1993 07ce 422D      		mov r20,r2
 1994 07d0 652D      		mov r22,r5
 1995 07d2 8A81      		ldd r24,Y+2
 1996 07d4 9B81      		ldd r25,Y+3
 1997 07d6 0E94 0000 		call display_setPixel
 468:/Users/manueldeneu/Documents/projets/dev/Monu100/MicroController/MicMonu100/MicMonu100/Display.c ****         display_setPixel( display ,  y + x0, -x + y0 , display->fillColor);
 1999               	.LM201:
 2000 07da F701      		movw r30,r14
 2001 07dc 2081      		ld r18,Z
 2002 07de 442D      		mov r20,r4
 2003 07e0 632D      		mov r22,r3
 2004 07e2 8A81      		ldd r24,Y+2
 2005 07e4 9B81      		ldd r25,Y+3
 2006 07e6 0E94 0000 		call display_setPixel
 469:/Users/manueldeneu/Documents/projets/dev/Monu100/MicroController/MicMonu100/MicMonu100/Display.c ****         y++;
 2008               	.LM202:
 2009 07ea FFEF      		ldi r31,-1
 2010 07ec CF1A      		sub r12,r31
 2011 07ee DF0A      		sbc r13,r31
 470:/Users/manueldeneu/Documents/projets/dev/Monu100/MicroController/MicMonu100/MicMonu100/Display.c ****         
 471:/Users/manueldeneu/Documents/projets/dev/Monu100/MicroController/MicMonu100/MicMonu100/Display.c ****         if (decisionOver2<=0)
 2013               	.LM203:
 2014 07f0 1A14      		cp __zero_reg__,r10
 2015 07f2 1B04      		cpc __zero_reg__,r11
 2016 07f4 04F0      		brlt .L142
 472:/Users/manueldeneu/Documents/projets/dev/Monu100/MicroController/MicMonu100/MicMonu100/Display.c ****         {
 473:/Users/manueldeneu/Documents/projets/dev/Monu100/MicroController/MicMonu100/MicMonu100/Display.c ****             decisionOver2 += 2 * y + 1;   // Change in decision criterion for y -> y+1
 2018               	.LM204:
 2019 07f6 A80C      		add r10,r8
 2020 07f8 B91C      		adc r11,r9
 2021 07fa 00C0      		rjmp .L143
 2022               	.L142:
 474:/Users/manueldeneu/Documents/projets/dev/Monu100/MicroController/MicMonu100/MicMonu100/Display.c ****         }
 475:/Users/manueldeneu/Documents/projets/dev/Monu100/MicroController/MicMonu100/MicMonu100/Display.c ****         else
 476:/Users/manueldeneu/Documents/projets/dev/Monu100/MicroController/MicMonu100/MicMonu100/Display.c ****         {
 477:/Users/manueldeneu/Documents/projets/dev/Monu100/MicroController/MicMonu100/MicMonu100/Display.c ****             x--;
 2024               	.LM205:
 2025 07fc 0150      		subi r16,1
 2026 07fe 1109      		sbc r17,__zero_reg__
 478:/Users/manueldeneu/Documents/projets/dev/Monu100/MicroController/MicMonu100/MicMonu100/Display.c ****             decisionOver2 += 2 * (y - x) + 1;   // Change for y -> y+1, x -> x-1
 2028               	.LM206:
 2029 0800 C601      		movw r24,r12
 2030 0802 801B      		sub r24,r16
 2031 0804 910B      		sbc r25,r17
 2032 0806 880F      		lsl r24
 2033 0808 991F      		rol r25
 2034 080a 0196      		adiw r24,1
 2035 080c A80E      		add r10,r24
 2036 080e B91E      		adc r11,r25
 2037               	.L143:
 2038 0810 82E0      		ldi r24,2
 2039 0812 880E      		add r8,r24
 2040 0814 911C      		adc r9,__zero_reg__
 458:/Users/manueldeneu/Documents/projets/dev/Monu100/MicroController/MicMonu100/MicMonu100/Display.c ****     while(x >= y)
 2042               	.LM207:
 2043 0816 0C15      		cp r16,r12
 2044 0818 1D05      		cpc r17,r13
 2045 081a 04F0      		brlt .+2
 2046 081c 00C0      		rjmp .L145
 2047               	/* epilogue start */
 479:/Users/manueldeneu/Documents/projets/dev/Monu100/MicroController/MicMonu100/MicMonu100/Display.c ****         }
 480:/Users/manueldeneu/Documents/projets/dev/Monu100/MicroController/MicMonu100/MicMonu100/Display.c ****     }
 481:/Users/manueldeneu/Documents/projets/dev/Monu100/MicroController/MicMonu100/MicMonu100/Display.c **** }
 2049               	.LM208:
 2050 081e 0F90      		pop __tmp_reg__
 2051 0820 0F90      		pop __tmp_reg__
 2052 0822 0F90      		pop __tmp_reg__
 2053 0824 DF91      		pop r29
 2054 0826 CF91      		pop r28
 2055 0828 1F91      		pop r17
 2056 082a 0F91      		pop r16
 2057 082c FF90      		pop r15
 2058 082e EF90      		pop r14
 2059 0830 DF90      		pop r13
 2060 0832 CF90      		pop r12
 2061 0834 BF90      		pop r11
 2062 0836 AF90      		pop r10
 2063 0838 9F90      		pop r9
 2064 083a 8F90      		pop r8
 2065 083c 7F90      		pop r7
 2066 083e 6F90      		pop r6
 2067 0840 5F90      		pop r5
 2068 0842 4F90      		pop r4
 2069 0844 3F90      		pop r3
 2070 0846 2F90      		pop r2
 2071 0848 0895      		ret
 2078               	.Lscope16:
 2085               	.global	display_drawLine
 2087               	display_drawLine:
 482:/Users/manueldeneu/Documents/projets/dev/Monu100/MicroController/MicMonu100/MicMonu100/Display.c **** 
 483:/Users/manueldeneu/Documents/projets/dev/Monu100/MicroController/MicMonu100/MicMonu100/Display.c **** /* **** **** **** **** **** **** **** **** **** **** **** */
 484:/Users/manueldeneu/Documents/projets/dev/Monu100/MicroController/MicMonu100/MicMonu100/Display.c **** 
 485:/Users/manueldeneu/Documents/projets/dev/Monu100/MicroController/MicMonu100/MicMonu100/Display.c **** void display_drawLine( Display *display , uint8_t x0 , uint8_t y0 , uint8_t x1 , uint8_t y1 )
 486:/Users/manueldeneu/Documents/projets/dev/Monu100/MicroController/MicMonu100/MicMonu100/Display.c **** {
 2089               	.LM209:
 2090               	.LFBB17:
 2091 084a 2F92      		push r2
 2092 084c 3F92      		push r3
 2093 084e 4F92      		push r4
 2094 0850 5F92      		push r5
 2095 0852 6F92      		push r6
 2096 0854 7F92      		push r7
 2097 0856 8F92      		push r8
 2098 0858 9F92      		push r9
 2099 085a AF92      		push r10
 2100 085c BF92      		push r11
 2101 085e CF92      		push r12
 2102 0860 DF92      		push r13
 2103 0862 EF92      		push r14
 2104 0864 FF92      		push r15
 2105 0866 0F93      		push r16
 2106 0868 1F93      		push r17
 2107 086a CF93      		push r28
 2108 086c DF93      		push r29
 2109 086e 1F92      		push __zero_reg__
 2110 0870 1F92      		push __zero_reg__
 2111 0872 CDB7      		in r28,__SP_L__
 2112 0874 DEB7      		in r29,__SP_H__
 2113               	/* prologue: function */
 2114               	/* frame size = 2 */
 2115               	/* stack size = 20 */
 2116               	.L__stack_usage = 20
 2117 0876 5C01      		movw r10,r24
 2118 0878 562E      		mov r5,r22
 2119 087a 142F      		mov r17,r20
 2120 087c 422E      		mov r4,r18
 487:/Users/manueldeneu/Documents/projets/dev/Monu100/MicroController/MicMonu100/MicMonu100/Display.c ****     int dx = abs(x1-x0), sx = x0<x1 ? 1 : -1;
 2122               	.LM210:
 2123 087e E22E      		mov r14,r18
 2124 0880 F12C      		mov r15,__zero_reg__
 2125 0882 E61A      		sub r14,r22
 2126 0884 F108      		sbc r15,__zero_reg__
 2127 0886 F7FE      		sbrs r15,7
 2128 0888 00C0      		rjmp .L147
 2129 088a F194      		neg r15
 2130 088c E194      		neg r14
 2131 088e F108      		sbc r15,__zero_reg__
 2132               	.L147:
 2133 0890 5414      		cp r5,r4
 2134 0892 00F4      		brsh .L159
 2135 0894 51E0      		ldi r21,lo8(1)
 2136 0896 00C0      		rjmp .L148
 2137               	.L159:
 2138 0898 5FEF      		ldi r21,lo8(-1)
 2139               	.L148:
 488:/Users/manueldeneu/Documents/projets/dev/Monu100/MicroController/MicMonu100/MicMonu100/Display.c ****     int dy = abs(y1-y0), sy = y0<y1 ? 1 : -1;
 2141               	.LM211:
 2142 089a 202E      		mov r2,r16
 2143 089c 312C      		mov r3,__zero_reg__
 2144 089e 211A      		sub r2,r17
 2145 08a0 3108      		sbc r3,__zero_reg__
 2146 08a2 37FE      		sbrs r3,7
 2147 08a4 00C0      		rjmp .L149
 2148 08a6 3194      		neg r3
 2149 08a8 2194      		neg r2
 2150 08aa 3108      		sbc r3,__zero_reg__
 2151               	.L149:
 2152 08ac 1017      		cp r17,r16
 2153 08ae 00F4      		brsh .L160
 2155               	.LM212:
 2156 08b0 31E0      		ldi r19,lo8(1)
 2157 08b2 00C0      		rjmp .L150
 2158               	.L160:
 2159 08b4 3FEF      		ldi r19,lo8(-1)
 2160               	.L150:
 489:/Users/manueldeneu/Documents/projets/dev/Monu100/MicroController/MicMonu100/MicMonu100/Display.c ****     int err = (dx>dy ? dx : -dy)/2, e2;
 2162               	.LM213:
 2163 08b6 2E14      		cp r2,r14
 2164 08b8 3F04      		cpc r3,r15
 2165 08ba 04F4      		brge .L151
 2167               	.LM214:
 2168 08bc 6701      		movw r12,r14
 2169 08be D594      		asr r13
 2170 08c0 C794      		ror r12
 2171               	.L154:
 490:/Users/manueldeneu/Documents/projets/dev/Monu100/MicroController/MicMonu100/MicMonu100/Display.c ****     
 491:/Users/manueldeneu/Documents/projets/dev/Monu100/MicroController/MicMonu100/MicMonu100/Display.c ****     for(;;)
 492:/Users/manueldeneu/Documents/projets/dev/Monu100/MicroController/MicMonu100/MicMonu100/Display.c ****     {
 493:/Users/manueldeneu/Documents/projets/dev/Monu100/MicroController/MicMonu100/MicMonu100/Display.c ****         display_setPixel( display , x0,  y0  , display->fillColor);
 2173               	.LM215:
 2174 08c2 4501      		movw r8,r10
 2175 08c4 8FE4      		ldi r24,79
 2176 08c6 881A      		sub r8,r24
 2177 08c8 8BEF      		ldi r24,-5
 2178 08ca 980A      		sbc r9,r24
 494:/Users/manueldeneu/Documents/projets/dev/Monu100/MicroController/MicMonu100/MicMonu100/Display.c **** 
 495:/Users/manueldeneu/Documents/projets/dev/Monu100/MicroController/MicMonu100/MicMonu100/Display.c ****         if (x0==x1 && y0==y1)
 496:/Users/manueldeneu/Documents/projets/dev/Monu100/MicroController/MicMonu100/MicMonu100/Display.c ****             break;
 497:/Users/manueldeneu/Documents/projets/dev/Monu100/MicroController/MicMonu100/MicMonu100/Display.c ****         e2 = err;
 498:/Users/manueldeneu/Documents/projets/dev/Monu100/MicroController/MicMonu100/MicMonu100/Display.c ****         if (e2 >-dx) { err -= dy; x0 += sx; }
 2180               	.LM216:
 2181 08cc 6624      		clr r6
 2182 08ce 7724      		clr r7
 2183 08d0 6E18      		sub r6,r14
 2184 08d2 7F08      		sbc r7,r15
 2185 08d4 00C0      		rjmp .L152
 2186               	.L151:
 489:/Users/manueldeneu/Documents/projets/dev/Monu100/MicroController/MicMonu100/MicMonu100/Display.c ****     int err = (dx>dy ? dx : -dy)/2, e2;
 2188               	.LM217:
 2189 08d6 6101      		movw r12,r2
 2190 08d8 37FE      		sbrs r3,7
 2191 08da 00C0      		rjmp .L153
 2192 08dc EFEF      		ldi r30,-1
 2193 08de CE1A      		sub r12,r30
 2194 08e0 DE0A      		sbc r13,r30
 2195               	.L153:
 2196 08e2 D594      		asr r13
 2197 08e4 C794      		ror r12
 2198 08e6 D194      		neg r13
 2199 08e8 C194      		neg r12
 2200 08ea D108      		sbc r13,__zero_reg__
 2201 08ec 00C0      		rjmp .L154
 2202               	.L163:
 495:/Users/manueldeneu/Documents/projets/dev/Monu100/MicroController/MicMonu100/MicMonu100/Display.c ****         if (x0==x1 && y0==y1)
 2204               	.LM218:
 2205 08ee 1017      		cp r17,r16
 2206 08f0 01F0      		breq .L146
 2207               	.L155:
 2209               	.LM219:
 2210 08f2 F601      		movw r30,r12
 2211 08f4 6C14      		cp r6,r12
 2212 08f6 7D04      		cpc r7,r13
 2213 08f8 04F4      		brge .L157
 2215               	.LM220:
 2216 08fa E219      		sub r30,r2
 2217 08fc F309      		sbc r31,r3
 2218 08fe 550E      		add r5,r21
 2219               	.L157:
 499:/Users/manueldeneu/Documents/projets/dev/Monu100/MicroController/MicMonu100/MicMonu100/Display.c ****         if (e2 < dy) { err += dx; y0 += sy; }
 2221               	.LM221:
 2222 0900 C214      		cp r12,r2
 2223 0902 D304      		cpc r13,r3
 2224 0904 04F0      		brlt .L162
 2225               	.L158:
 488:/Users/manueldeneu/Documents/projets/dev/Monu100/MicroController/MicMonu100/MicMonu100/Display.c ****     int dy = abs(y1-y0), sy = y0<y1 ? 1 : -1;
 2227               	.LM222:
 2228 0906 6F01      		movw r12,r30
 2229               	.L152:
 493:/Users/manueldeneu/Documents/projets/dev/Monu100/MicroController/MicMonu100/MicMonu100/Display.c ****         display_setPixel( display , x0,  y0  , display->fillColor);
 2231               	.LM223:
 2232 0908 F401      		movw r30,r8
 2233 090a 2081      		ld r18,Z
 2234 090c 412F      		mov r20,r17
 2235 090e 652D      		mov r22,r5
 2236 0910 C501      		movw r24,r10
 2237 0912 3A83      		std Y+2,r19
 2238 0914 5983      		std Y+1,r21
 2239 0916 0E94 0000 		call display_setPixel
 495:/Users/manueldeneu/Documents/projets/dev/Monu100/MicroController/MicMonu100/MicMonu100/Display.c ****         if (x0==x1 && y0==y1)
 2241               	.LM224:
 2242 091a 3A81      		ldd r19,Y+2
 2243 091c 5981      		ldd r21,Y+1
 2244 091e 5410      		cpse r5,r4
 2245 0920 00C0      		rjmp .L155
 2246 0922 00C0      		rjmp .L163
 2247               	.L162:
 2249               	.LM225:
 2250 0924 EE0D      		add r30,r14
 2251 0926 FF1D      		adc r31,r15
 2252 0928 130F      		add r17,r19
 2253 092a 00C0      		rjmp .L158
 2254               	.L146:
 2255               	/* epilogue start */
 500:/Users/manueldeneu/Documents/projets/dev/Monu100/MicroController/MicMonu100/MicMonu100/Display.c ****     }
 501:/Users/manueldeneu/Documents/projets/dev/Monu100/MicroController/MicMonu100/MicMonu100/Display.c **** }
 2257               	.LM226:
 2258 092c 0F90      		pop __tmp_reg__
 2259 092e 0F90      		pop __tmp_reg__
 2260 0930 DF91      		pop r29
 2261 0932 CF91      		pop r28
 2262 0934 1F91      		pop r17
 2263 0936 0F91      		pop r16
 2264 0938 FF90      		pop r15
 2265 093a EF90      		pop r14
 2266 093c DF90      		pop r13
 2267 093e CF90      		pop r12
 2268 0940 BF90      		pop r11
 2269 0942 AF90      		pop r10
 2270 0944 9F90      		pop r9
 2271 0946 8F90      		pop r8
 2272 0948 7F90      		pop r7
 2273 094a 6F90      		pop r6
 2274 094c 5F90      		pop r5
 2275 094e 4F90      		pop r4
 2276 0950 3F90      		pop r3
 2277 0952 2F90      		pop r2
 2278 0954 0895      		ret
 2280               	.Lscope17:
 2281               		.section	.rodata
 2284               	CSWTCH.29:
 2285 0000 0000      		.word	c_0
 2286 0002 0000      		.word	c_1
 2287 0004 0000      		.word	c_2
 2288 0006 0000      		.word	c_3
 2289 0008 0000      		.word	c_4
 2290 000a 0000      		.word	c_5
 2291 000c 0000      		.word	c_6
 2292 000e 0000      		.word	c_7
 2293 0010 0000      		.word	c_8
 2294 0012 0000      		.word	c_9
 2295 0014 0000      		.word	c_NULL
 2296 0016 0000      		.word	c_NULL
 2297 0018 0000      		.word	c_NULL
 2298 001a 0000      		.word	c_NULL
 2299 001c 0000      		.word	c_NULL
 2300 001e 0000      		.word	c_NULL
 2301 0020 0000      		.word	c_NULL
 2302 0022 0000      		.word	c_A
 2303 0024 0000      		.word	c_B
 2304 0026 0000      		.word	c_C
 2305 0028 0000      		.word	c_D
 2306 002a 0000      		.word	c_E
 2307 002c 0000      		.word	c_F
 2308 002e 0000      		.word	c_G
 2309 0030 0000      		.word	c_H
 2310 0032 0000      		.word	c_I
 2311 0034 0000      		.word	c_J
 2312 0036 0000      		.word	c_K
 2313 0038 0000      		.word	c_L
 2314 003a 0000      		.word	c_M
 2315 003c 0000      		.word	c_N
 2316 003e 0000      		.word	c_O
 2317 0040 0000      		.word	c_P
 2318 0042 0000      		.word	c_Q
 2319 0044 0000      		.word	c_R
 2320 0046 0000      		.word	c_S
 2321 0048 0000      		.word	c_T
 2322 004a 0000      		.word	c_U
 2323 004c 0000      		.word	c_V
 2324 004e 0000      		.word	c_W
 2325 0050 0000      		.word	c_X
 2326 0052 0000      		.word	c_Y
 2327 0054 0000      		.word	c_Z
 2328 0056 0000      		.word	c_NULL
 2329 0058 0000      		.word	c_NULL
 2330 005a 0000      		.word	c_NULL
 2331 005c 0000      		.word	c_NULL
 2332 005e 0000      		.word	c_NULL
 2333 0060 0000      		.word	c_NULL
 2334 0062 0000      		.word	c_A
 2335 0064 0000      		.word	c_B
 2336 0066 0000      		.word	c_C
 2337 0068 0000      		.word	c_D
 2338 006a 0000      		.word	c_E
 2339 006c 0000      		.word	c_F
 2340 006e 0000      		.word	c_G
 2341 0070 0000      		.word	c_H
 2342 0072 0000      		.word	c_I
 2343 0074 0000      		.word	c_J
 2344 0076 0000      		.word	c_K
 2345 0078 0000      		.word	c_L
 2346 007a 0000      		.word	c_M
 2347 007c 0000      		.word	c_N
 2348 007e 0000      		.word	c_O
 2349 0080 0000      		.word	c_P
 2350 0082 0000      		.word	c_Q
 2351 0084 0000      		.word	c_R
 2352 0086 0000      		.word	c_S
 2353 0088 0000      		.word	c_T
 2354 008a 0000      		.word	c_U
 2355 008c 0000      		.word	c_V
 2356 008e 0000      		.word	c_W
 2357 0090 0000      		.word	c_X
 2358 0092 0000      		.word	c_Y
 2359 0094 0000      		.word	c_Z
 2360               		.data
 2363               	firstCycleFlag.2429:
 2364 0000 01        		.byte	1
 2365               		.local	xlatNeedsPulse.2430
 2366               		.comm	xlatNeedsPulse.2430,1,1
 2369               	rowIndex.2428:
 2370 0001 1400      		.word	20
 2371               	.global	c_NULL
 2372               		.section	.rodata
 2375               	c_NULL:
 2376 0096 FF        		.byte	-1
 2377 0097 FF        		.byte	-1
 2378 0098 FF        		.byte	-1
 2379 0099 FF        		.byte	-1
 2380 009a FF        		.byte	-1
 2381 009b FF        		.byte	-1
 2382 009c FF        		.byte	-1
 2383 009d FF        		.byte	-1
 2384 009e FF        		.byte	-1
 2385 009f FF        		.byte	-1
 2386 00a0 08        		.byte	8
 2387               	.global	c_Z
 2390               	c_Z:
 2391 00a1 FF        		.byte	-1
 2392 00a2 FF        		.byte	-1
 2393 00a3 06        		.byte	6
 2394 00a4 0C        		.byte	12
 2395 00a5 18        		.byte	24
 2396 00a6 30        		.byte	48
 2397 00a7 60        		.byte	96
 2398 00a8 FF        		.byte	-1
 2399 00a9 FF        		.byte	-1
 2400 00aa 00        		.byte	0
 2401 00ab 08        		.byte	8
 2402               	.global	c_Y
 2405               	c_Y:
 2406 00ac C3        		.byte	-61
 2407 00ad C3        		.byte	-61
 2408 00ae C3        		.byte	-61
 2409 00af FF        		.byte	-1
 2410 00b0 7F        		.byte	127
 2411 00b1 03        		.byte	3
 2412 00b2 03        		.byte	3
 2413 00b3 FF        		.byte	-1
 2414 00b4 FF        		.byte	-1
 2415 00b5 00        		.byte	0
 2416 00b6 08        		.byte	8
 2417               	.global	c_X
 2420               	c_X:
 2421 00b7 C3        		.byte	-61
 2422 00b8 C3        		.byte	-61
 2423 00b9 66        		.byte	102
 2424 00ba 3C        		.byte	60
 2425 00bb 18        		.byte	24
 2426 00bc 3C        		.byte	60
 2427 00bd 66        		.byte	102
 2428 00be C3        		.byte	-61
 2429 00bf C3        		.byte	-61
 2430 00c0 00        		.byte	0
 2431 00c1 08        		.byte	8
 2432               	.global	c_W
 2435               	c_W:
 2436 00c2 DB        		.byte	-37
 2437 00c3 DB        		.byte	-37
 2438 00c4 DB        		.byte	-37
 2439 00c5 DB        		.byte	-37
 2440 00c6 DB        		.byte	-37
 2441 00c7 DB        		.byte	-37
 2442 00c8 DB        		.byte	-37
 2443 00c9 FF        		.byte	-1
 2444 00ca FF        		.byte	-1
 2445 00cb 00        		.byte	0
 2446 00cc 08        		.byte	8
 2447               	.global	c_V
 2450               	c_V:
 2451 00cd C3        		.byte	-61
 2452 00ce C3        		.byte	-61
 2453 00cf C3        		.byte	-61
 2454 00d0 C3        		.byte	-61
 2455 00d1 C3        		.byte	-61
 2456 00d2 C3        		.byte	-61
 2457 00d3 E7        		.byte	-25
 2458 00d4 7E        		.byte	126
 2459 00d5 3C        		.byte	60
 2460 00d6 00        		.byte	0
 2461 00d7 08        		.byte	8
 2462               	.global	c_U
 2465               	c_U:
 2466 00d8 C3        		.byte	-61
 2467 00d9 C3        		.byte	-61
 2468 00da C3        		.byte	-61
 2469 00db C3        		.byte	-61
 2470 00dc C3        		.byte	-61
 2471 00dd C3        		.byte	-61
 2472 00de C3        		.byte	-61
 2473 00df FF        		.byte	-1
 2474 00e0 7E        		.byte	126
 2475 00e1 00        		.byte	0
 2476 00e2 08        		.byte	8
 2477               	.global	c_T
 2480               	c_T:
 2481 00e3 FF        		.byte	-1
 2482 00e4 FF        		.byte	-1
 2483 00e5 18        		.byte	24
 2484 00e6 18        		.byte	24
 2485 00e7 18        		.byte	24
 2486 00e8 18        		.byte	24
 2487 00e9 18        		.byte	24
 2488 00ea 18        		.byte	24
 2489 00eb 18        		.byte	24
 2490 00ec 00        		.byte	0
 2491 00ed 08        		.byte	8
 2492               	.global	c_S
 2495               	c_S:
 2496 00ee 7F        		.byte	127
 2497 00ef FF        		.byte	-1
 2498 00f0 C0        		.byte	-64
 2499 00f1 FE        		.byte	-2
 2500 00f2 FF        		.byte	-1
 2501 00f3 7F        		.byte	127
 2502 00f4 03        		.byte	3
 2503 00f5 FF        		.byte	-1
 2504 00f6 FE        		.byte	-2
 2505 00f7 00        		.byte	0
 2506 00f8 08        		.byte	8
 2507               	.global	c_R
 2510               	c_R:
 2511 00f9 FE        		.byte	-2
 2512 00fa FF        		.byte	-1
 2513 00fb C3        		.byte	-61
 2514 00fc C3        		.byte	-61
 2515 00fd FF        		.byte	-1
 2516 00fe FE        		.byte	-2
 2517 00ff C6        		.byte	-58
 2518 0100 C7        		.byte	-57
 2519 0101 C7        		.byte	-57
 2520 0102 00        		.byte	0
 2521 0103 08        		.byte	8
 2522               	.global	c_Q
 2525               	c_Q:
 2526 0104 7E        		.byte	126
 2527 0105 FF        		.byte	-1
 2528 0106 C3        		.byte	-61
 2529 0107 C3        		.byte	-61
 2530 0108 C3        		.byte	-61
 2531 0109 C3        		.byte	-61
 2532 010a DB        		.byte	-37
 2533 010b FF        		.byte	-1
 2534 010c 7E        		.byte	126
 2535 010d 0C        		.byte	12
 2536 010e 08        		.byte	8
 2537               	.global	c_P
 2540               	c_P:
 2541 010f FE        		.byte	-2
 2542 0110 FF        		.byte	-1
 2543 0111 C3        		.byte	-61
 2544 0112 C3        		.byte	-61
 2545 0113 FF        		.byte	-1
 2546 0114 FE        		.byte	-2
 2547 0115 C0        		.byte	-64
 2548 0116 C0        		.byte	-64
 2549 0117 C0        		.byte	-64
 2550 0118 00        		.byte	0
 2551 0119 08        		.byte	8
 2552               	.global	c_O
 2555               	c_O:
 2556 011a 7E        		.byte	126
 2557 011b FF        		.byte	-1
 2558 011c C3        		.byte	-61
 2559 011d C3        		.byte	-61
 2560 011e C3        		.byte	-61
 2561 011f C3        		.byte	-61
 2562 0120 C3        		.byte	-61
 2563 0121 FF        		.byte	-1
 2564 0122 7E        		.byte	126
 2565 0123 00        		.byte	0
 2566 0124 08        		.byte	8
 2567               	.global	c_N
 2570               	c_N:
 2571 0125 C3        		.byte	-61
 2572 0126 C3        		.byte	-61
 2573 0127 E3        		.byte	-29
 2574 0128 F3        		.byte	-13
 2575 0129 DB        		.byte	-37
 2576 012a CF        		.byte	-49
 2577 012b C7        		.byte	-57
 2578 012c C3        		.byte	-61
 2579 012d C3        		.byte	-61
 2580 012e 00        		.byte	0
 2581 012f 08        		.byte	8
 2582               	.global	c_M
 2585               	c_M:
 2586 0130 FF        		.byte	-1
 2587 0131 DB        		.byte	-37
 2588 0132 DB        		.byte	-37
 2589 0133 DB        		.byte	-37
 2590 0134 DB        		.byte	-37
 2591 0135 DB        		.byte	-37
 2592 0136 DB        		.byte	-37
 2593 0137 DB        		.byte	-37
 2594 0138 DB        		.byte	-37
 2595 0139 00        		.byte	0
 2596 013a 08        		.byte	8
 2597               	.global	c_L
 2600               	c_L:
 2601 013b 60        		.byte	96
 2602 013c 60        		.byte	96
 2603 013d 60        		.byte	96
 2604 013e 60        		.byte	96
 2605 013f 60        		.byte	96
 2606 0140 60        		.byte	96
 2607 0141 60        		.byte	96
 2608 0142 7E        		.byte	126
 2609 0143 7E        		.byte	126
 2610 0144 00        		.byte	0
 2611 0145 08        		.byte	8
 2612               	.global	c_K
 2615               	c_K:
 2616 0146 66        		.byte	102
 2617 0147 66        		.byte	102
 2618 0148 66        		.byte	102
 2619 0149 7C        		.byte	124
 2620 014a 7C        		.byte	124
 2621 014b 7C        		.byte	124
 2622 014c 66        		.byte	102
 2623 014d 66        		.byte	102
 2624 014e 66        		.byte	102
 2625 014f 00        		.byte	0
 2626 0150 08        		.byte	8
 2627               	.global	c_J
 2630               	c_J:
 2631 0151 7E        		.byte	126
 2632 0152 7E        		.byte	126
 2633 0153 06        		.byte	6
 2634 0154 06        		.byte	6
 2635 0155 06        		.byte	6
 2636 0156 06        		.byte	6
 2637 0157 66        		.byte	102
 2638 0158 7E        		.byte	126
 2639 0159 3C        		.byte	60
 2640 015a 00        		.byte	0
 2641 015b 08        		.byte	8
 2642               	.global	c_I
 2645               	c_I:
 2646 015c 7E        		.byte	126
 2647 015d 7E        		.byte	126
 2648 015e 18        		.byte	24
 2649 015f 18        		.byte	24
 2650 0160 18        		.byte	24
 2651 0161 18        		.byte	24
 2652 0162 18        		.byte	24
 2653 0163 7E        		.byte	126
 2654 0164 7E        		.byte	126
 2655 0165 00        		.byte	0
 2656 0166 08        		.byte	8
 2657               	.global	c_H
 2660               	c_H:
 2661 0167 C3        		.byte	-61
 2662 0168 C3        		.byte	-61
 2663 0169 C3        		.byte	-61
 2664 016a FF        		.byte	-1
 2665 016b FF        		.byte	-1
 2666 016c C3        		.byte	-61
 2667 016d C3        		.byte	-61
 2668 016e C3        		.byte	-61
 2669 016f C3        		.byte	-61
 2670 0170 00        		.byte	0
 2671 0171 08        		.byte	8
 2672               	.global	c_G
 2675               	c_G:
 2676 0172 7F        		.byte	127
 2677 0173 FF        		.byte	-1
 2678 0174 C0        		.byte	-64
 2679 0175 C0        		.byte	-64
 2680 0176 CE        		.byte	-50
 2681 0177 CF        		.byte	-49
 2682 0178 C3        		.byte	-61
 2683 0179 FF        		.byte	-1
 2684 017a 7E        		.byte	126
 2685 017b 00        		.byte	0
 2686 017c 08        		.byte	8
 2687               	.global	c_F
 2690               	c_F:
 2691 017d 7E        		.byte	126
 2692 017e 7E        		.byte	126
 2693 017f 60        		.byte	96
 2694 0180 7C        		.byte	124
 2695 0181 7C        		.byte	124
 2696 0182 60        		.byte	96
 2697 0183 60        		.byte	96
 2698 0184 60        		.byte	96
 2699 0185 60        		.byte	96
 2700 0186 00        		.byte	0
 2701 0187 08        		.byte	8
 2702               	.global	c_E
 2705               	c_E:
 2706 0188 7E        		.byte	126
 2707 0189 7E        		.byte	126
 2708 018a 60        		.byte	96
 2709 018b 7C        		.byte	124
 2710 018c 7C        		.byte	124
 2711 018d 60        		.byte	96
 2712 018e 60        		.byte	96
 2713 018f 7E        		.byte	126
 2714 0190 7E        		.byte	126
 2715 0191 00        		.byte	0
 2716 0192 08        		.byte	8
 2717               	.global	c_D
 2720               	c_D:
 2721 0193 FE        		.byte	-2
 2722 0194 FF        		.byte	-1
 2723 0195 C3        		.byte	-61
 2724 0196 C3        		.byte	-61
 2725 0197 C3        		.byte	-61
 2726 0198 C3        		.byte	-61
 2727 0199 C3        		.byte	-61
 2728 019a FF        		.byte	-1
 2729 019b FE        		.byte	-2
 2730 019c 00        		.byte	0
 2731 019d 08        		.byte	8
 2732               	.global	c_C
 2735               	c_C:
 2736 019e 3E        		.byte	62
 2737 019f 7E        		.byte	126
 2738 01a0 60        		.byte	96
 2739 01a1 60        		.byte	96
 2740 01a2 60        		.byte	96
 2741 01a3 60        		.byte	96
 2742 01a4 60        		.byte	96
 2743 01a5 7E        		.byte	126
 2744 01a6 3E        		.byte	62
 2745 01a7 00        		.byte	0
 2746 01a8 08        		.byte	8
 2747               	.global	c_B
 2750               	c_B:
 2751 01a9 FC        		.byte	-4
 2752 01aa FE        		.byte	-2
 2753 01ab C6        		.byte	-58
 2754 01ac FE        		.byte	-2
 2755 01ad FF        		.byte	-1
 2756 01ae C3        		.byte	-61
 2757 01af C3        		.byte	-61
 2758 01b0 FF        		.byte	-1
 2759 01b1 FF        		.byte	-1
 2760 01b2 00        		.byte	0
 2761 01b3 08        		.byte	8
 2762               	.global	c_A
 2765               	c_A:
 2766 01b4 3C        		.byte	60
 2767 01b5 3C        		.byte	60
 2768 01b6 C3        		.byte	-61
 2769 01b7 C3        		.byte	-61
 2770 01b8 FF        		.byte	-1
 2771 01b9 FF        		.byte	-1
 2772 01ba C3        		.byte	-61
 2773 01bb C3        		.byte	-61
 2774 01bc C3        		.byte	-61
 2775 01bd 00        		.byte	0
 2776 01be 08        		.byte	8
 2777               	.global	c_9
 2780               	c_9:
 2781 01bf 7E        		.byte	126
 2782 01c0 7E        		.byte	126
 2783 01c1 66        		.byte	102
 2784 01c2 7E        		.byte	126
 2785 01c3 7E        		.byte	126
 2786 01c4 06        		.byte	6
 2787 01c5 06        		.byte	6
 2788 01c6 7E        		.byte	126
 2789 01c7 7E        		.byte	126
 2790 01c8 00        		.byte	0
 2791 01c9 08        		.byte	8
 2792               	.global	c_8
 2795               	c_8:
 2796 01ca 7E        		.byte	126
 2797 01cb 7E        		.byte	126
 2798 01cc 66        		.byte	102
 2799 01cd 7E        		.byte	126
 2800 01ce 7E        		.byte	126
 2801 01cf 66        		.byte	102
 2802 01d0 66        		.byte	102
 2803 01d1 7E        		.byte	126
 2804 01d2 7E        		.byte	126
 2805 01d3 00        		.byte	0
 2806 01d4 08        		.byte	8
 2807               	.global	c_7
 2810               	c_7:
 2811 01d5 7E        		.byte	126
 2812 01d6 7E        		.byte	126
 2813 01d7 06        		.byte	6
 2814 01d8 0E        		.byte	14
 2815 01d9 1C        		.byte	28
 2816 01da 38        		.byte	56
 2817 01db 30        		.byte	48
 2818 01dc 30        		.byte	48
 2819 01dd 30        		.byte	48
 2820 01de 00        		.byte	0
 2821 01df 08        		.byte	8
 2822               	.global	c_6
 2825               	c_6:
 2826 01e0 7E        		.byte	126
 2827 01e1 7E        		.byte	126
 2828 01e2 60        		.byte	96
 2829 01e3 7E        		.byte	126
 2830 01e4 7E        		.byte	126
 2831 01e5 66        		.byte	102
 2832 01e6 66        		.byte	102
 2833 01e7 7E        		.byte	126
 2834 01e8 7E        		.byte	126
 2835 01e9 00        		.byte	0
 2836 01ea 08        		.byte	8
 2837               	.global	c_5
 2840               	c_5:
 2841 01eb 7E        		.byte	126
 2842 01ec 7E        		.byte	126
 2843 01ed 60        		.byte	96
 2844 01ee 7C        		.byte	124
 2845 01ef 7E        		.byte	126
 2846 01f0 06        		.byte	6
 2847 01f1 06        		.byte	6
 2848 01f2 7E        		.byte	126
 2849 01f3 7C        		.byte	124
 2850 01f4 00        		.byte	0
 2851 01f5 08        		.byte	8
 2852               	.global	c_4
 2855               	c_4:
 2856 01f6 66        		.byte	102
 2857 01f7 66        		.byte	102
 2858 01f8 66        		.byte	102
 2859 01f9 7E        		.byte	126
 2860 01fa 7E        		.byte	126
 2861 01fb 06        		.byte	6
 2862 01fc 06        		.byte	6
 2863 01fd 06        		.byte	6
 2864 01fe 06        		.byte	6
 2865 01ff 00        		.byte	0
 2866 0200 08        		.byte	8
 2867               	.global	c_3
 2870               	c_3:
 2871 0201 7E        		.byte	126
 2872 0202 7E        		.byte	126
 2873 0203 46        		.byte	70
 2874 0204 1E        		.byte	30
 2875 0205 1C        		.byte	28
 2876 0206 1E        		.byte	30
 2877 0207 46        		.byte	70
 2878 0208 7E        		.byte	126
 2879 0209 7E        		.byte	126
 2880 020a 00        		.byte	0
 2881 020b 08        		.byte	8
 2882               	.global	c_2
 2885               	c_2:
 2886 020c 7E        		.byte	126
 2887 020d 7E        		.byte	126
 2888 020e 66        		.byte	102
 2889 020f 0C        		.byte	12
 2890 0210 18        		.byte	24
 2891 0211 30        		.byte	48
 2892 0212 60        		.byte	96
 2893 0213 7E        		.byte	126
 2894 0214 7E        		.byte	126
 2895 0215 00        		.byte	0
 2896 0216 08        		.byte	8
 2897               	.global	c_1
 2900               	c_1:
 2901 0217 3C        		.byte	60
 2902 0218 3C        		.byte	60
 2903 0219 0C        		.byte	12
 2904 021a 0C        		.byte	12
 2905 021b 0C        		.byte	12
 2906 021c 0C        		.byte	12
 2907 021d 0C        		.byte	12
 2908 021e 0C        		.byte	12
 2909 021f 0C        		.byte	12
 2910 0220 00        		.byte	0
 2911 0221 08        		.byte	8
 2912               	.global	c_0
 2915               	c_0:
 2916 0222 3C        		.byte	60
 2917 0223 7E        		.byte	126
 2918 0224 66        		.byte	102
 2919 0225 66        		.byte	102
 2920 0226 66        		.byte	102
 2921 0227 66        		.byte	102
 2922 0228 66        		.byte	102
 2923 0229 7E        		.byte	126
 2924 022a 3C        		.byte	60
 2925 022b 00        		.byte	0
 2926 022c 08        		.byte	8
 2964               		.text
 2966               	.Letext0:
 2967               		.ident	"GCC: (GNU) 4.8.1"
 2968               	.global __do_copy_data
 2969               	.global __do_clear_bss
DEFINED SYMBOLS
                            *ABS*:00000000 Display.c
/var/folders/yp/wn04j3ms5mn9jhx6j8jq8l4c0000gn/T//ccYnACGL.s:2      *ABS*:0000003e __SP_H__
/var/folders/yp/wn04j3ms5mn9jhx6j8jq8l4c0000gn/T//ccYnACGL.s:3      *ABS*:0000003d __SP_L__
/var/folders/yp/wn04j3ms5mn9jhx6j8jq8l4c0000gn/T//ccYnACGL.s:4      *ABS*:0000003f __SREG__
/var/folders/yp/wn04j3ms5mn9jhx6j8jq8l4c0000gn/T//ccYnACGL.s:5      *ABS*:0000003b __RAMPZ__
/var/folders/yp/wn04j3ms5mn9jhx6j8jq8l4c0000gn/T//ccYnACGL.s:6      *ABS*:00000000 __tmp_reg__
/var/folders/yp/wn04j3ms5mn9jhx6j8jq8l4c0000gn/T//ccYnACGL.s:7      *ABS*:00000001 __zero_reg__
/var/folders/yp/wn04j3ms5mn9jhx6j8jq8l4c0000gn/T//ccYnACGL.s:144    .text:00000000 getCharWidth
/var/folders/yp/wn04j3ms5mn9jhx6j8jq8l4c0000gn/T//ccYnACGL.s:161    .text:00000004 getCharHeight
/var/folders/yp/wn04j3ms5mn9jhx6j8jq8l4c0000gn/T//ccYnACGL.s:178    .text:00000008 __vector_21
/var/folders/yp/wn04j3ms5mn9jhx6j8jq8l4c0000gn/T//ccYnACGL.s:2369   .data:00000001 rowIndex.2428
                             .bss:00000000 xlatNeedsPulse.2430
/var/folders/yp/wn04j3ms5mn9jhx6j8jq8l4c0000gn/T//ccYnACGL.s:2363   .data:00000000 firstCycleFlag.2429
/var/folders/yp/wn04j3ms5mn9jhx6j8jq8l4c0000gn/T//ccYnACGL.s:699    .text:00000280 TLC5940_Init
/var/folders/yp/wn04j3ms5mn9jhx6j8jq8l4c0000gn/T//ccYnACGL.s:824    .text:00000326 display_setFontColor
/var/folders/yp/wn04j3ms5mn9jhx6j8jq8l4c0000gn/T//ccYnACGL.s:858    .text:00000336 display_setFillColor
/var/folders/yp/wn04j3ms5mn9jhx6j8jq8l4c0000gn/T//ccYnACGL.s:895    .text:00000346 display_clearZoneDraw
/var/folders/yp/wn04j3ms5mn9jhx6j8jq8l4c0000gn/T//ccYnACGL.s:1002   .text:000003a2 display_clearZoneText
/var/folders/yp/wn04j3ms5mn9jhx6j8jq8l4c0000gn/T//ccYnACGL.s:1103   .text:000003fa display_init
/var/folders/yp/wn04j3ms5mn9jhx6j8jq8l4c0000gn/T//ccYnACGL.s:1174   .text:0000043c display_translate
/var/folders/yp/wn04j3ms5mn9jhx6j8jq8l4c0000gn/T//ccYnACGL.s:1193   .text:0000043e display_write
/var/folders/yp/wn04j3ms5mn9jhx6j8jq8l4c0000gn/T//ccYnACGL.s:2284   .rodata:00000000 CSWTCH.29
/var/folders/yp/wn04j3ms5mn9jhx6j8jq8l4c0000gn/T//ccYnACGL.s:2375   .rodata:00000096 c_NULL
/var/folders/yp/wn04j3ms5mn9jhx6j8jq8l4c0000gn/T//ccYnACGL.s:1519   .text:000005b2 display_writeImage
/var/folders/yp/wn04j3ms5mn9jhx6j8jq8l4c0000gn/T//ccYnACGL.s:1612   .text:0000060c display_fillZone
/var/folders/yp/wn04j3ms5mn9jhx6j8jq8l4c0000gn/T//ccYnACGL.s:1747   .text:00000696 display_setPixel
/var/folders/yp/wn04j3ms5mn9jhx6j8jq8l4c0000gn/T//ccYnACGL.s:1799   .text:000006bc display_addPixel
/var/folders/yp/wn04j3ms5mn9jhx6j8jq8l4c0000gn/T//ccYnACGL.s:1851   .text:000006e2 display_drawCircle
/var/folders/yp/wn04j3ms5mn9jhx6j8jq8l4c0000gn/T//ccYnACGL.s:2087   .text:0000084a display_drawLine
/var/folders/yp/wn04j3ms5mn9jhx6j8jq8l4c0000gn/T//ccYnACGL.s:2915   .rodata:00000222 c_0
/var/folders/yp/wn04j3ms5mn9jhx6j8jq8l4c0000gn/T//ccYnACGL.s:2900   .rodata:00000217 c_1
/var/folders/yp/wn04j3ms5mn9jhx6j8jq8l4c0000gn/T//ccYnACGL.s:2885   .rodata:0000020c c_2
/var/folders/yp/wn04j3ms5mn9jhx6j8jq8l4c0000gn/T//ccYnACGL.s:2870   .rodata:00000201 c_3
/var/folders/yp/wn04j3ms5mn9jhx6j8jq8l4c0000gn/T//ccYnACGL.s:2855   .rodata:000001f6 c_4
/var/folders/yp/wn04j3ms5mn9jhx6j8jq8l4c0000gn/T//ccYnACGL.s:2840   .rodata:000001eb c_5
/var/folders/yp/wn04j3ms5mn9jhx6j8jq8l4c0000gn/T//ccYnACGL.s:2825   .rodata:000001e0 c_6
/var/folders/yp/wn04j3ms5mn9jhx6j8jq8l4c0000gn/T//ccYnACGL.s:2810   .rodata:000001d5 c_7
/var/folders/yp/wn04j3ms5mn9jhx6j8jq8l4c0000gn/T//ccYnACGL.s:2795   .rodata:000001ca c_8
/var/folders/yp/wn04j3ms5mn9jhx6j8jq8l4c0000gn/T//ccYnACGL.s:2780   .rodata:000001bf c_9
/var/folders/yp/wn04j3ms5mn9jhx6j8jq8l4c0000gn/T//ccYnACGL.s:2765   .rodata:000001b4 c_A
/var/folders/yp/wn04j3ms5mn9jhx6j8jq8l4c0000gn/T//ccYnACGL.s:2750   .rodata:000001a9 c_B
/var/folders/yp/wn04j3ms5mn9jhx6j8jq8l4c0000gn/T//ccYnACGL.s:2735   .rodata:0000019e c_C
/var/folders/yp/wn04j3ms5mn9jhx6j8jq8l4c0000gn/T//ccYnACGL.s:2720   .rodata:00000193 c_D
/var/folders/yp/wn04j3ms5mn9jhx6j8jq8l4c0000gn/T//ccYnACGL.s:2705   .rodata:00000188 c_E
/var/folders/yp/wn04j3ms5mn9jhx6j8jq8l4c0000gn/T//ccYnACGL.s:2690   .rodata:0000017d c_F
/var/folders/yp/wn04j3ms5mn9jhx6j8jq8l4c0000gn/T//ccYnACGL.s:2675   .rodata:00000172 c_G
/var/folders/yp/wn04j3ms5mn9jhx6j8jq8l4c0000gn/T//ccYnACGL.s:2660   .rodata:00000167 c_H
/var/folders/yp/wn04j3ms5mn9jhx6j8jq8l4c0000gn/T//ccYnACGL.s:2645   .rodata:0000015c c_I
/var/folders/yp/wn04j3ms5mn9jhx6j8jq8l4c0000gn/T//ccYnACGL.s:2630   .rodata:00000151 c_J
/var/folders/yp/wn04j3ms5mn9jhx6j8jq8l4c0000gn/T//ccYnACGL.s:2615   .rodata:00000146 c_K
/var/folders/yp/wn04j3ms5mn9jhx6j8jq8l4c0000gn/T//ccYnACGL.s:2600   .rodata:0000013b c_L
/var/folders/yp/wn04j3ms5mn9jhx6j8jq8l4c0000gn/T//ccYnACGL.s:2585   .rodata:00000130 c_M
/var/folders/yp/wn04j3ms5mn9jhx6j8jq8l4c0000gn/T//ccYnACGL.s:2570   .rodata:00000125 c_N
/var/folders/yp/wn04j3ms5mn9jhx6j8jq8l4c0000gn/T//ccYnACGL.s:2555   .rodata:0000011a c_O
/var/folders/yp/wn04j3ms5mn9jhx6j8jq8l4c0000gn/T//ccYnACGL.s:2540   .rodata:0000010f c_P
/var/folders/yp/wn04j3ms5mn9jhx6j8jq8l4c0000gn/T//ccYnACGL.s:2525   .rodata:00000104 c_Q
/var/folders/yp/wn04j3ms5mn9jhx6j8jq8l4c0000gn/T//ccYnACGL.s:2510   .rodata:000000f9 c_R
/var/folders/yp/wn04j3ms5mn9jhx6j8jq8l4c0000gn/T//ccYnACGL.s:2495   .rodata:000000ee c_S
/var/folders/yp/wn04j3ms5mn9jhx6j8jq8l4c0000gn/T//ccYnACGL.s:2480   .rodata:000000e3 c_T
/var/folders/yp/wn04j3ms5mn9jhx6j8jq8l4c0000gn/T//ccYnACGL.s:2465   .rodata:000000d8 c_U
/var/folders/yp/wn04j3ms5mn9jhx6j8jq8l4c0000gn/T//ccYnACGL.s:2450   .rodata:000000cd c_V
/var/folders/yp/wn04j3ms5mn9jhx6j8jq8l4c0000gn/T//ccYnACGL.s:2435   .rodata:000000c2 c_W
/var/folders/yp/wn04j3ms5mn9jhx6j8jq8l4c0000gn/T//ccYnACGL.s:2420   .rodata:000000b7 c_X
/var/folders/yp/wn04j3ms5mn9jhx6j8jq8l4c0000gn/T//ccYnACGL.s:2405   .rodata:000000ac c_Y
/var/folders/yp/wn04j3ms5mn9jhx6j8jq8l4c0000gn/T//ccYnACGL.s:2390   .rodata:000000a1 c_Z

UNDEFINED SYMBOLS
_display
__do_copy_data
__do_clear_bss
