   1               		.file	"Display.c"
   2               	__SP_H__ = 0x3e
   3               	__SP_L__ = 0x3d
   4               	__SREG__ = 0x3f
   5               	__RAMPZ__ = 0x3b
   6               	__tmp_reg__ = 0
   7               	__zero_reg__ = 1
   9               		.text
  10               	.Ltext0:
 142               	.global	getCharWidth
 144               	getCharWidth:
   1:/Users/manueldeneu/Documents/projets/dev/Monu100/MicroController/MicMonu100/MicMonu100/Display.c **** //
   2:/Users/manueldeneu/Documents/projets/dev/Monu100/MicroController/MicMonu100/MicMonu100/Display.c **** //  Display.c
   3:/Users/manueldeneu/Documents/projets/dev/Monu100/MicroController/MicMonu100/MicMonu100/Display.c **** //  MicMonu100
   4:/Users/manueldeneu/Documents/projets/dev/Monu100/MicroController/MicMonu100/MicMonu100/Display.c **** //
   5:/Users/manueldeneu/Documents/projets/dev/Monu100/MicroController/MicMonu100/MicMonu100/Display.c **** //  Created by Manuel Deneu on 01/03/15.
   6:/Users/manueldeneu/Documents/projets/dev/Monu100/MicroController/MicMonu100/MicMonu100/Display.c **** //  Copyright (c) 2015 Manuel Deneu. All rights reserved.
   7:/Users/manueldeneu/Documents/projets/dev/Monu100/MicroController/MicMonu100/MicMonu100/Display.c **** //
   8:/Users/manueldeneu/Documents/projets/dev/Monu100/MicroController/MicMonu100/MicMonu100/Display.c **** #include <stdio.h>
   9:/Users/manueldeneu/Documents/projets/dev/Monu100/MicroController/MicMonu100/MicMonu100/Display.c **** #include <avr/io.h>
  10:/Users/manueldeneu/Documents/projets/dev/Monu100/MicroController/MicMonu100/MicMonu100/Display.c **** #define __PROG_TYPES_COMPAT__
  11:/Users/manueldeneu/Documents/projets/dev/Monu100/MicroController/MicMonu100/MicMonu100/Display.c **** #include <avr/pgmspace.h>
  12:/Users/manueldeneu/Documents/projets/dev/Monu100/MicroController/MicMonu100/MicMonu100/Display.c **** #include <avr/interrupt.h>
  13:/Users/manueldeneu/Documents/projets/dev/Monu100/MicroController/MicMonu100/MicMonu100/Display.c **** #include <stdlib.h>
  14:/Users/manueldeneu/Documents/projets/dev/Monu100/MicroController/MicMonu100/MicMonu100/Display.c **** 
  15:/Users/manueldeneu/Documents/projets/dev/Monu100/MicroController/MicMonu100/MicMonu100/Display.c **** #include <util/delay.h>
  16:/Users/manueldeneu/Documents/projets/dev/Monu100/MicroController/MicMonu100/MicMonu100/Display.c **** #include "MCP2515.h"
  17:/Users/manueldeneu/Documents/projets/dev/Monu100/MicroController/MicMonu100/MicMonu100/Display.c **** #include "PinsConfig.h"
  18:/Users/manueldeneu/Documents/projets/dev/Monu100/MicroController/MicMonu100/MicMonu100/Display.c **** 
  19:/Users/manueldeneu/Documents/projets/dev/Monu100/MicroController/MicMonu100/MicMonu100/Display.c **** #include "Display.h"
  20:/Users/manueldeneu/Documents/projets/dev/Monu100/MicroController/MicMonu100/MicMonu100/Display.c **** 
  21:/Users/manueldeneu/Documents/projets/dev/Monu100/MicroController/MicMonu100/MicMonu100/Display.c **** #include "Chars.h"
  22:/Users/manueldeneu/Documents/projets/dev/Monu100/MicroController/MicMonu100/MicMonu100/Display.c **** 
  23:/Users/manueldeneu/Documents/projets/dev/Monu100/MicroController/MicMonu100/MicMonu100/Display.c **** 
  24:/Users/manueldeneu/Documents/projets/dev/Monu100/MicroController/MicMonu100/MicMonu100/Display.c **** extern Display _display;
  25:/Users/manueldeneu/Documents/projets/dev/Monu100/MicroController/MicMonu100/MicMonu100/Display.c **** 
  26:/Users/manueldeneu/Documents/projets/dev/Monu100/MicroController/MicMonu100/MicMonu100/Display.c **** /* **** **** **** **** **** **** **** **** **** **** **** **** **** **** **** **** **** **** **** *
  27:/Users/manueldeneu/Documents/projets/dev/Monu100/MicroController/MicMonu100/MicMonu100/Display.c **** 
  28:/Users/manueldeneu/Documents/projets/dev/Monu100/MicroController/MicMonu100/MicMonu100/Display.c **** uint8_t getCharWidth()
  29:/Users/manueldeneu/Documents/projets/dev/Monu100/MicroController/MicMonu100/MicMonu100/Display.c **** {
 146               	.LM0:
 147               	.LFBB1:
 148               	/* prologue: function */
 149               	/* frame size = 0 */
 150               	/* stack size = 0 */
 151               	.L__stack_usage = 0
  30:/Users/manueldeneu/Documents/projets/dev/Monu100/MicroController/MicMonu100/MicMonu100/Display.c ****     return CHAR_WIDTH;
  31:/Users/manueldeneu/Documents/projets/dev/Monu100/MicroController/MicMonu100/MicMonu100/Display.c **** }
 153               	.LM1:
 154 0000 88E0      		ldi r24,lo8(8)
 155 0002 0895      		ret
 157               	.Lscope1:
 159               	.global	getCharHeight
 161               	getCharHeight:
  32:/Users/manueldeneu/Documents/projets/dev/Monu100/MicroController/MicMonu100/MicMonu100/Display.c **** uint8_t getCharHeight()
  33:/Users/manueldeneu/Documents/projets/dev/Monu100/MicroController/MicMonu100/MicMonu100/Display.c **** {
 163               	.LM2:
 164               	.LFBB2:
 165               	/* prologue: function */
 166               	/* frame size = 0 */
 167               	/* stack size = 0 */
 168               	.L__stack_usage = 0
  34:/Users/manueldeneu/Documents/projets/dev/Monu100/MicroController/MicMonu100/MicMonu100/Display.c ****     return CHAR_HEIGHT;
  35:/Users/manueldeneu/Documents/projets/dev/Monu100/MicroController/MicMonu100/MicMonu100/Display.c **** }
 170               	.LM3:
 171 0004 8AE0      		ldi r24,lo8(10)
 172 0006 0895      		ret
 174               	.Lscope2:
 176               	.global	__vector_21
 178               	__vector_21:
  36:/Users/manueldeneu/Documents/projets/dev/Monu100/MicroController/MicMonu100/MicMonu100/Display.c **** 
  37:/Users/manueldeneu/Documents/projets/dev/Monu100/MicroController/MicMonu100/MicMonu100/Display.c **** inline uint8_t clipVal( uint8_t val)
  38:/Users/manueldeneu/Documents/projets/dev/Monu100/MicroController/MicMonu100/MicMonu100/Display.c **** {
  39:/Users/manueldeneu/Documents/projets/dev/Monu100/MicroController/MicMonu100/MicMonu100/Display.c ****     return val>=PIXEL_MAX_VALUE ? PIXEL_MAX_VALUE : val;
  40:/Users/manueldeneu/Documents/projets/dev/Monu100/MicroController/MicMonu100/MicMonu100/Display.c **** }
  41:/Users/manueldeneu/Documents/projets/dev/Monu100/MicroController/MicMonu100/MicMonu100/Display.c **** 
  42:/Users/manueldeneu/Documents/projets/dev/Monu100/MicroController/MicMonu100/MicMonu100/Display.c **** inline uint8_t getPixel( const uint8_t x , const uint8_t y)
  43:/Users/manueldeneu/Documents/projets/dev/Monu100/MicroController/MicMonu100/MicMonu100/Display.c **** {
  44:/Users/manueldeneu/Documents/projets/dev/Monu100/MicroController/MicMonu100/MicMonu100/Display.c ****     return _display.buff_text[x][y] +_display.buff_draw[x][y] ;
  45:/Users/manueldeneu/Documents/projets/dev/Monu100/MicroController/MicMonu100/MicMonu100/Display.c **** }
  46:/Users/manueldeneu/Documents/projets/dev/Monu100/MicroController/MicMonu100/MicMonu100/Display.c **** 
  47:/Users/manueldeneu/Documents/projets/dev/Monu100/MicroController/MicMonu100/MicMonu100/Display.c **** /* **** **** **** **** **** **** **** **** **** **** **** **** **** **** **** **** **** **** **** *
  48:/Users/manueldeneu/Documents/projets/dev/Monu100/MicroController/MicMonu100/MicMonu100/Display.c **** /* **** **** **** **** **** **** **** **** **** **** **** **** **** **** **** **** **** **** **** *
  49:/Users/manueldeneu/Documents/projets/dev/Monu100/MicroController/MicMonu100/MicMonu100/Display.c **** 
  50:/Users/manueldeneu/Documents/projets/dev/Monu100/MicroController/MicMonu100/MicMonu100/Display.c **** inline void sendSPI( const uint8_t val)
  51:/Users/manueldeneu/Documents/projets/dev/Monu100/MicroController/MicMonu100/MicMonu100/Display.c **** {
  52:/Users/manueldeneu/Documents/projets/dev/Monu100/MicroController/MicMonu100/MicMonu100/Display.c ****     SPDR = val;
  53:/Users/manueldeneu/Documents/projets/dev/Monu100/MicroController/MicMonu100/MicMonu100/Display.c ****     while (!(SPSR & (1 << SPIF)));
  54:/Users/manueldeneu/Documents/projets/dev/Monu100/MicroController/MicMonu100/MicMonu100/Display.c **** }
  55:/Users/manueldeneu/Documents/projets/dev/Monu100/MicroController/MicMonu100/MicMonu100/Display.c **** 
  56:/Users/manueldeneu/Documents/projets/dev/Monu100/MicroController/MicMonu100/MicMonu100/Display.c **** /* **** **** **** **** **** **** **** **** **** **** **** **** **** **** **** **** **** **** **** *
  57:/Users/manueldeneu/Documents/projets/dev/Monu100/MicroController/MicMonu100/MicMonu100/Display.c **** // display's interupt
  58:/Users/manueldeneu/Documents/projets/dev/Monu100/MicroController/MicMonu100/MicMonu100/Display.c **** 
  59:/Users/manueldeneu/Documents/projets/dev/Monu100/MicroController/MicMonu100/MicMonu100/Display.c **** ISR(TIMER0_COMPA_vect)
  60:/Users/manueldeneu/Documents/projets/dev/Monu100/MicroController/MicMonu100/MicMonu100/Display.c **** {
 180               	.LM4:
 181               	.LFBB3:
 182 0008 1F92      		push r1
 183 000a 0F92      		push r0
 184 000c 0FB6      		in r0,__SREG__
 185 000e 0F92      		push r0
 186 0010 1124      		clr __zero_reg__
 187 0012 0BB6      		in r0,__RAMPZ__
 188 0014 0F92      		push r0
 189 0016 2F93      		push r18
 190 0018 3F93      		push r19
 191 001a 4F93      		push r20
 192 001c 5F93      		push r21
 193 001e 6F93      		push r22
 194 0020 7F93      		push r23
 195 0022 8F93      		push r24
 196 0024 9F93      		push r25
 197 0026 AF93      		push r26
 198 0028 BF93      		push r27
 199 002a CF93      		push r28
 200 002c EF93      		push r30
 201 002e FF93      		push r31
 202               	/* prologue: Signal */
 203               	/* frame size = 0 */
 204               	/* stack size = 17 */
 205               	.L__stack_usage = 17
  61:/Users/manueldeneu/Documents/projets/dev/Monu100/MicroController/MicMonu100/MicMonu100/Display.c **** 
  62:/Users/manueldeneu/Documents/projets/dev/Monu100/MicroController/MicMonu100/MicMonu100/Display.c ****     static uint16_t rowIndex = Y_MIC_MAX;
  63:/Users/manueldeneu/Documents/projets/dev/Monu100/MicroController/MicMonu100/MicMonu100/Display.c ****     static uint8_t firstCycleFlag = 1;// 0;
  64:/Users/manueldeneu/Documents/projets/dev/Monu100/MicroController/MicMonu100/MicMonu100/Display.c ****     static uint8_t xlatNeedsPulse = 0;
  65:/Users/manueldeneu/Documents/projets/dev/Monu100/MicroController/MicMonu100/MicMonu100/Display.c ****     
  66:/Users/manueldeneu/Documents/projets/dev/Monu100/MicroController/MicMonu100/MicMonu100/Display.c ****     
  67:/Users/manueldeneu/Documents/projets/dev/Monu100/MicroController/MicMonu100/MicMonu100/Display.c **** 
  68:/Users/manueldeneu/Documents/projets/dev/Monu100/MicroController/MicMonu100/MicMonu100/Display.c ****     
  69:/Users/manueldeneu/Documents/projets/dev/Monu100/MicroController/MicMonu100/MicMonu100/Display.c ****     if ( rowIndex == Y_MIC_MAX ) // matrix ok. return col0;
 207               	.LM5:
 208 0030 8091 0000 		lds r24,rowIndex.2428
 209 0034 9091 0000 		lds r25,rowIndex.2428+1
 210 0038 4497      		sbiw r24,20
 211 003a 01F4      		brne .L4
  70:/Users/manueldeneu/Documents/projets/dev/Monu100/MicroController/MicMonu100/MicMonu100/Display.c ****     {
  71:/Users/manueldeneu/Documents/projets/dev/Monu100/MicroController/MicMonu100/MicMonu100/Display.c ****         setHigh( DATA0_PORT , DATA0_PIN);
 213               	.LM6:
 214 003c 8091 0B01 		lds r24,267
 215 0040 8860      		ori r24,lo8(8)
 216 0042 8093 0B01 		sts 267,r24
  72:/Users/manueldeneu/Documents/projets/dev/Monu100/MicroController/MicMonu100/MicMonu100/Display.c ****         setHigh( DATA1_PORT , DATA1_PIN);
 218               	.LM7:
 219 0046 8091 0B01 		lds r24,267
 220 004a 8061      		ori r24,lo8(16)
 221 004c 8093 0B01 		sts 267,r24
  73:/Users/manueldeneu/Documents/projets/dev/Monu100/MicroController/MicMonu100/MicMonu100/Display.c ****         
  74:/Users/manueldeneu/Documents/projets/dev/Monu100/MicroController/MicMonu100/MicMonu100/Display.c ****         rowIndex = 0;
 223               	.LM8:
 224 0050 1092 0000 		sts rowIndex.2428+1,__zero_reg__
 225 0054 1092 0000 		sts rowIndex.2428,__zero_reg__
 226 0058 00C0      		rjmp .L5
 227               	.L4:
  75:/Users/manueldeneu/Documents/projets/dev/Monu100/MicroController/MicMonu100/MicMonu100/Display.c ****         
  76:/Users/manueldeneu/Documents/projets/dev/Monu100/MicroController/MicMonu100/MicMonu100/Display.c ****     }
  77:/Users/manueldeneu/Documents/projets/dev/Monu100/MicroController/MicMonu100/MicMonu100/Display.c ****     else
  78:/Users/manueldeneu/Documents/projets/dev/Monu100/MicroController/MicMonu100/MicMonu100/Display.c ****     {
  79:/Users/manueldeneu/Documents/projets/dev/Monu100/MicroController/MicMonu100/MicMonu100/Display.c ****         setLow( DATA0_PORT , DATA0_PIN);
 229               	.LM9:
 230 005a 8091 0B01 		lds r24,267
 231 005e 877F      		andi r24,lo8(-9)
 232 0060 8093 0B01 		sts 267,r24
  80:/Users/manueldeneu/Documents/projets/dev/Monu100/MicroController/MicMonu100/MicMonu100/Display.c ****         setLow( DATA1_PORT , DATA1_PIN);
 234               	.LM10:
 235 0064 8091 0B01 		lds r24,267
 236 0068 8F7E      		andi r24,lo8(-17)
 237 006a 8093 0B01 		sts 267,r24
 238               	.L5:
  81:/Users/manueldeneu/Documents/projets/dev/Monu100/MicroController/MicMonu100/MicMonu100/Display.c ****     }
  82:/Users/manueldeneu/Documents/projets/dev/Monu100/MicroController/MicMonu100/MicMonu100/Display.c ****     
  83:/Users/manueldeneu/Documents/projets/dev/Monu100/MicroController/MicMonu100/MicMonu100/Display.c **** 
  84:/Users/manueldeneu/Documents/projets/dev/Monu100/MicroController/MicMonu100/MicMonu100/Display.c ****     
  85:/Users/manueldeneu/Documents/projets/dev/Monu100/MicroController/MicMonu100/MicMonu100/Display.c ****     setLow(BLANK_PORT, BLANK_PIN);
 240               	.LM11:
 241 006e 2898      		cbi 0x5,0
  86:/Users/manueldeneu/Documents/projets/dev/Monu100/MicroController/MicMonu100/MicMonu100/Display.c ****     
  87:/Users/manueldeneu/Documents/projets/dev/Monu100/MicroController/MicMonu100/MicMonu100/Display.c ****     _display.isDrawing = 1;
 243               	.LM12:
 244 0070 81E0      		ldi r24,lo8(1)
 245 0072 8093 0000 		sts _display+1204,r24
 246               	.LBB123:
 247               	.LBB124:
  52:/Users/manueldeneu/Documents/projets/dev/Monu100/MicroController/MicMonu100/MicMonu100/Display.c ****     SPDR = val;
 249               	.LM13:
 250 0076 1EBC      		out 0x2e,__zero_reg__
 251               	.L7:
  53:/Users/manueldeneu/Documents/projets/dev/Monu100/MicroController/MicMonu100/MicMonu100/Display.c ****     while (!(SPSR & (1 << SPIF)));
 253               	.LM14:
 254 0078 0DB4      		in __tmp_reg__,0x2d
 255 007a 07FE      		sbrs __tmp_reg__,7
 256 007c 00C0      		rjmp .L7
 257 007e 20E0      		ldi r18,0
 258 0080 30E0      		ldi r19,0
 259               	.LBE124:
 260               	.LBE123:
 261               	.LBB125:
 262               	.LBB126:
 263               	.LBB127:
 264               	.LBB128:
  44:/Users/manueldeneu/Documents/projets/dev/Monu100/MicroController/MicMonu100/MicMonu100/Display.c ****     return _display.buff_text[x][y] +_display.buff_draw[x][y] ;
 266               	.LM15:
 267 0082 C4E1      		ldi r28,lo8(20)
 268               	.L15:
 269 0084 8091 0000 		lds r24,rowIndex.2428
 270 0088 9091 0000 		lds r25,rowIndex.2428+1
 271 008c 9927      		clr r25
  44:/Users/manueldeneu/Documents/projets/dev/Monu100/MicroController/MicMonu100/MicMonu100/Display.c ****     return _display.buff_text[x][y] +_display.buff_draw[x][y] ;
 273               	.LM16:
 274 008e C29F      		mul r28,r18
 275 0090 F001      		movw r30,r0
 276 0092 C39F      		mul r28,r19
 277 0094 F00D      		add r31,r0
 278 0096 1124      		clr __zero_reg__
 279 0098 DC01      		movw r26,r24
 280 009a AE0F      		add r26,r30
 281 009c BF1F      		adc r27,r31
 282 009e A050      		subi r26,lo8(-(_display+600))
 283 00a0 B040      		sbci r27,hi8(-(_display+600))
 284 00a2 E80F      		add r30,r24
 285 00a4 F91F      		adc r31,r25
 286 00a6 E050      		subi r30,lo8(-(_display))
 287 00a8 F040      		sbci r31,hi8(-(_display))
 288 00aa AC91      		ld r26,X
 289 00ac 4081      		ld r20,Z
 290 00ae A40F      		add r26,r20
 291 00b0 B901      		movw r22,r18
 292 00b2 6F5F      		subi r22,-1
 293 00b4 7F4F      		sbci r23,-1
 294               	.LBE128:
 295               	.LBE127:
 296               	.LBB129:
 297               	.LBB130:
 298 00b6 C69F      		mul r28,r22
 299 00b8 A001      		movw r20,r0
 300 00ba C79F      		mul r28,r23
 301 00bc 500D      		add r21,r0
 302 00be 1124      		clr __zero_reg__
 303 00c0 FC01      		movw r30,r24
 304 00c2 E40F      		add r30,r20
 305 00c4 F51F      		adc r31,r21
 306 00c6 E050      		subi r30,lo8(-(_display+600))
 307 00c8 F040      		sbci r31,hi8(-(_display+600))
 308 00ca 840F      		add r24,r20
 309 00cc 951F      		adc r25,r21
 310 00ce 8050      		subi r24,lo8(-(_display))
 311 00d0 9040      		sbci r25,hi8(-(_display))
 312 00d2 4081      		ld r20,Z
 313 00d4 FC01      		movw r30,r24
 314 00d6 8081      		ld r24,Z
 315 00d8 480F      		add r20,r24
 316               	.LBE130:
 317               	.LBE129:
  88:/Users/manueldeneu/Documents/projets/dev/Monu100/MicroController/MicMonu100/MicMonu100/Display.c ****     /**** FILL TLC BUFFERS *****/
  89:/Users/manueldeneu/Documents/projets/dev/Monu100/MicroController/MicMonu100/MicMonu100/Display.c ****     
  90:/Users/manueldeneu/Documents/projets/dev/Monu100/MicroController/MicMonu100/MicMonu100/Display.c ****     // col 0 -> send dumm values ( not displayed)
  91:/Users/manueldeneu/Documents/projets/dev/Monu100/MicroController/MicMonu100/MicMonu100/Display.c ****     sendSPI(0b00000000); // p0
  92:/Users/manueldeneu/Documents/projets/dev/Monu100/MicroController/MicMonu100/MicMonu100/Display.c ****     
  93:/Users/manueldeneu/Documents/projets/dev/Monu100/MicroController/MicMonu100/MicMonu100/Display.c ****     for (int x=0;x<14;x+=2)
  94:/Users/manueldeneu/Documents/projets/dev/Monu100/MicroController/MicMonu100/MicMonu100/Display.c ****     {
  95:/Users/manueldeneu/Documents/projets/dev/Monu100/MicroController/MicMonu100/MicMonu100/Display.c ****         const uint8_t pixA = getPixel(x   , rowIndex);
  96:/Users/manueldeneu/Documents/projets/dev/Monu100/MicroController/MicMonu100/MicMonu100/Display.c ****         const uint8_t pixB = getPixel(x+1 , rowIndex);
  97:/Users/manueldeneu/Documents/projets/dev/Monu100/MicroController/MicMonu100/MicMonu100/Display.c **** 
  98:/Users/manueldeneu/Documents/projets/dev/Monu100/MicroController/MicMonu100/MicMonu100/Display.c ****         sendSPI( pixA >> 4); // p1
 319               	.LM17:
 320 00da 8A2F      		mov r24,r26
 321 00dc 8295      		swap r24
 322 00de 8F70      		andi r24,lo8(15)
 323               	.LBB131:
 324               	.LBB132:
  52:/Users/manueldeneu/Documents/projets/dev/Monu100/MicroController/MicMonu100/MicMonu100/Display.c ****     SPDR = val;
 326               	.LM18:
 327 00e0 8EBD      		out 0x2e,r24
 328               	.L9:
  53:/Users/manueldeneu/Documents/projets/dev/Monu100/MicroController/MicMonu100/MicMonu100/Display.c ****     while (!(SPSR & (1 << SPIF)));
 330               	.LM19:
 331 00e2 0DB4      		in __tmp_reg__,0x2d
 332 00e4 07FE      		sbrs __tmp_reg__,7
 333 00e6 00C0      		rjmp .L9
 334               	.LBE132:
 335               	.LBE131:
  99:/Users/manueldeneu/Documents/projets/dev/Monu100/MicroController/MicMonu100/MicMonu100/Display.c ****         sendSPI( (uint8_t )(pixA << 4) ); // p1
 337               	.LM20:
 338 00e8 A295      		swap r26
 339 00ea A07F      		andi r26,lo8(-16)
 340               	.LBB133:
 341               	.LBB134:
  52:/Users/manueldeneu/Documents/projets/dev/Monu100/MicroController/MicMonu100/MicMonu100/Display.c ****     SPDR = val;
 343               	.LM21:
 344 00ec AEBD      		out 0x2e,r26
 345               	.L11:
  53:/Users/manueldeneu/Documents/projets/dev/Monu100/MicroController/MicMonu100/MicMonu100/Display.c ****     while (!(SPSR & (1 << SPIF)));
 347               	.LM22:
 348 00ee 0DB4      		in __tmp_reg__,0x2d
 349 00f0 07FE      		sbrs __tmp_reg__,7
 350 00f2 00C0      		rjmp .L11
 351               	.LBE134:
 352               	.LBE133:
 353               	.LBB135:
 354               	.LBB136:
  52:/Users/manueldeneu/Documents/projets/dev/Monu100/MicroController/MicMonu100/MicMonu100/Display.c ****     SPDR = val;
 356               	.LM23:
 357 00f4 4EBD      		out 0x2e,r20
 358               	.L13:
  53:/Users/manueldeneu/Documents/projets/dev/Monu100/MicroController/MicMonu100/MicMonu100/Display.c ****     while (!(SPSR & (1 << SPIF)));
 360               	.LM24:
 361 00f6 0DB4      		in __tmp_reg__,0x2d
 362 00f8 07FE      		sbrs __tmp_reg__,7
 363 00fa 00C0      		rjmp .L13
 364               	.LBE136:
 365               	.LBE135:
 366               	.LBE126:
  93:/Users/manueldeneu/Documents/projets/dev/Monu100/MicroController/MicMonu100/MicMonu100/Display.c ****     for (int x=0;x<14;x+=2)
 368               	.LM25:
 369 00fc 2E5F      		subi r18,-2
 370 00fe 3F4F      		sbci r19,-1
 371 0100 2E30      		cpi r18,14
 372 0102 3105      		cpc r19,__zero_reg__
 373 0104 01F0      		breq .+2
 374 0106 00C0      		rjmp .L15
 375 0108 8091 0000 		lds r24,rowIndex.2428
 376 010c 9091 0000 		lds r25,rowIndex.2428+1
 377 0110 9927      		clr r25
 378               	.LBE125:
 379               	.LBB137:
 380               	.LBB138:
 381               	.LBB139:
  44:/Users/manueldeneu/Documents/projets/dev/Monu100/MicroController/MicMonu100/MicMonu100/Display.c ****     return _display.buff_text[x][y] +_display.buff_draw[x][y] ;
 383               	.LM26:
 384 0112 8050      		subi r24,lo8(-(_display))
 385 0114 9040      		sbci r25,hi8(-(_display))
 386 0116 FC01      		movw r30,r24
 387 0118 E059      		subi r30,-112
 388 011a FC4F      		sbci r31,-4
 389 011c DC01      		movw r26,r24
 390 011e A85E      		subi r26,-24
 391 0120 BE4F      		sbci r27,-2
 392 0122 2081      		ld r18,Z
 393 0124 8C91      		ld r24,X
 394 0126 280F      		add r18,r24
 395               	.LBE139:
 396               	.LBE138:
 100:/Users/manueldeneu/Documents/projets/dev/Monu100/MicroController/MicMonu100/MicMonu100/Display.c ****         sendSPI( pixB ); // p2
 101:/Users/manueldeneu/Documents/projets/dev/Monu100/MicroController/MicMonu100/MicMonu100/Display.c **** 
 102:/Users/manueldeneu/Documents/projets/dev/Monu100/MicroController/MicMonu100/MicMonu100/Display.c ****     }
 103:/Users/manueldeneu/Documents/projets/dev/Monu100/MicroController/MicMonu100/MicMonu100/Display.c ****     
 104:/Users/manueldeneu/Documents/projets/dev/Monu100/MicroController/MicMonu100/MicMonu100/Display.c ****     //  col 15 a la mano
 105:/Users/manueldeneu/Documents/projets/dev/Monu100/MicroController/MicMonu100/MicMonu100/Display.c ****     {
 106:/Users/manueldeneu/Documents/projets/dev/Monu100/MicroController/MicMonu100/MicMonu100/Display.c ****     const uint8_t  p = getPixel(14, rowIndex);
 107:/Users/manueldeneu/Documents/projets/dev/Monu100/MicroController/MicMonu100/MicMonu100/Display.c ****     sendSPI( p >> 4 ); // p15
 398               	.LM27:
 399 0128 822F      		mov r24,r18
 400 012a 8295      		swap r24
 401 012c 8F70      		andi r24,lo8(15)
 402               	.LBB140:
 403               	.LBB141:
  52:/Users/manueldeneu/Documents/projets/dev/Monu100/MicroController/MicMonu100/MicMonu100/Display.c ****     SPDR = val;
 405               	.LM28:
 406 012e 8EBD      		out 0x2e,r24
 407               	.L17:
  53:/Users/manueldeneu/Documents/projets/dev/Monu100/MicroController/MicMonu100/MicMonu100/Display.c ****     while (!(SPSR & (1 << SPIF)));
 409               	.LM29:
 410 0130 0DB4      		in __tmp_reg__,0x2d
 411 0132 07FE      		sbrs __tmp_reg__,7
 412 0134 00C0      		rjmp .L17
 413               	.LBE141:
 414               	.LBE140:
 108:/Users/manueldeneu/Documents/projets/dev/Monu100/MicroController/MicMonu100/MicMonu100/Display.c ****     sendSPI( p << 4 ); // p15
 416               	.LM30:
 417 0136 2295      		swap r18
 418 0138 207F      		andi r18,lo8(-16)
 419               	.LBB142:
 420               	.LBB143:
  52:/Users/manueldeneu/Documents/projets/dev/Monu100/MicroController/MicMonu100/MicMonu100/Display.c ****     SPDR = val;
 422               	.LM31:
 423 013a 2EBD      		out 0x2e,r18
 424               	.L19:
  53:/Users/manueldeneu/Documents/projets/dev/Monu100/MicroController/MicMonu100/MicMonu100/Display.c ****     while (!(SPSR & (1 << SPIF)));
 426               	.LM32:
 427 013c 0DB4      		in __tmp_reg__,0x2d
 428 013e 07FE      		sbrs __tmp_reg__,7
 429 0140 00C0      		rjmp .L19
 430               	.LBE143:
 431               	.LBE142:
 432               	.LBE137:
 433               	.LBB144:
 434               	.LBB145:
  52:/Users/manueldeneu/Documents/projets/dev/Monu100/MicroController/MicMonu100/MicMonu100/Display.c ****     SPDR = val;
 436               	.LM33:
 437 0142 1EBC      		out 0x2e,__zero_reg__
 438               	.L21:
  53:/Users/manueldeneu/Documents/projets/dev/Monu100/MicroController/MicMonu100/MicMonu100/Display.c ****     while (!(SPSR & (1 << SPIF)));
 440               	.LM34:
 441 0144 0DB4      		in __tmp_reg__,0x2d
 442 0146 07FE      		sbrs __tmp_reg__,7
 443 0148 00C0      		rjmp .L21
 444 014a 2FE0      		ldi r18,lo8(15)
 445 014c 30E0      		ldi r19,0
 446               	.LBE145:
 447               	.LBE144:
 448               	.LBB146:
 449               	.LBB147:
 450               	.LBB148:
 451               	.LBB149:
  44:/Users/manueldeneu/Documents/projets/dev/Monu100/MicroController/MicMonu100/MicMonu100/Display.c ****     return _display.buff_text[x][y] +_display.buff_draw[x][y] ;
 453               	.LM35:
 454 014e C4E1      		ldi r28,lo8(20)
 455               	.L29:
 456 0150 8091 0000 		lds r24,rowIndex.2428
 457 0154 9091 0000 		lds r25,rowIndex.2428+1
 458 0158 9927      		clr r25
  44:/Users/manueldeneu/Documents/projets/dev/Monu100/MicroController/MicMonu100/MicMonu100/Display.c ****     return _display.buff_text[x][y] +_display.buff_draw[x][y] ;
 460               	.LM36:
 461 015a C29F      		mul r28,r18
 462 015c F001      		movw r30,r0
 463 015e C39F      		mul r28,r19
 464 0160 F00D      		add r31,r0
 465 0162 1124      		clr __zero_reg__
 466 0164 DC01      		movw r26,r24
 467 0166 AE0F      		add r26,r30
 468 0168 BF1F      		adc r27,r31
 469 016a A050      		subi r26,lo8(-(_display+600))
 470 016c B040      		sbci r27,hi8(-(_display+600))
 471 016e E80F      		add r30,r24
 472 0170 F91F      		adc r31,r25
 473 0172 E050      		subi r30,lo8(-(_display))
 474 0174 F040      		sbci r31,hi8(-(_display))
 475 0176 AC91      		ld r26,X
 476 0178 4081      		ld r20,Z
 477 017a A40F      		add r26,r20
 478 017c B901      		movw r22,r18
 479 017e 6F5F      		subi r22,-1
 480 0180 7F4F      		sbci r23,-1
 481               	.LBE149:
 482               	.LBE148:
 483               	.LBB150:
 484               	.LBB151:
 485 0182 C69F      		mul r28,r22
 486 0184 A001      		movw r20,r0
 487 0186 C79F      		mul r28,r23
 488 0188 500D      		add r21,r0
 489 018a 1124      		clr __zero_reg__
 490 018c FC01      		movw r30,r24
 491 018e E40F      		add r30,r20
 492 0190 F51F      		adc r31,r21
 493 0192 E050      		subi r30,lo8(-(_display+600))
 494 0194 F040      		sbci r31,hi8(-(_display+600))
 495 0196 840F      		add r24,r20
 496 0198 951F      		adc r25,r21
 497 019a 8050      		subi r24,lo8(-(_display))
 498 019c 9040      		sbci r25,hi8(-(_display))
 499 019e 4081      		ld r20,Z
 500 01a0 FC01      		movw r30,r24
 501 01a2 8081      		ld r24,Z
 502 01a4 480F      		add r20,r24
 503               	.LBE151:
 504               	.LBE150:
 109:/Users/manueldeneu/Documents/projets/dev/Monu100/MicroController/MicMonu100/MicMonu100/Display.c ****     }
 110:/Users/manueldeneu/Documents/projets/dev/Monu100/MicroController/MicMonu100/MicMonu100/Display.c ****     /**/
 111:/Users/manueldeneu/Documents/projets/dev/Monu100/MicroController/MicMonu100/MicMonu100/Display.c ****     
 112:/Users/manueldeneu/Documents/projets/dev/Monu100/MicroController/MicMonu100/MicMonu100/Display.c ****     // col 16 -> send dumm values ( not displayed)
 113:/Users/manueldeneu/Documents/projets/dev/Monu100/MicroController/MicMonu100/MicMonu100/Display.c ****     sendSPI(0b00000000); // p16
 114:/Users/manueldeneu/Documents/projets/dev/Monu100/MicroController/MicMonu100/MicMonu100/Display.c ****     
 115:/Users/manueldeneu/Documents/projets/dev/Monu100/MicroController/MicMonu100/MicMonu100/Display.c ****     for (int x = 15;x<28;x+=2)
 116:/Users/manueldeneu/Documents/projets/dev/Monu100/MicroController/MicMonu100/MicMonu100/Display.c ****     {
 117:/Users/manueldeneu/Documents/projets/dev/Monu100/MicroController/MicMonu100/MicMonu100/Display.c ****         const uint8_t pixA =  getPixel(x   , rowIndex);
 118:/Users/manueldeneu/Documents/projets/dev/Monu100/MicroController/MicMonu100/MicMonu100/Display.c ****         const uint8_t pixB =  getPixel(x+1 , rowIndex);
 119:/Users/manueldeneu/Documents/projets/dev/Monu100/MicroController/MicMonu100/MicMonu100/Display.c ****         
 120:/Users/manueldeneu/Documents/projets/dev/Monu100/MicroController/MicMonu100/MicMonu100/Display.c ****         sendSPI( pixA >> 4); // p1
 506               	.LM37:
 507 01a6 8A2F      		mov r24,r26
 508 01a8 8295      		swap r24
 509 01aa 8F70      		andi r24,lo8(15)
 510               	.LBB152:
 511               	.LBB153:
  52:/Users/manueldeneu/Documents/projets/dev/Monu100/MicroController/MicMonu100/MicMonu100/Display.c ****     SPDR = val;
 513               	.LM38:
 514 01ac 8EBD      		out 0x2e,r24
 515               	.L23:
  53:/Users/manueldeneu/Documents/projets/dev/Monu100/MicroController/MicMonu100/MicMonu100/Display.c ****     while (!(SPSR & (1 << SPIF)));
 517               	.LM39:
 518 01ae 0DB4      		in __tmp_reg__,0x2d
 519 01b0 07FE      		sbrs __tmp_reg__,7
 520 01b2 00C0      		rjmp .L23
 521               	.LBE153:
 522               	.LBE152:
 121:/Users/manueldeneu/Documents/projets/dev/Monu100/MicroController/MicMonu100/MicMonu100/Display.c ****         sendSPI( (uint8_t )(pixA<< 4) ); // p1
 524               	.LM40:
 525 01b4 A295      		swap r26
 526 01b6 A07F      		andi r26,lo8(-16)
 527               	.LBB154:
 528               	.LBB155:
  52:/Users/manueldeneu/Documents/projets/dev/Monu100/MicroController/MicMonu100/MicMonu100/Display.c ****     SPDR = val;
 530               	.LM41:
 531 01b8 AEBD      		out 0x2e,r26
 532               	.L25:
  53:/Users/manueldeneu/Documents/projets/dev/Monu100/MicroController/MicMonu100/MicMonu100/Display.c ****     while (!(SPSR & (1 << SPIF)));
 534               	.LM42:
 535 01ba 0DB4      		in __tmp_reg__,0x2d
 536 01bc 07FE      		sbrs __tmp_reg__,7
 537 01be 00C0      		rjmp .L25
 538               	.LBE155:
 539               	.LBE154:
 540               	.LBB156:
 541               	.LBB157:
  52:/Users/manueldeneu/Documents/projets/dev/Monu100/MicroController/MicMonu100/MicMonu100/Display.c ****     SPDR = val;
 543               	.LM43:
 544 01c0 4EBD      		out 0x2e,r20
 545               	.L27:
  53:/Users/manueldeneu/Documents/projets/dev/Monu100/MicroController/MicMonu100/MicMonu100/Display.c ****     while (!(SPSR & (1 << SPIF)));
 547               	.LM44:
 548 01c2 0DB4      		in __tmp_reg__,0x2d
 549 01c4 07FE      		sbrs __tmp_reg__,7
 550 01c6 00C0      		rjmp .L27
 551               	.LBE157:
 552               	.LBE156:
 553               	.LBE147:
 115:/Users/manueldeneu/Documents/projets/dev/Monu100/MicroController/MicMonu100/MicMonu100/Display.c ****     for (int x = 15;x<28;x+=2)
 555               	.LM45:
 556 01c8 2E5F      		subi r18,-2
 557 01ca 3F4F      		sbci r19,-1
 558 01cc 2D31      		cpi r18,29
 559 01ce 3105      		cpc r19,__zero_reg__
 560 01d0 01F0      		breq .+2
 561 01d2 00C0      		rjmp .L29
 562               	.LBE146:
 563               	.LBB158:
 564               	.LBB159:
 565               	.LBB160:
  44:/Users/manueldeneu/Documents/projets/dev/Monu100/MicroController/MicMonu100/MicMonu100/Display.c ****     return _display.buff_text[x][y] +_display.buff_draw[x][y] ;
 567               	.LM46:
 568 01d4 8091 0000 		lds r24,_display+1184
 569 01d8 9091 0000 		lds r25,_display+584
 570 01dc 890F      		add r24,r25
 571               	.LBE160:
 572               	.LBE159:
 122:/Users/manueldeneu/Documents/projets/dev/Monu100/MicroController/MicMonu100/MicMonu100/Display.c ****         sendSPI( pixB ); // p2
 123:/Users/manueldeneu/Documents/projets/dev/Monu100/MicroController/MicMonu100/MicMonu100/Display.c ****     }
 124:/Users/manueldeneu/Documents/projets/dev/Monu100/MicroController/MicMonu100/MicMonu100/Display.c ****     
 125:/Users/manueldeneu/Documents/projets/dev/Monu100/MicroController/MicMonu100/MicMonu100/Display.c ****     // col 29 a la mano
 126:/Users/manueldeneu/Documents/projets/dev/Monu100/MicroController/MicMonu100/MicMonu100/Display.c ****     {
 127:/Users/manueldeneu/Documents/projets/dev/Monu100/MicroController/MicMonu100/MicMonu100/Display.c ****         const uint8_t p = getPixel(29,4);
 128:/Users/manueldeneu/Documents/projets/dev/Monu100/MicroController/MicMonu100/MicMonu100/Display.c ****     sendSPI(  p >> 4 ); // p15
 574               	.LM47:
 575 01de 982F      		mov r25,r24
 576 01e0 9295      		swap r25
 577 01e2 9F70      		andi r25,lo8(15)
 578               	.LBB161:
 579               	.LBB162:
  52:/Users/manueldeneu/Documents/projets/dev/Monu100/MicroController/MicMonu100/MicMonu100/Display.c ****     SPDR = val;
 581               	.LM48:
 582 01e4 9EBD      		out 0x2e,r25
 583               	.L31:
  53:/Users/manueldeneu/Documents/projets/dev/Monu100/MicroController/MicMonu100/MicMonu100/Display.c ****     while (!(SPSR & (1 << SPIF)));
 585               	.LM49:
 586 01e6 0DB4      		in __tmp_reg__,0x2d
 587 01e8 07FE      		sbrs __tmp_reg__,7
 588 01ea 00C0      		rjmp .L31
 589               	.LBE162:
 590               	.LBE161:
 129:/Users/manueldeneu/Documents/projets/dev/Monu100/MicroController/MicMonu100/MicMonu100/Display.c ****     sendSPI(  p << 4 ); // p15
 592               	.LM50:
 593 01ec 8295      		swap r24
 594 01ee 807F      		andi r24,lo8(-16)
 595               	.LBB163:
 596               	.LBB164:
  52:/Users/manueldeneu/Documents/projets/dev/Monu100/MicroController/MicMonu100/MicMonu100/Display.c ****     SPDR = val;
 598               	.LM51:
 599 01f0 8EBD      		out 0x2e,r24
 600               	.L33:
  53:/Users/manueldeneu/Documents/projets/dev/Monu100/MicroController/MicMonu100/MicMonu100/Display.c ****     while (!(SPSR & (1 << SPIF)));
 602               	.LM52:
 603 01f2 0DB4      		in __tmp_reg__,0x2d
 604 01f4 07FE      		sbrs __tmp_reg__,7
 605 01f6 00C0      		rjmp .L33
 606               	.LBE164:
 607               	.LBE163:
 608               	.LBE158:
 130:/Users/manueldeneu/Documents/projets/dev/Monu100/MicroController/MicMonu100/MicMonu100/Display.c ****     }
 131:/Users/manueldeneu/Documents/projets/dev/Monu100/MicroController/MicMonu100/MicMonu100/Display.c ****     /***** END OF FILL TLC BUFFERS ****/
 132:/Users/manueldeneu/Documents/projets/dev/Monu100/MicroController/MicMonu100/MicMonu100/Display.c ****     
 133:/Users/manueldeneu/Documents/projets/dev/Monu100/MicroController/MicMonu100/MicMonu100/Display.c ****     _display.isDrawing = 0;
 610               	.LM53:
 611 01f8 1092 0000 		sts _display+1204,__zero_reg__
 134:/Users/manueldeneu/Documents/projets/dev/Monu100/MicroController/MicMonu100/MicMonu100/Display.c ****     
 135:/Users/manueldeneu/Documents/projets/dev/Monu100/MicroController/MicMonu100/MicMonu100/Display.c ****     xlatNeedsPulse = 1;
 613               	.LM54:
 614 01fc 81E0      		ldi r24,lo8(1)
 615 01fe 8093 0000 		sts xlatNeedsPulse.2430,r24
 136:/Users/manueldeneu/Documents/projets/dev/Monu100/MicroController/MicMonu100/MicMonu100/Display.c ****     
 137:/Users/manueldeneu/Documents/projets/dev/Monu100/MicroController/MicMonu100/MicMonu100/Display.c ****     pulse( MIC_CLOCK_PORT , MIC_CLOCK_PIN );
 617               	.LM55:
 618 0202 8091 0B01 		lds r24,267
 619 0206 8260      		ori r24,lo8(2)
 620 0208 8093 0B01 		sts 267,r24
 621 020c 8091 0B01 		lds r24,267
 622 0210 8D7F      		andi r24,lo8(-3)
 623 0212 8093 0B01 		sts 267,r24
 138:/Users/manueldeneu/Documents/projets/dev/Monu100/MicroController/MicMonu100/MicMonu100/Display.c ****     
 139:/Users/manueldeneu/Documents/projets/dev/Monu100/MicroController/MicMonu100/MicMonu100/Display.c ****     
 140:/Users/manueldeneu/Documents/projets/dev/Monu100/MicroController/MicMonu100/MicMonu100/Display.c ****     /**/
 141:/Users/manueldeneu/Documents/projets/dev/Monu100/MicroController/MicMonu100/MicMonu100/Display.c ****     // additionnal pulse for non-wired outs of mics.
 142:/Users/manueldeneu/Documents/projets/dev/Monu100/MicroController/MicMonu100/MicMonu100/Display.c ****     /*
 143:/Users/manueldeneu/Documents/projets/dev/Monu100/MicroController/MicMonu100/MicMonu100/Display.c ****     if ( (rowIndex == 15) ||
 144:/Users/manueldeneu/Documents/projets/dev/Monu100/MicroController/MicMonu100/MicMonu100/Display.c ****          (rowIndex == 22)
 145:/Users/manueldeneu/Documents/projets/dev/Monu100/MicroController/MicMonu100/MicMonu100/Display.c ****         )
 146:/Users/manueldeneu/Documents/projets/dev/Monu100/MicroController/MicMonu100/MicMonu100/Display.c ****     {
 147:/Users/manueldeneu/Documents/projets/dev/Monu100/MicroController/MicMonu100/MicMonu100/Display.c ****         setLow( DATA0_PORT , DATA0_PIN);
 148:/Users/manueldeneu/Documents/projets/dev/Monu100/MicroController/MicMonu100/MicMonu100/Display.c ****         setLow( DATA1_PORT , DATA1_PIN);
 149:/Users/manueldeneu/Documents/projets/dev/Monu100/MicroController/MicMonu100/MicMonu100/Display.c ****         
 150:/Users/manueldeneu/Documents/projets/dev/Monu100/MicroController/MicMonu100/MicMonu100/Display.c ****         pulse( MIC_CLOCK_PORT , MIC_CLOCK_PIN );
 151:/Users/manueldeneu/Documents/projets/dev/Monu100/MicroController/MicMonu100/MicMonu100/Display.c ****         
 152:/Users/manueldeneu/Documents/projets/dev/Monu100/MicroController/MicMonu100/MicMonu100/Display.c ****     }
 153:/Users/manueldeneu/Documents/projets/dev/Monu100/MicroController/MicMonu100/MicMonu100/Display.c ****     */
 154:/Users/manueldeneu/Documents/projets/dev/Monu100/MicroController/MicMonu100/MicMonu100/Display.c ****     /**/
 155:/Users/manueldeneu/Documents/projets/dev/Monu100/MicroController/MicMonu100/MicMonu100/Display.c ****     
 156:/Users/manueldeneu/Documents/projets/dev/Monu100/MicroController/MicMonu100/MicMonu100/Display.c ****     setHigh(BLANK_PORT, BLANK_PIN);
 625               	.LM56:
 626 0216 289A      		sbi 0x5,0
 157:/Users/manueldeneu/Documents/projets/dev/Monu100/MicroController/MicMonu100/MicMonu100/Display.c ****     
 158:/Users/manueldeneu/Documents/projets/dev/Monu100/MicroController/MicMonu100/MicMonu100/Display.c ****     
 159:/Users/manueldeneu/Documents/projets/dev/Monu100/MicroController/MicMonu100/MicMonu100/Display.c ****     if (xlatNeedsPulse)
 628               	.LM57:
 629 0218 8091 0000 		lds r24,xlatNeedsPulse.2430
 630 021c 8823      		tst r24
 631 021e 01F0      		breq .L34
 160:/Users/manueldeneu/Documents/projets/dev/Monu100/MicroController/MicMonu100/MicMonu100/Display.c ****     {
 161:/Users/manueldeneu/Documents/projets/dev/Monu100/MicroController/MicMonu100/MicMonu100/Display.c ****         pulse(XLAT_PORT, XLAT_PIN);
 633               	.LM58:
 634 0220 2D9A      		sbi 0x5,5
 635 0222 2D98      		cbi 0x5,5
 162:/Users/manueldeneu/Documents/projets/dev/Monu100/MicroController/MicMonu100/MicMonu100/Display.c ****         xlatNeedsPulse = 0;
 637               	.LM59:
 638 0224 1092 0000 		sts xlatNeedsPulse.2430,__zero_reg__
 639               	.L34:
 163:/Users/manueldeneu/Documents/projets/dev/Monu100/MicroController/MicMonu100/MicMonu100/Display.c ****         
 164:/Users/manueldeneu/Documents/projets/dev/Monu100/MicroController/MicMonu100/MicMonu100/Display.c ****         
 165:/Users/manueldeneu/Documents/projets/dev/Monu100/MicroController/MicMonu100/MicMonu100/Display.c ****     }
 166:/Users/manueldeneu/Documents/projets/dev/Monu100/MicroController/MicMonu100/MicMonu100/Display.c ****     
 167:/Users/manueldeneu/Documents/projets/dev/Monu100/MicroController/MicMonu100/MicMonu100/Display.c ****     if (firstCycleFlag)
 641               	.LM60:
 642 0228 8091 0000 		lds r24,firstCycleFlag.2429
 643 022c 8823      		tst r24
 644 022e 01F0      		breq .L35
 168:/Users/manueldeneu/Documents/projets/dev/Monu100/MicroController/MicMonu100/MicMonu100/Display.c ****     {
 169:/Users/manueldeneu/Documents/projets/dev/Monu100/MicroController/MicMonu100/MicMonu100/Display.c ****         pulse(SCLK_PORT, SCLK_PIN);
 646               	.LM61:
 647 0230 299A      		sbi 0x5,1
 648 0232 2998      		cbi 0x5,1
 170:/Users/manueldeneu/Documents/projets/dev/Monu100/MicroController/MicMonu100/MicMonu100/Display.c **** 
 171:/Users/manueldeneu/Documents/projets/dev/Monu100/MicroController/MicMonu100/MicMonu100/Display.c ****         firstCycleFlag = 0;
 650               	.LM62:
 651 0234 1092 0000 		sts firstCycleFlag.2429,__zero_reg__
 652               	.L35:
 172:/Users/manueldeneu/Documents/projets/dev/Monu100/MicroController/MicMonu100/MicMonu100/Display.c ****     }
 173:/Users/manueldeneu/Documents/projets/dev/Monu100/MicroController/MicMonu100/MicMonu100/Display.c ****     /*
 174:/Users/manueldeneu/Documents/projets/dev/Monu100/MicroController/MicMonu100/MicMonu100/Display.c ****     else
 175:/Users/manueldeneu/Documents/projets/dev/Monu100/MicroController/MicMonu100/MicMonu100/Display.c ****         while (1){}
 176:/Users/manueldeneu/Documents/projets/dev/Monu100/MicroController/MicMonu100/MicMonu100/Display.c ****     */
 177:/Users/manueldeneu/Documents/projets/dev/Monu100/MicroController/MicMonu100/MicMonu100/Display.c **** 
 178:/Users/manueldeneu/Documents/projets/dev/Monu100/MicroController/MicMonu100/MicMonu100/Display.c ****     
 179:/Users/manueldeneu/Documents/projets/dev/Monu100/MicroController/MicMonu100/MicMonu100/Display.c ****     rowIndex++;
 654               	.LM63:
 655 0238 8091 0000 		lds r24,rowIndex.2428
 656 023c 9091 0000 		lds r25,rowIndex.2428+1
 657 0240 0196      		adiw r24,1
 658 0242 9093 0000 		sts rowIndex.2428+1,r25
 659 0246 8093 0000 		sts rowIndex.2428,r24
 660               	/* epilogue start */
 180:/Users/manueldeneu/Documents/projets/dev/Monu100/MicroController/MicMonu100/MicMonu100/Display.c ****     
 181:/Users/manueldeneu/Documents/projets/dev/Monu100/MicroController/MicMonu100/MicMonu100/Display.c **** 
 182:/Users/manueldeneu/Documents/projets/dev/Monu100/MicroController/MicMonu100/MicMonu100/Display.c ****     
 183:/Users/manueldeneu/Documents/projets/dev/Monu100/MicroController/MicMonu100/MicMonu100/Display.c **** }
 662               	.LM64:
 663 024a FF91      		pop r31
 664 024c EF91      		pop r30
 665 024e CF91      		pop r28
 666 0250 BF91      		pop r27
 667 0252 AF91      		pop r26
 668 0254 9F91      		pop r25
 669 0256 8F91      		pop r24
 670 0258 7F91      		pop r23
 671 025a 6F91      		pop r22
 672 025c 5F91      		pop r21
 673 025e 4F91      		pop r20
 674 0260 3F91      		pop r19
 675 0262 2F91      		pop r18
 676 0264 0F90      		pop r0
 677 0266 0BBE      		out __RAMPZ__,r0
 678 0268 0F90      		pop r0
 679 026a 0FBE      		out __SREG__,r0
 680 026c 0F90      		pop r0
 681 026e 1F90      		pop r1
 682 0270 1895      		reti
 695               	.Lscope3:
 697               	.global	update
 699               	update:
 184:/Users/manueldeneu/Documents/projets/dev/Monu100/MicroController/MicMonu100/MicMonu100/Display.c **** 
 185:/Users/manueldeneu/Documents/projets/dev/Monu100/MicroController/MicMonu100/MicMonu100/Display.c **** /*!*/
 186:/Users/manueldeneu/Documents/projets/dev/Monu100/MicroController/MicMonu100/MicMonu100/Display.c **** void update(void)
 187:/Users/manueldeneu/Documents/projets/dev/Monu100/MicroController/MicMonu100/MicMonu100/Display.c **** {
 701               	.LM65:
 702               	.LFBB4:
 703 0272 CF93      		push r28
 704               	/* prologue: function */
 705               	/* frame size = 0 */
 706               	/* stack size = 1 */
 707               	.L__stack_usage = 1
 188:/Users/manueldeneu/Documents/projets/dev/Monu100/MicroController/MicMonu100/MicMonu100/Display.c ****     static uint16_t rowIndex = Y_MIC_MAX;
 189:/Users/manueldeneu/Documents/projets/dev/Monu100/MicroController/MicMonu100/MicMonu100/Display.c ****     static uint8_t firstCycleFlag = 1;// 0;
 190:/Users/manueldeneu/Documents/projets/dev/Monu100/MicroController/MicMonu100/MicMonu100/Display.c ****     static uint8_t xlatNeedsPulse = 0;
 191:/Users/manueldeneu/Documents/projets/dev/Monu100/MicroController/MicMonu100/MicMonu100/Display.c ****     
 192:/Users/manueldeneu/Documents/projets/dev/Monu100/MicroController/MicMonu100/MicMonu100/Display.c ****     if ( rowIndex == Y_MIC_MAX ) // matrix ok. return col0;
 709               	.LM66:
 710 0274 8091 0000 		lds r24,rowIndex.2448
 711 0278 9091 0000 		lds r25,rowIndex.2448+1
 712 027c 4497      		sbiw r24,20
 713 027e 01F4      		brne .L44
 193:/Users/manueldeneu/Documents/projets/dev/Monu100/MicroController/MicMonu100/MicMonu100/Display.c ****     {
 194:/Users/manueldeneu/Documents/projets/dev/Monu100/MicroController/MicMonu100/MicMonu100/Display.c ****         setHigh( DATA0_PORT , DATA0_PIN);
 715               	.LM67:
 716 0280 8091 0B01 		lds r24,267
 717 0284 8860      		ori r24,lo8(8)
 718 0286 8093 0B01 		sts 267,r24
 195:/Users/manueldeneu/Documents/projets/dev/Monu100/MicroController/MicMonu100/MicMonu100/Display.c ****         setHigh( DATA1_PORT , DATA1_PIN);
 720               	.LM68:
 721 028a 8091 0B01 		lds r24,267
 722 028e 8061      		ori r24,lo8(16)
 723 0290 8093 0B01 		sts 267,r24
 196:/Users/manueldeneu/Documents/projets/dev/Monu100/MicroController/MicMonu100/MicMonu100/Display.c ****         
 197:/Users/manueldeneu/Documents/projets/dev/Monu100/MicroController/MicMonu100/MicMonu100/Display.c ****         rowIndex = 0;
 725               	.LM69:
 726 0294 1092 0000 		sts rowIndex.2448+1,__zero_reg__
 727 0298 1092 0000 		sts rowIndex.2448,__zero_reg__
 728 029c 00C0      		rjmp .L45
 729               	.L44:
 198:/Users/manueldeneu/Documents/projets/dev/Monu100/MicroController/MicMonu100/MicMonu100/Display.c ****         
 199:/Users/manueldeneu/Documents/projets/dev/Monu100/MicroController/MicMonu100/MicMonu100/Display.c ****     }
 200:/Users/manueldeneu/Documents/projets/dev/Monu100/MicroController/MicMonu100/MicMonu100/Display.c ****     else
 201:/Users/manueldeneu/Documents/projets/dev/Monu100/MicroController/MicMonu100/MicMonu100/Display.c ****     {
 202:/Users/manueldeneu/Documents/projets/dev/Monu100/MicroController/MicMonu100/MicMonu100/Display.c ****         setLow( DATA0_PORT , DATA0_PIN);
 731               	.LM70:
 732 029e 8091 0B01 		lds r24,267
 733 02a2 877F      		andi r24,lo8(-9)
 734 02a4 8093 0B01 		sts 267,r24
 203:/Users/manueldeneu/Documents/projets/dev/Monu100/MicroController/MicMonu100/MicMonu100/Display.c ****         setLow( DATA1_PORT , DATA1_PIN);
 736               	.LM71:
 737 02a8 8091 0B01 		lds r24,267
 738 02ac 8F7E      		andi r24,lo8(-17)
 739 02ae 8093 0B01 		sts 267,r24
 740               	.L45:
 204:/Users/manueldeneu/Documents/projets/dev/Monu100/MicroController/MicMonu100/MicMonu100/Display.c ****     }
 205:/Users/manueldeneu/Documents/projets/dev/Monu100/MicroController/MicMonu100/MicMonu100/Display.c ****     
 206:/Users/manueldeneu/Documents/projets/dev/Monu100/MicroController/MicMonu100/MicMonu100/Display.c ****     
 207:/Users/manueldeneu/Documents/projets/dev/Monu100/MicroController/MicMonu100/MicMonu100/Display.c ****     
 208:/Users/manueldeneu/Documents/projets/dev/Monu100/MicroController/MicMonu100/MicMonu100/Display.c ****     setLow(BLANK_PORT, BLANK_PIN);
 742               	.LM72:
 743 02b2 2898      		cbi 0x5,0
 209:/Users/manueldeneu/Documents/projets/dev/Monu100/MicroController/MicMonu100/MicMonu100/Display.c **** 
 210:/Users/manueldeneu/Documents/projets/dev/Monu100/MicroController/MicMonu100/MicMonu100/Display.c ****     _display.isDrawing = 1;
 745               	.LM73:
 746 02b4 81E0      		ldi r24,lo8(1)
 747 02b6 8093 0000 		sts _display+1204,r24
 748               	.LBB165:
 749               	.LBB166:
  52:/Users/manueldeneu/Documents/projets/dev/Monu100/MicroController/MicMonu100/MicMonu100/Display.c ****     SPDR = val;
 751               	.LM74:
 752 02ba 1EBC      		out 0x2e,__zero_reg__
 753               	.L47:
  53:/Users/manueldeneu/Documents/projets/dev/Monu100/MicroController/MicMonu100/MicMonu100/Display.c ****     while (!(SPSR & (1 << SPIF)));
 755               	.LM75:
 756 02bc 0DB4      		in __tmp_reg__,0x2d
 757 02be 07FE      		sbrs __tmp_reg__,7
 758 02c0 00C0      		rjmp .L47
 759 02c2 20E0      		ldi r18,0
 760 02c4 30E0      		ldi r19,0
 761               	.LBE166:
 762               	.LBE165:
 763               	.LBB167:
 764               	.LBB168:
 765               	.LBB169:
 766               	.LBB170:
  44:/Users/manueldeneu/Documents/projets/dev/Monu100/MicroController/MicMonu100/MicMonu100/Display.c ****     return _display.buff_text[x][y] +_display.buff_draw[x][y] ;
 768               	.LM76:
 769 02c6 C4E1      		ldi r28,lo8(20)
 770               	.L55:
 771 02c8 8091 0000 		lds r24,rowIndex.2448
 772 02cc 9091 0000 		lds r25,rowIndex.2448+1
 773 02d0 9927      		clr r25
  44:/Users/manueldeneu/Documents/projets/dev/Monu100/MicroController/MicMonu100/MicMonu100/Display.c ****     return _display.buff_text[x][y] +_display.buff_draw[x][y] ;
 775               	.LM77:
 776 02d2 C29F      		mul r28,r18
 777 02d4 F001      		movw r30,r0
 778 02d6 C39F      		mul r28,r19
 779 02d8 F00D      		add r31,r0
 780 02da 1124      		clr __zero_reg__
 781 02dc DC01      		movw r26,r24
 782 02de AE0F      		add r26,r30
 783 02e0 BF1F      		adc r27,r31
 784 02e2 A050      		subi r26,lo8(-(_display+600))
 785 02e4 B040      		sbci r27,hi8(-(_display+600))
 786 02e6 E80F      		add r30,r24
 787 02e8 F91F      		adc r31,r25
 788 02ea E050      		subi r30,lo8(-(_display))
 789 02ec F040      		sbci r31,hi8(-(_display))
 790 02ee AC91      		ld r26,X
 791 02f0 4081      		ld r20,Z
 792 02f2 A40F      		add r26,r20
 793 02f4 B901      		movw r22,r18
 794 02f6 6F5F      		subi r22,-1
 795 02f8 7F4F      		sbci r23,-1
 796               	.LBE170:
 797               	.LBE169:
 798               	.LBB171:
 799               	.LBB172:
 800 02fa C69F      		mul r28,r22
 801 02fc A001      		movw r20,r0
 802 02fe C79F      		mul r28,r23
 803 0300 500D      		add r21,r0
 804 0302 1124      		clr __zero_reg__
 805 0304 FC01      		movw r30,r24
 806 0306 E40F      		add r30,r20
 807 0308 F51F      		adc r31,r21
 808 030a E050      		subi r30,lo8(-(_display+600))
 809 030c F040      		sbci r31,hi8(-(_display+600))
 810 030e 840F      		add r24,r20
 811 0310 951F      		adc r25,r21
 812 0312 8050      		subi r24,lo8(-(_display))
 813 0314 9040      		sbci r25,hi8(-(_display))
 814 0316 4081      		ld r20,Z
 815 0318 FC01      		movw r30,r24
 816 031a 8081      		ld r24,Z
 817 031c 480F      		add r20,r24
 818               	.LBE172:
 819               	.LBE171:
 211:/Users/manueldeneu/Documents/projets/dev/Monu100/MicroController/MicMonu100/MicMonu100/Display.c ****     /**** FILL TLC BUFFERS *****/
 212:/Users/manueldeneu/Documents/projets/dev/Monu100/MicroController/MicMonu100/MicMonu100/Display.c ****     
 213:/Users/manueldeneu/Documents/projets/dev/Monu100/MicroController/MicMonu100/MicMonu100/Display.c ****     // col 0 -> send dumm values ( not displayed)
 214:/Users/manueldeneu/Documents/projets/dev/Monu100/MicroController/MicMonu100/MicMonu100/Display.c ****     sendSPI(0b00000000); // p0
 215:/Users/manueldeneu/Documents/projets/dev/Monu100/MicroController/MicMonu100/MicMonu100/Display.c ****     
 216:/Users/manueldeneu/Documents/projets/dev/Monu100/MicroController/MicMonu100/MicMonu100/Display.c ****     for (int x=0;x<14;x+=2)
 217:/Users/manueldeneu/Documents/projets/dev/Monu100/MicroController/MicMonu100/MicMonu100/Display.c ****     {
 218:/Users/manueldeneu/Documents/projets/dev/Monu100/MicroController/MicMonu100/MicMonu100/Display.c ****         const uint8_t pixA = getPixel(x  , rowIndex);
 219:/Users/manueldeneu/Documents/projets/dev/Monu100/MicroController/MicMonu100/MicMonu100/Display.c ****         const uint8_t pixB = getPixel(x+1, rowIndex);
 220:/Users/manueldeneu/Documents/projets/dev/Monu100/MicroController/MicMonu100/MicMonu100/Display.c **** 
 221:/Users/manueldeneu/Documents/projets/dev/Monu100/MicroController/MicMonu100/MicMonu100/Display.c ****         sendSPI( pixA >> 4); // p1
 821               	.LM78:
 822 031e 8A2F      		mov r24,r26
 823 0320 8295      		swap r24
 824 0322 8F70      		andi r24,lo8(15)
 825               	.LBB173:
 826               	.LBB174:
  52:/Users/manueldeneu/Documents/projets/dev/Monu100/MicroController/MicMonu100/MicMonu100/Display.c ****     SPDR = val;
 828               	.LM79:
 829 0324 8EBD      		out 0x2e,r24
 830               	.L49:
  53:/Users/manueldeneu/Documents/projets/dev/Monu100/MicroController/MicMonu100/MicMonu100/Display.c ****     while (!(SPSR & (1 << SPIF)));
 832               	.LM80:
 833 0326 0DB4      		in __tmp_reg__,0x2d
 834 0328 07FE      		sbrs __tmp_reg__,7
 835 032a 00C0      		rjmp .L49
 836               	.LBE174:
 837               	.LBE173:
 222:/Users/manueldeneu/Documents/projets/dev/Monu100/MicroController/MicMonu100/MicMonu100/Display.c ****         sendSPI( (uint8_t )(pixA << 4) ); // p1
 839               	.LM81:
 840 032c A295      		swap r26
 841 032e A07F      		andi r26,lo8(-16)
 842               	.LBB175:
 843               	.LBB176:
  52:/Users/manueldeneu/Documents/projets/dev/Monu100/MicroController/MicMonu100/MicMonu100/Display.c ****     SPDR = val;
 845               	.LM82:
 846 0330 AEBD      		out 0x2e,r26
 847               	.L51:
  53:/Users/manueldeneu/Documents/projets/dev/Monu100/MicroController/MicMonu100/MicMonu100/Display.c ****     while (!(SPSR & (1 << SPIF)));
 849               	.LM83:
 850 0332 0DB4      		in __tmp_reg__,0x2d
 851 0334 07FE      		sbrs __tmp_reg__,7
 852 0336 00C0      		rjmp .L51
 853               	.LBE176:
 854               	.LBE175:
 855               	.LBB177:
 856               	.LBB178:
  52:/Users/manueldeneu/Documents/projets/dev/Monu100/MicroController/MicMonu100/MicMonu100/Display.c ****     SPDR = val;
 858               	.LM84:
 859 0338 4EBD      		out 0x2e,r20
 860               	.L53:
  53:/Users/manueldeneu/Documents/projets/dev/Monu100/MicroController/MicMonu100/MicMonu100/Display.c ****     while (!(SPSR & (1 << SPIF)));
 862               	.LM85:
 863 033a 0DB4      		in __tmp_reg__,0x2d
 864 033c 07FE      		sbrs __tmp_reg__,7
 865 033e 00C0      		rjmp .L53
 866               	.LBE178:
 867               	.LBE177:
 868               	.LBE168:
 216:/Users/manueldeneu/Documents/projets/dev/Monu100/MicroController/MicMonu100/MicMonu100/Display.c ****     for (int x=0;x<14;x+=2)
 870               	.LM86:
 871 0340 2E5F      		subi r18,-2
 872 0342 3F4F      		sbci r19,-1
 873 0344 2E30      		cpi r18,14
 874 0346 3105      		cpc r19,__zero_reg__
 875 0348 01F0      		breq .+2
 876 034a 00C0      		rjmp .L55
 877 034c 8091 0000 		lds r24,rowIndex.2448
 878 0350 9091 0000 		lds r25,rowIndex.2448+1
 879 0354 9927      		clr r25
 880               	.LBE167:
 881               	.LBB179:
 882               	.LBB180:
 883               	.LBB181:
  44:/Users/manueldeneu/Documents/projets/dev/Monu100/MicroController/MicMonu100/MicMonu100/Display.c ****     return _display.buff_text[x][y] +_display.buff_draw[x][y] ;
 885               	.LM87:
 886 0356 8050      		subi r24,lo8(-(_display))
 887 0358 9040      		sbci r25,hi8(-(_display))
 888 035a FC01      		movw r30,r24
 889 035c E059      		subi r30,-112
 890 035e FC4F      		sbci r31,-4
 891 0360 DC01      		movw r26,r24
 892 0362 A85E      		subi r26,-24
 893 0364 BE4F      		sbci r27,-2
 894 0366 2081      		ld r18,Z
 895 0368 8C91      		ld r24,X
 896 036a 280F      		add r18,r24
 897               	.LBE181:
 898               	.LBE180:
 223:/Users/manueldeneu/Documents/projets/dev/Monu100/MicroController/MicMonu100/MicMonu100/Display.c ****         sendSPI( pixB ); // p2
 224:/Users/manueldeneu/Documents/projets/dev/Monu100/MicroController/MicMonu100/MicMonu100/Display.c **** 
 225:/Users/manueldeneu/Documents/projets/dev/Monu100/MicroController/MicMonu100/MicMonu100/Display.c ****     }
 226:/Users/manueldeneu/Documents/projets/dev/Monu100/MicroController/MicMonu100/MicMonu100/Display.c ****     
 227:/Users/manueldeneu/Documents/projets/dev/Monu100/MicroController/MicMonu100/MicMonu100/Display.c ****     //  col 15 a la mano
 228:/Users/manueldeneu/Documents/projets/dev/Monu100/MicroController/MicMonu100/MicMonu100/Display.c ****     {
 229:/Users/manueldeneu/Documents/projets/dev/Monu100/MicroController/MicMonu100/MicMonu100/Display.c ****         const uint8_t p = getPixel(14 , rowIndex);
 230:/Users/manueldeneu/Documents/projets/dev/Monu100/MicroController/MicMonu100/MicMonu100/Display.c ****     sendSPI( p >> 4 ); // p15
 900               	.LM88:
 901 036c 822F      		mov r24,r18
 902 036e 8295      		swap r24
 903 0370 8F70      		andi r24,lo8(15)
 904               	.LBB182:
 905               	.LBB183:
  52:/Users/manueldeneu/Documents/projets/dev/Monu100/MicroController/MicMonu100/MicMonu100/Display.c ****     SPDR = val;
 907               	.LM89:
 908 0372 8EBD      		out 0x2e,r24
 909               	.L57:
  53:/Users/manueldeneu/Documents/projets/dev/Monu100/MicroController/MicMonu100/MicMonu100/Display.c ****     while (!(SPSR & (1 << SPIF)));
 911               	.LM90:
 912 0374 0DB4      		in __tmp_reg__,0x2d
 913 0376 07FE      		sbrs __tmp_reg__,7
 914 0378 00C0      		rjmp .L57
 915               	.LBE183:
 916               	.LBE182:
 231:/Users/manueldeneu/Documents/projets/dev/Monu100/MicroController/MicMonu100/MicMonu100/Display.c ****     sendSPI( p << 4 ); // p15
 918               	.LM91:
 919 037a 2295      		swap r18
 920 037c 207F      		andi r18,lo8(-16)
 921               	.LBB184:
 922               	.LBB185:
  52:/Users/manueldeneu/Documents/projets/dev/Monu100/MicroController/MicMonu100/MicMonu100/Display.c ****     SPDR = val;
 924               	.LM92:
 925 037e 2EBD      		out 0x2e,r18
 926               	.L59:
  53:/Users/manueldeneu/Documents/projets/dev/Monu100/MicroController/MicMonu100/MicMonu100/Display.c ****     while (!(SPSR & (1 << SPIF)));
 928               	.LM93:
 929 0380 0DB4      		in __tmp_reg__,0x2d
 930 0382 07FE      		sbrs __tmp_reg__,7
 931 0384 00C0      		rjmp .L59
 932               	.LBE185:
 933               	.LBE184:
 934               	.LBE179:
 935               	.LBB186:
 936               	.LBB187:
  52:/Users/manueldeneu/Documents/projets/dev/Monu100/MicroController/MicMonu100/MicMonu100/Display.c ****     SPDR = val;
 938               	.LM94:
 939 0386 1EBC      		out 0x2e,__zero_reg__
 940               	.L61:
  53:/Users/manueldeneu/Documents/projets/dev/Monu100/MicroController/MicMonu100/MicMonu100/Display.c ****     while (!(SPSR & (1 << SPIF)));
 942               	.LM95:
 943 0388 0DB4      		in __tmp_reg__,0x2d
 944 038a 07FE      		sbrs __tmp_reg__,7
 945 038c 00C0      		rjmp .L61
 946 038e 2FE0      		ldi r18,lo8(15)
 947 0390 30E0      		ldi r19,0
 948               	.LBE187:
 949               	.LBE186:
 950               	.LBB188:
 951               	.LBB189:
 952               	.LBB190:
 953               	.LBB191:
  44:/Users/manueldeneu/Documents/projets/dev/Monu100/MicroController/MicMonu100/MicMonu100/Display.c ****     return _display.buff_text[x][y] +_display.buff_draw[x][y] ;
 955               	.LM96:
 956 0392 C4E1      		ldi r28,lo8(20)
 957               	.L69:
 958 0394 8091 0000 		lds r24,rowIndex.2448
 959 0398 9091 0000 		lds r25,rowIndex.2448+1
 960 039c 9927      		clr r25
  44:/Users/manueldeneu/Documents/projets/dev/Monu100/MicroController/MicMonu100/MicMonu100/Display.c ****     return _display.buff_text[x][y] +_display.buff_draw[x][y] ;
 962               	.LM97:
 963 039e C29F      		mul r28,r18
 964 03a0 F001      		movw r30,r0
 965 03a2 C39F      		mul r28,r19
 966 03a4 F00D      		add r31,r0
 967 03a6 1124      		clr __zero_reg__
 968 03a8 DC01      		movw r26,r24
 969 03aa AE0F      		add r26,r30
 970 03ac BF1F      		adc r27,r31
 971 03ae A050      		subi r26,lo8(-(_display+600))
 972 03b0 B040      		sbci r27,hi8(-(_display+600))
 973 03b2 E80F      		add r30,r24
 974 03b4 F91F      		adc r31,r25
 975 03b6 E050      		subi r30,lo8(-(_display))
 976 03b8 F040      		sbci r31,hi8(-(_display))
 977 03ba AC91      		ld r26,X
 978 03bc 4081      		ld r20,Z
 979 03be A40F      		add r26,r20
 980 03c0 B901      		movw r22,r18
 981 03c2 6F5F      		subi r22,-1
 982 03c4 7F4F      		sbci r23,-1
 983               	.LBE191:
 984               	.LBE190:
 985               	.LBB192:
 986               	.LBB193:
 987 03c6 C69F      		mul r28,r22
 988 03c8 A001      		movw r20,r0
 989 03ca C79F      		mul r28,r23
 990 03cc 500D      		add r21,r0
 991 03ce 1124      		clr __zero_reg__
 992 03d0 FC01      		movw r30,r24
 993 03d2 E40F      		add r30,r20
 994 03d4 F51F      		adc r31,r21
 995 03d6 E050      		subi r30,lo8(-(_display+600))
 996 03d8 F040      		sbci r31,hi8(-(_display+600))
 997 03da 840F      		add r24,r20
 998 03dc 951F      		adc r25,r21
 999 03de 8050      		subi r24,lo8(-(_display))
 1000 03e0 9040      		sbci r25,hi8(-(_display))
 1001 03e2 4081      		ld r20,Z
 1002 03e4 FC01      		movw r30,r24
 1003 03e6 8081      		ld r24,Z
 1004 03e8 480F      		add r20,r24
 1005               	.LBE193:
 1006               	.LBE192:
 232:/Users/manueldeneu/Documents/projets/dev/Monu100/MicroController/MicMonu100/MicMonu100/Display.c ****     }
 233:/Users/manueldeneu/Documents/projets/dev/Monu100/MicroController/MicMonu100/MicMonu100/Display.c ****     //
 234:/Users/manueldeneu/Documents/projets/dev/Monu100/MicroController/MicMonu100/MicMonu100/Display.c ****     
 235:/Users/manueldeneu/Documents/projets/dev/Monu100/MicroController/MicMonu100/MicMonu100/Display.c ****     // col 16 -> send dumm values ( not displayed)
 236:/Users/manueldeneu/Documents/projets/dev/Monu100/MicroController/MicMonu100/MicMonu100/Display.c ****     sendSPI(0b00000000); // p16
 237:/Users/manueldeneu/Documents/projets/dev/Monu100/MicroController/MicMonu100/MicMonu100/Display.c ****     
 238:/Users/manueldeneu/Documents/projets/dev/Monu100/MicroController/MicMonu100/MicMonu100/Display.c ****     for (int x = 15;x<28;x+=2)
 239:/Users/manueldeneu/Documents/projets/dev/Monu100/MicroController/MicMonu100/MicMonu100/Display.c ****     {
 240:/Users/manueldeneu/Documents/projets/dev/Monu100/MicroController/MicMonu100/MicMonu100/Display.c ****         const uint8_t pixA =  getPixel(x  , rowIndex);
 241:/Users/manueldeneu/Documents/projets/dev/Monu100/MicroController/MicMonu100/MicMonu100/Display.c ****         const uint8_t pixB =  getPixel(x+1, rowIndex);
 242:/Users/manueldeneu/Documents/projets/dev/Monu100/MicroController/MicMonu100/MicMonu100/Display.c ****         
 243:/Users/manueldeneu/Documents/projets/dev/Monu100/MicroController/MicMonu100/MicMonu100/Display.c ****         sendSPI( pixA >> 4); // p1
 1008               	.LM98:
 1009 03ea 8A2F      		mov r24,r26
 1010 03ec 8295      		swap r24
 1011 03ee 8F70      		andi r24,lo8(15)
 1012               	.LBB194:
 1013               	.LBB195:
  52:/Users/manueldeneu/Documents/projets/dev/Monu100/MicroController/MicMonu100/MicMonu100/Display.c ****     SPDR = val;
 1015               	.LM99:
 1016 03f0 8EBD      		out 0x2e,r24
 1017               	.L63:
  53:/Users/manueldeneu/Documents/projets/dev/Monu100/MicroController/MicMonu100/MicMonu100/Display.c ****     while (!(SPSR & (1 << SPIF)));
 1019               	.LM100:
 1020 03f2 0DB4      		in __tmp_reg__,0x2d
 1021 03f4 07FE      		sbrs __tmp_reg__,7
 1022 03f6 00C0      		rjmp .L63
 1023               	.LBE195:
 1024               	.LBE194:
 244:/Users/manueldeneu/Documents/projets/dev/Monu100/MicroController/MicMonu100/MicMonu100/Display.c ****         sendSPI( (uint8_t )(pixA<< 4) ); // p1
 1026               	.LM101:
 1027 03f8 A295      		swap r26
 1028 03fa A07F      		andi r26,lo8(-16)
 1029               	.LBB196:
 1030               	.LBB197:
  52:/Users/manueldeneu/Documents/projets/dev/Monu100/MicroController/MicMonu100/MicMonu100/Display.c ****     SPDR = val;
 1032               	.LM102:
 1033 03fc AEBD      		out 0x2e,r26
 1034               	.L65:
  53:/Users/manueldeneu/Documents/projets/dev/Monu100/MicroController/MicMonu100/MicMonu100/Display.c ****     while (!(SPSR & (1 << SPIF)));
 1036               	.LM103:
 1037 03fe 0DB4      		in __tmp_reg__,0x2d
 1038 0400 07FE      		sbrs __tmp_reg__,7
 1039 0402 00C0      		rjmp .L65
 1040               	.LBE197:
 1041               	.LBE196:
 1042               	.LBB198:
 1043               	.LBB199:
  52:/Users/manueldeneu/Documents/projets/dev/Monu100/MicroController/MicMonu100/MicMonu100/Display.c ****     SPDR = val;
 1045               	.LM104:
 1046 0404 4EBD      		out 0x2e,r20
 1047               	.L67:
  53:/Users/manueldeneu/Documents/projets/dev/Monu100/MicroController/MicMonu100/MicMonu100/Display.c ****     while (!(SPSR & (1 << SPIF)));
 1049               	.LM105:
 1050 0406 0DB4      		in __tmp_reg__,0x2d
 1051 0408 07FE      		sbrs __tmp_reg__,7
 1052 040a 00C0      		rjmp .L67
 1053               	.LBE199:
 1054               	.LBE198:
 1055               	.LBE189:
 238:/Users/manueldeneu/Documents/projets/dev/Monu100/MicroController/MicMonu100/MicMonu100/Display.c ****     for (int x = 15;x<28;x+=2)
 1057               	.LM106:
 1058 040c 2E5F      		subi r18,-2
 1059 040e 3F4F      		sbci r19,-1
 1060 0410 2D31      		cpi r18,29
 1061 0412 3105      		cpc r19,__zero_reg__
 1062 0414 01F0      		breq .+2
 1063 0416 00C0      		rjmp .L69
 1064 0418 8091 0000 		lds r24,rowIndex.2448
 1065 041c 9091 0000 		lds r25,rowIndex.2448+1
 1066 0420 9927      		clr r25
 1067               	.LBE188:
 1068               	.LBB200:
 1069               	.LBB201:
 1070               	.LBB202:
  44:/Users/manueldeneu/Documents/projets/dev/Monu100/MicroController/MicMonu100/MicMonu100/Display.c ****     return _display.buff_text[x][y] +_display.buff_draw[x][y] ;
 1072               	.LM107:
 1073 0422 8050      		subi r24,lo8(-(_display))
 1074 0424 9040      		sbci r25,hi8(-(_display))
 1075 0426 FC01      		movw r30,r24
 1076 0428 E456      		subi r30,100
 1077 042a FB4F      		sbci r31,-5
 1078 042c DC01      		movw r26,r24
 1079 042e AC5B      		subi r26,-68
 1080 0430 BD4F      		sbci r27,-3
 1081 0432 2081      		ld r18,Z
 1082 0434 8C91      		ld r24,X
 1083 0436 280F      		add r18,r24
 1084               	.LBE202:
 1085               	.LBE201:
 245:/Users/manueldeneu/Documents/projets/dev/Monu100/MicroController/MicMonu100/MicMonu100/Display.c ****         sendSPI( pixB ); // p2
 246:/Users/manueldeneu/Documents/projets/dev/Monu100/MicroController/MicMonu100/MicMonu100/Display.c ****     }
 247:/Users/manueldeneu/Documents/projets/dev/Monu100/MicroController/MicMonu100/MicMonu100/Display.c ****     
 248:/Users/manueldeneu/Documents/projets/dev/Monu100/MicroController/MicMonu100/MicMonu100/Display.c ****     // col 29 a la mano
 249:/Users/manueldeneu/Documents/projets/dev/Monu100/MicroController/MicMonu100/MicMonu100/Display.c ****     {
 250:/Users/manueldeneu/Documents/projets/dev/Monu100/MicroController/MicMonu100/MicMonu100/Display.c ****         const uint8_t p = getPixel(29, rowIndex);
 251:/Users/manueldeneu/Documents/projets/dev/Monu100/MicroController/MicMonu100/MicMonu100/Display.c ****     sendSPI( p >> 4 ); // p15
 1087               	.LM108:
 1088 0438 822F      		mov r24,r18
 1089 043a 8295      		swap r24
 1090 043c 8F70      		andi r24,lo8(15)
 1091               	.LBB203:
 1092               	.LBB204:
  52:/Users/manueldeneu/Documents/projets/dev/Monu100/MicroController/MicMonu100/MicMonu100/Display.c ****     SPDR = val;
 1094               	.LM109:
 1095 043e 8EBD      		out 0x2e,r24
 1096               	.L71:
  53:/Users/manueldeneu/Documents/projets/dev/Monu100/MicroController/MicMonu100/MicMonu100/Display.c ****     while (!(SPSR & (1 << SPIF)));
 1098               	.LM110:
 1099 0440 0DB4      		in __tmp_reg__,0x2d
 1100 0442 07FE      		sbrs __tmp_reg__,7
 1101 0444 00C0      		rjmp .L71
 1102               	.LBE204:
 1103               	.LBE203:
 252:/Users/manueldeneu/Documents/projets/dev/Monu100/MicroController/MicMonu100/MicMonu100/Display.c ****     sendSPI( p << 4 ); // p15
 1105               	.LM111:
 1106 0446 2295      		swap r18
 1107 0448 207F      		andi r18,lo8(-16)
 1108               	.LBB205:
 1109               	.LBB206:
  52:/Users/manueldeneu/Documents/projets/dev/Monu100/MicroController/MicMonu100/MicMonu100/Display.c ****     SPDR = val;
 1111               	.LM112:
 1112 044a 2EBD      		out 0x2e,r18
 1113               	.L73:
  53:/Users/manueldeneu/Documents/projets/dev/Monu100/MicroController/MicMonu100/MicMonu100/Display.c ****     while (!(SPSR & (1 << SPIF)));
 1115               	.LM113:
 1116 044c 0DB4      		in __tmp_reg__,0x2d
 1117 044e 07FE      		sbrs __tmp_reg__,7
 1118 0450 00C0      		rjmp .L73
 1119               	.LBE206:
 1120               	.LBE205:
 1121               	.LBE200:
 253:/Users/manueldeneu/Documents/projets/dev/Monu100/MicroController/MicMonu100/MicMonu100/Display.c ****     }
 254:/Users/manueldeneu/Documents/projets/dev/Monu100/MicroController/MicMonu100/MicMonu100/Display.c ****     /***** END OF FILL TLC BUFFERS ****/
 255:/Users/manueldeneu/Documents/projets/dev/Monu100/MicroController/MicMonu100/MicMonu100/Display.c ****     
 256:/Users/manueldeneu/Documents/projets/dev/Monu100/MicroController/MicMonu100/MicMonu100/Display.c **** 
 257:/Users/manueldeneu/Documents/projets/dev/Monu100/MicroController/MicMonu100/MicMonu100/Display.c ****     
 258:/Users/manueldeneu/Documents/projets/dev/Monu100/MicroController/MicMonu100/MicMonu100/Display.c ****     _display.isDrawing = 0;
 1123               	.LM114:
 1124 0452 1092 0000 		sts _display+1204,__zero_reg__
 259:/Users/manueldeneu/Documents/projets/dev/Monu100/MicroController/MicMonu100/MicMonu100/Display.c ****     
 260:/Users/manueldeneu/Documents/projets/dev/Monu100/MicroController/MicMonu100/MicMonu100/Display.c ****     xlatNeedsPulse = 1;
 1126               	.LM115:
 1127 0456 81E0      		ldi r24,lo8(1)
 1128 0458 8093 0000 		sts xlatNeedsPulse.2450,r24
 261:/Users/manueldeneu/Documents/projets/dev/Monu100/MicroController/MicMonu100/MicMonu100/Display.c ****     
 262:/Users/manueldeneu/Documents/projets/dev/Monu100/MicroController/MicMonu100/MicMonu100/Display.c ****     //pulse( MIC_CLOCK_PORT , MIC_CLOCK_PIN );
 263:/Users/manueldeneu/Documents/projets/dev/Monu100/MicroController/MicMonu100/MicMonu100/Display.c ****     setHigh( MIC_CLOCK_PORT , MIC_CLOCK_PIN );
 1130               	.LM116:
 1131 045c 8091 0B01 		lds r24,267
 1132 0460 8260      		ori r24,lo8(2)
 1133 0462 8093 0B01 		sts 267,r24
 264:/Users/manueldeneu/Documents/projets/dev/Monu100/MicroController/MicMonu100/MicMonu100/Display.c ****     setLow( MIC_CLOCK_PORT , MIC_CLOCK_PIN );
 1135               	.LM117:
 1136 0466 8091 0B01 		lds r24,267
 1137 046a 8D7F      		andi r24,lo8(-3)
 1138 046c 8093 0B01 		sts 267,r24
 265:/Users/manueldeneu/Documents/projets/dev/Monu100/MicroController/MicMonu100/MicMonu100/Display.c ****     /**/
 266:/Users/manueldeneu/Documents/projets/dev/Monu100/MicroController/MicMonu100/MicMonu100/Display.c ****     // additionnal pulse for non-wired outs of mics.
 267:/Users/manueldeneu/Documents/projets/dev/Monu100/MicroController/MicMonu100/MicMonu100/Display.c ****     /*
 268:/Users/manueldeneu/Documents/projets/dev/Monu100/MicroController/MicMonu100/MicMonu100/Display.c ****     if ( (rowIndex == 15) ||
 269:/Users/manueldeneu/Documents/projets/dev/Monu100/MicroController/MicMonu100/MicMonu100/Display.c ****         (rowIndex == 22)
 270:/Users/manueldeneu/Documents/projets/dev/Monu100/MicroController/MicMonu100/MicMonu100/Display.c ****         )
 271:/Users/manueldeneu/Documents/projets/dev/Monu100/MicroController/MicMonu100/MicMonu100/Display.c ****     {
 272:/Users/manueldeneu/Documents/projets/dev/Monu100/MicroController/MicMonu100/MicMonu100/Display.c ****         setLow( DATA0_PORT , DATA0_PIN);
 273:/Users/manueldeneu/Documents/projets/dev/Monu100/MicroController/MicMonu100/MicMonu100/Display.c ****         setLow( DATA1_PORT , DATA1_PIN);
 274:/Users/manueldeneu/Documents/projets/dev/Monu100/MicroController/MicMonu100/MicMonu100/Display.c ****         
 275:/Users/manueldeneu/Documents/projets/dev/Monu100/MicroController/MicMonu100/MicMonu100/Display.c ****         pulse( MIC_CLOCK_PORT , MIC_CLOCK_PIN );
 276:/Users/manueldeneu/Documents/projets/dev/Monu100/MicroController/MicMonu100/MicMonu100/Display.c ****         
 277:/Users/manueldeneu/Documents/projets/dev/Monu100/MicroController/MicMonu100/MicMonu100/Display.c ****     }
 278:/Users/manueldeneu/Documents/projets/dev/Monu100/MicroController/MicMonu100/MicMonu100/Display.c ****     */
 279:/Users/manueldeneu/Documents/projets/dev/Monu100/MicroController/MicMonu100/MicMonu100/Display.c ****     /**/
 280:/Users/manueldeneu/Documents/projets/dev/Monu100/MicroController/MicMonu100/MicMonu100/Display.c ****     
 281:/Users/manueldeneu/Documents/projets/dev/Monu100/MicroController/MicMonu100/MicMonu100/Display.c ****     setHigh(BLANK_PORT, BLANK_PIN);
 1140               	.LM118:
 1141 0470 289A      		sbi 0x5,0
 282:/Users/manueldeneu/Documents/projets/dev/Monu100/MicroController/MicMonu100/MicMonu100/Display.c **** 
 283:/Users/manueldeneu/Documents/projets/dev/Monu100/MicroController/MicMonu100/MicMonu100/Display.c ****     
 284:/Users/manueldeneu/Documents/projets/dev/Monu100/MicroController/MicMonu100/MicMonu100/Display.c ****     if (xlatNeedsPulse)
 1143               	.LM119:
 1144 0472 8091 0000 		lds r24,xlatNeedsPulse.2450
 1145 0476 8823      		tst r24
 1146 0478 01F0      		breq .L74
 285:/Users/manueldeneu/Documents/projets/dev/Monu100/MicroController/MicMonu100/MicMonu100/Display.c ****     {
 286:/Users/manueldeneu/Documents/projets/dev/Monu100/MicroController/MicMonu100/MicMonu100/Display.c ****         pulse(XLAT_PORT, XLAT_PIN);
 1148               	.LM120:
 1149 047a 2D9A      		sbi 0x5,5
 1150 047c 2D98      		cbi 0x5,5
 287:/Users/manueldeneu/Documents/projets/dev/Monu100/MicroController/MicMonu100/MicMonu100/Display.c ****         xlatNeedsPulse = 0;
 1152               	.LM121:
 1153 047e 1092 0000 		sts xlatNeedsPulse.2450,__zero_reg__
 1154               	.L74:
 288:/Users/manueldeneu/Documents/projets/dev/Monu100/MicroController/MicMonu100/MicMonu100/Display.c ****         
 289:/Users/manueldeneu/Documents/projets/dev/Monu100/MicroController/MicMonu100/MicMonu100/Display.c ****         
 290:/Users/manueldeneu/Documents/projets/dev/Monu100/MicroController/MicMonu100/MicMonu100/Display.c ****     }
 291:/Users/manueldeneu/Documents/projets/dev/Monu100/MicroController/MicMonu100/MicMonu100/Display.c ****     
 292:/Users/manueldeneu/Documents/projets/dev/Monu100/MicroController/MicMonu100/MicMonu100/Display.c ****     if (firstCycleFlag)
 1156               	.LM122:
 1157 0482 8091 0000 		lds r24,firstCycleFlag.2449
 1158 0486 8823      		tst r24
 1159 0488 01F0      		breq .L75
 293:/Users/manueldeneu/Documents/projets/dev/Monu100/MicroController/MicMonu100/MicMonu100/Display.c ****     {
 294:/Users/manueldeneu/Documents/projets/dev/Monu100/MicroController/MicMonu100/MicMonu100/Display.c ****         //pulse(SCLK_PORT, SCLK_PIN);
 295:/Users/manueldeneu/Documents/projets/dev/Monu100/MicroController/MicMonu100/MicMonu100/Display.c ****         setHigh(SCLK_PORT, SCLK_PIN);
 1161               	.LM123:
 1162 048a 299A      		sbi 0x5,1
 296:/Users/manueldeneu/Documents/projets/dev/Monu100/MicroController/MicMonu100/MicMonu100/Display.c **** //        _delay_ms( 20 );
 297:/Users/manueldeneu/Documents/projets/dev/Monu100/MicroController/MicMonu100/MicMonu100/Display.c ****         setLow(SCLK_PORT, SCLK_PIN);
 1164               	.LM124:
 1165 048c 2998      		cbi 0x5,1
 298:/Users/manueldeneu/Documents/projets/dev/Monu100/MicroController/MicMonu100/MicMonu100/Display.c ****         firstCycleFlag = 0;
 1167               	.LM125:
 1168 048e 1092 0000 		sts firstCycleFlag.2449,__zero_reg__
 1169               	.L75:
 299:/Users/manueldeneu/Documents/projets/dev/Monu100/MicroController/MicMonu100/MicMonu100/Display.c ****     }
 300:/Users/manueldeneu/Documents/projets/dev/Monu100/MicroController/MicMonu100/MicMonu100/Display.c ****     
 301:/Users/manueldeneu/Documents/projets/dev/Monu100/MicroController/MicMonu100/MicMonu100/Display.c ****     
 302:/Users/manueldeneu/Documents/projets/dev/Monu100/MicroController/MicMonu100/MicMonu100/Display.c **** 
 303:/Users/manueldeneu/Documents/projets/dev/Monu100/MicroController/MicMonu100/MicMonu100/Display.c ****     
 304:/Users/manueldeneu/Documents/projets/dev/Monu100/MicroController/MicMonu100/MicMonu100/Display.c ****     
 305:/Users/manueldeneu/Documents/projets/dev/Monu100/MicroController/MicMonu100/MicMonu100/Display.c ****     rowIndex++;    
 1171               	.LM126:
 1172 0492 8091 0000 		lds r24,rowIndex.2448
 1173 0496 9091 0000 		lds r25,rowIndex.2448+1
 1174 049a 0196      		adiw r24,1
 1175 049c 9093 0000 		sts rowIndex.2448+1,r25
 1176 04a0 8093 0000 		sts rowIndex.2448,r24
 1177               	/* epilogue start */
 306:/Users/manueldeneu/Documents/projets/dev/Monu100/MicroController/MicMonu100/MicMonu100/Display.c **** }
 1179               	.LM127:
 1180 04a4 CF91      		pop r28
 1181 04a6 0895      		ret
 1194               	.Lscope4:
 1196               	.global	TLC5940_Init
 1198               	TLC5940_Init:
 307:/Users/manueldeneu/Documents/projets/dev/Monu100/MicroController/MicMonu100/MicMonu100/Display.c **** 
 308:/Users/manueldeneu/Documents/projets/dev/Monu100/MicroController/MicMonu100/MicMonu100/Display.c **** /* **** **** **** **** **** **** **** **** **** **** **** **** **** **** **** **** **** **** **** *
 309:/Users/manueldeneu/Documents/projets/dev/Monu100/MicroController/MicMonu100/MicMonu100/Display.c **** 
 310:/Users/manueldeneu/Documents/projets/dev/Monu100/MicroController/MicMonu100/MicMonu100/Display.c **** void TLC5940_Init(void)
 311:/Users/manueldeneu/Documents/projets/dev/Monu100/MicroController/MicMonu100/MicMonu100/Display.c **** {
 1200               	.LM128:
 1201               	.LFBB5:
 1202               	/* prologue: function */
 1203               	/* frame size = 0 */
 1204               	/* stack size = 0 */
 1205               	.L__stack_usage = 0
 312:/Users/manueldeneu/Documents/projets/dev/Monu100/MicroController/MicMonu100/MicMonu100/Display.c ****     // init MICs leds
 313:/Users/manueldeneu/Documents/projets/dev/Monu100/MicroController/MicMonu100/MicMonu100/Display.c ****     setOutput( DATA0_DDR , DATA0_PIN         ); // data row1
 1207               	.LM129:
 1208 04a8 8091 0A01 		lds r24,266
 1209 04ac 8860      		ori r24,lo8(8)
 1210 04ae 8093 0A01 		sts 266,r24
 314:/Users/manueldeneu/Documents/projets/dev/Monu100/MicroController/MicMonu100/MicMonu100/Display.c ****     setOutput( DATA1_DDR , DATA1_PIN         ); // data row2
 1212               	.LM130:
 1213 04b2 8091 0A01 		lds r24,266
 1214 04b6 8061      		ori r24,lo8(16)
 1215 04b8 8093 0A01 		sts 266,r24
 315:/Users/manueldeneu/Documents/projets/dev/Monu100/MicroController/MicMonu100/MicMonu100/Display.c ****     setOutput( MIC_CLOCK_DDR , MIC_CLOCK_PIN ); // clock
 1217               	.LM131:
 1218 04bc 8091 0A01 		lds r24,266
 1219 04c0 8260      		ori r24,lo8(2)
 1220 04c2 8093 0A01 		sts 266,r24
 316:/Users/manueldeneu/Documents/projets/dev/Monu100/MicroController/MicMonu100/MicMonu100/Display.c ****     
 317:/Users/manueldeneu/Documents/projets/dev/Monu100/MicroController/MicMonu100/MicMonu100/Display.c ****     setOutput( MIC_STROBE_DDR , MIC_STROBE_PIN ); // strobe
 1222               	.LM132:
 1223 04c6 8091 0A01 		lds r24,266
 1224 04ca 8460      		ori r24,lo8(4)
 1225 04cc 8093 0A01 		sts 266,r24
 318:/Users/manueldeneu/Documents/projets/dev/Monu100/MicroController/MicMonu100/MicMonu100/Display.c ****     
 319:/Users/manueldeneu/Documents/projets/dev/Monu100/MicroController/MicMonu100/MicMonu100/Display.c ****     setOutput( MIC_OUT_ENABLE_DDR , MIC_OUT_ENABLE_PIN ); // utile?
 1227               	.LM133:
 1228 04d0 8091 0A01 		lds r24,266
 1229 04d4 8160      		ori r24,lo8(1)
 1230 04d6 8093 0A01 		sts 266,r24
 320:/Users/manueldeneu/Documents/projets/dev/Monu100/MicroController/MicMonu100/MicMonu100/Display.c ****     
 321:/Users/manueldeneu/Documents/projets/dev/Monu100/MicroController/MicMonu100/MicMonu100/Display.c ****     
 322:/Users/manueldeneu/Documents/projets/dev/Monu100/MicroController/MicMonu100/MicMonu100/Display.c ****     setLow(MIC_OUT_ENABLE_PORT, MIC_OUT_ENABLE_PIN);
 1232               	.LM134:
 1233 04da 8091 0B01 		lds r24,267
 1234 04de 8E7F      		andi r24,lo8(-2)
 1235 04e0 8093 0B01 		sts 267,r24
 323:/Users/manueldeneu/Documents/projets/dev/Monu100/MicroController/MicMonu100/MicMonu100/Display.c ****     // reset mic buffers
 324:/Users/manueldeneu/Documents/projets/dev/Monu100/MicroController/MicMonu100/MicMonu100/Display.c ****     
 325:/Users/manueldeneu/Documents/projets/dev/Monu100/MicroController/MicMonu100/MicMonu100/Display.c ****     
 326:/Users/manueldeneu/Documents/projets/dev/Monu100/MicroController/MicMonu100/MicMonu100/Display.c ****     setLow( DATA0_PORT , DATA0_PIN); // val 0 prvue -> pulse aprs crit la valeur dans le buff
 1237               	.LM135:
 1238 04e4 8091 0B01 		lds r24,267
 1239 04e8 877F      		andi r24,lo8(-9)
 1240 04ea 8093 0B01 		sts 267,r24
 327:/Users/manueldeneu/Documents/projets/dev/Monu100/MicroController/MicMonu100/MicMonu100/Display.c ****     setLow( DATA1_PORT , DATA1_PIN);
 1242               	.LM136:
 1243 04ee 8091 0B01 		lds r24,267
 1244 04f2 8F7E      		andi r24,lo8(-17)
 1245 04f4 8093 0B01 		sts 267,r24
 1246 04f8 84E1      		ldi r24,lo8(20)
 1247 04fa 90E0      		ldi r25,0
 1248               	.L84:
 1249               	.LBB207:
 328:/Users/manueldeneu/Documents/projets/dev/Monu100/MicroController/MicMonu100/MicMonu100/Display.c ****     
 329:/Users/manueldeneu/Documents/projets/dev/Monu100/MicroController/MicMonu100/MicMonu100/Display.c ****     for (int i=0; i< Y_MIC_MAX ; i++)
 330:/Users/manueldeneu/Documents/projets/dev/Monu100/MicroController/MicMonu100/MicMonu100/Display.c ****     {
 331:/Users/manueldeneu/Documents/projets/dev/Monu100/MicroController/MicMonu100/MicMonu100/Display.c ****         pulse( MIC_CLOCK_PORT , MIC_CLOCK_PIN );
 1251               	.LM137:
 1252 04fc 2091 0B01 		lds r18,267
 1253 0500 2260      		ori r18,lo8(2)
 1254 0502 2093 0B01 		sts 267,r18
 1255 0506 2091 0B01 		lds r18,267
 1256 050a 2D7F      		andi r18,lo8(-3)
 1257 050c 2093 0B01 		sts 267,r18
 1258 0510 0197      		sbiw r24,1
 329:/Users/manueldeneu/Documents/projets/dev/Monu100/MicroController/MicMonu100/MicMonu100/Display.c ****     for (int i=0; i< Y_MIC_MAX ; i++)
 1260               	.LM138:
 1261 0512 0097      		sbiw r24,0
 1262 0514 01F4      		brne .L84
 1263               	.LBE207:
 332:/Users/manueldeneu/Documents/projets/dev/Monu100/MicroController/MicMonu100/MicMonu100/Display.c ****         
 333:/Users/manueldeneu/Documents/projets/dev/Monu100/MicroController/MicMonu100/MicMonu100/Display.c ****     }
 334:/Users/manueldeneu/Documents/projets/dev/Monu100/MicroController/MicMonu100/MicMonu100/Display.c ****     
 335:/Users/manueldeneu/Documents/projets/dev/Monu100/MicroController/MicMonu100/MicMonu100/Display.c ****     setHigh( MIC_STROBE_PORT , MIC_STROBE_PIN ); // strobe mic leds
 1265               	.LM139:
 1266 0516 8091 0B01 		lds r24,267
 1267 051a 8460      		ori r24,lo8(4)
 1268 051c 8093 0B01 		sts 267,r24
 336:/Users/manueldeneu/Documents/projets/dev/Monu100/MicroController/MicMonu100/MicMonu100/Display.c **** 
 337:/Users/manueldeneu/Documents/projets/dev/Monu100/MicroController/MicMonu100/MicMonu100/Display.c ****     
 338:/Users/manueldeneu/Documents/projets/dev/Monu100/MicroController/MicMonu100/MicMonu100/Display.c ****     setOutput(SCLK_DDR, SCLK_PIN);
 1270               	.LM140:
 1271 0520 219A      		sbi 0x4,1
 339:/Users/manueldeneu/Documents/projets/dev/Monu100/MicroController/MicMonu100/MicMonu100/Display.c ****     
 340:/Users/manueldeneu/Documents/projets/dev/Monu100/MicroController/MicMonu100/MicMonu100/Display.c ****     setOutput(XLAT_DDR, XLAT_PIN);
 1273               	.LM141:
 1274 0522 259A      		sbi 0x4,5
 341:/Users/manueldeneu/Documents/projets/dev/Monu100/MicroController/MicMonu100/MicMonu100/Display.c ****     setOutput(BLANK_DDR, BLANK_PIN);
 1276               	.LM142:
 1277 0524 209A      		sbi 0x4,0
 342:/Users/manueldeneu/Documents/projets/dev/Monu100/MicroController/MicMonu100/MicMonu100/Display.c ****     setOutput(SIN_DDR, SIN_PIN);
 1279               	.LM143:
 1280 0526 229A      		sbi 0x4,2
 343:/Users/manueldeneu/Documents/projets/dev/Monu100/MicroController/MicMonu100/MicMonu100/Display.c ****     
 344:/Users/manueldeneu/Documents/projets/dev/Monu100/MicroController/MicMonu100/MicMonu100/Display.c ****     setLow(SCLK_PORT, SCLK_PIN);
 1282               	.LM144:
 1283 0528 2998      		cbi 0x5,1
 345:/Users/manueldeneu/Documents/projets/dev/Monu100/MicroController/MicMonu100/MicMonu100/Display.c ****     
 346:/Users/manueldeneu/Documents/projets/dev/Monu100/MicroController/MicMonu100/MicMonu100/Display.c ****     setLow(XLAT_PORT, XLAT_PIN);
 1285               	.LM145:
 1286 052a 2D98      		cbi 0x5,5
 347:/Users/manueldeneu/Documents/projets/dev/Monu100/MicroController/MicMonu100/MicMonu100/Display.c ****     
 348:/Users/manueldeneu/Documents/projets/dev/Monu100/MicroController/MicMonu100/MicMonu100/Display.c ****     setHigh(BLANK_PORT, BLANK_PIN);
 1288               	.LM146:
 1289 052c 289A      		sbi 0x5,0
 349:/Users/manueldeneu/Documents/projets/dev/Monu100/MicroController/MicMonu100/MicMonu100/Display.c ****     
 350:/Users/manueldeneu/Documents/projets/dev/Monu100/MicroController/MicMonu100/MicMonu100/Display.c ****     // Enable SPI, Master, set clock rate fck/2
 351:/Users/manueldeneu/Documents/projets/dev/Monu100/MicroController/MicMonu100/MicMonu100/Display.c ****     SPCR = (1 << SPE) | (1 << MSTR);
 1291               	.LM147:
 1292 052e 80E5      		ldi r24,lo8(80)
 1293 0530 8CBD      		out 0x2c,r24
 352:/Users/manueldeneu/Documents/projets/dev/Monu100/MicroController/MicMonu100/MicMonu100/Display.c ****     SPSR = (1 << SPI2X);
 1295               	.LM148:
 1296 0532 81E0      		ldi r24,lo8(1)
 1297 0534 8DBD      		out 0x2d,r24
 353:/Users/manueldeneu/Documents/projets/dev/Monu100/MicroController/MicMonu100/MicMonu100/Display.c ****     
 354:/Users/manueldeneu/Documents/projets/dev/Monu100/MicroController/MicMonu100/MicMonu100/Display.c ****     // CTC with OCR0A as TOP
 355:/Users/manueldeneu/Documents/projets/dev/Monu100/MicroController/MicMonu100/MicMonu100/Display.c ****     TCCR0A = (1 << WGM01);
 1299               	.LM149:
 1300 0536 82E0      		ldi r24,lo8(2)
 1301 0538 84BD      		out 0x24,r24
 356:/Users/manueldeneu/Documents/projets/dev/Monu100/MicroController/MicMonu100/MicMonu100/Display.c ****     // clk_io/1024 (From prescaler)
 357:/Users/manueldeneu/Documents/projets/dev/Monu100/MicroController/MicMonu100/MicMonu100/Display.c ****     TCCR0B = ((1 << CS02) | (1 << CS00));
 1303               	.LM150:
 1304 053a 85E0      		ldi r24,lo8(5)
 1305 053c 85BD      		out 0x25,r24
 358:/Users/manueldeneu/Documents/projets/dev/Monu100/MicroController/MicMonu100/MicMonu100/Display.c ****     // Generate an interrupt every 4096 clock cycles
 359:/Users/manueldeneu/Documents/projets/dev/Monu100/MicroController/MicMonu100/MicMonu100/Display.c ****     OCR0A = 3; // 3
 1307               	.LM151:
 1308 053e 83E0      		ldi r24,lo8(3)
 1309 0540 87BD      		out 0x27,r24
 360:/Users/manueldeneu/Documents/projets/dev/Monu100/MicroController/MicMonu100/MicMonu100/Display.c ****     // Enable Timer/Counter0 Compare Match A interrupt
 361:/Users/manueldeneu/Documents/projets/dev/Monu100/MicroController/MicMonu100/MicMonu100/Display.c ****     TIMSK0 |= (1 << OCIE0A);
 1311               	.LM152:
 1312 0542 8091 6E00 		lds r24,110
 1313 0546 8260      		ori r24,lo8(2)
 1314 0548 8093 6E00 		sts 110,r24
 1315 054c 0895      		ret
 1317               	.Lscope5:
 1321               	.global	display_setFontColor
 1323               	display_setFontColor:
 362:/Users/manueldeneu/Documents/projets/dev/Monu100/MicroController/MicMonu100/MicMonu100/Display.c **** }
 363:/Users/manueldeneu/Documents/projets/dev/Monu100/MicroController/MicMonu100/MicMonu100/Display.c **** 
 364:/Users/manueldeneu/Documents/projets/dev/Monu100/MicroController/MicMonu100/MicMonu100/Display.c **** 
 365:/Users/manueldeneu/Documents/projets/dev/Monu100/MicroController/MicMonu100/MicMonu100/Display.c **** /* **** **** **** **** **** **** **** **** **** **** **** **** **** **** **** **** **** **** **** *
 366:/Users/manueldeneu/Documents/projets/dev/Monu100/MicroController/MicMonu100/MicMonu100/Display.c **** /* **** **** **** **** **** **** **** **** **** **** **** **** **** **** **** **** **** **** **** *
 367:/Users/manueldeneu/Documents/projets/dev/Monu100/MicroController/MicMonu100/MicMonu100/Display.c **** 
 368:/Users/manueldeneu/Documents/projets/dev/Monu100/MicroController/MicMonu100/MicMonu100/Display.c **** 
 369:/Users/manueldeneu/Documents/projets/dev/Monu100/MicroController/MicMonu100/MicMonu100/Display.c **** 
 370:/Users/manueldeneu/Documents/projets/dev/Monu100/MicroController/MicMonu100/MicMonu100/Display.c **** void display_init( Display *display)
 371:/Users/manueldeneu/Documents/projets/dev/Monu100/MicroController/MicMonu100/MicMonu100/Display.c **** {
 372:/Users/manueldeneu/Documents/projets/dev/Monu100/MicroController/MicMonu100/MicMonu100/Display.c ****     display_clearAll( display);
 373:/Users/manueldeneu/Documents/projets/dev/Monu100/MicroController/MicMonu100/MicMonu100/Display.c **** 
 374:/Users/manueldeneu/Documents/projets/dev/Monu100/MicroController/MicMonu100/MicMonu100/Display.c **** 
 375:/Users/manueldeneu/Documents/projets/dev/Monu100/MicroController/MicMonu100/MicMonu100/Display.c ****     
 376:/Users/manueldeneu/Documents/projets/dev/Monu100/MicroController/MicMonu100/MicMonu100/Display.c ****     display->backgroundColor = 0b00000000;
 377:/Users/manueldeneu/Documents/projets/dev/Monu100/MicroController/MicMonu100/MicMonu100/Display.c ****     display->fontColor = PIXEL_MAX_VALUE;
 378:/Users/manueldeneu/Documents/projets/dev/Monu100/MicroController/MicMonu100/MicMonu100/Display.c ****     display->fillColor = PIXEL_MAX_VALUE;
 379:/Users/manueldeneu/Documents/projets/dev/Monu100/MicroController/MicMonu100/MicMonu100/Display.c ****     
 380:/Users/manueldeneu/Documents/projets/dev/Monu100/MicroController/MicMonu100/MicMonu100/Display.c ****     display->isDrawing = 0;
 381:/Users/manueldeneu/Documents/projets/dev/Monu100/MicroController/MicMonu100/MicMonu100/Display.c ****     
 382:/Users/manueldeneu/Documents/projets/dev/Monu100/MicroController/MicMonu100/MicMonu100/Display.c ****     TLC5940_Init();    
 383:/Users/manueldeneu/Documents/projets/dev/Monu100/MicroController/MicMonu100/MicMonu100/Display.c **** }
 384:/Users/manueldeneu/Documents/projets/dev/Monu100/MicroController/MicMonu100/MicMonu100/Display.c **** 
 385:/Users/manueldeneu/Documents/projets/dev/Monu100/MicroController/MicMonu100/MicMonu100/Display.c **** /* **** **** **** **** **** **** **** **** **** **** **** **** **** **** **** **** **** **** **** *
 386:/Users/manueldeneu/Documents/projets/dev/Monu100/MicroController/MicMonu100/MicMonu100/Display.c **** 
 387:/Users/manueldeneu/Documents/projets/dev/Monu100/MicroController/MicMonu100/MicMonu100/Display.c **** void display_setFontColor( Display *display ,uint8_t color)
 388:/Users/manueldeneu/Documents/projets/dev/Monu100/MicroController/MicMonu100/MicMonu100/Display.c **** {
 1325               	.LM153:
 1326               	.LFBB6:
 1327               	/* prologue: function */
 1328               	/* frame size = 0 */
 1329               	/* stack size = 0 */
 1330               	.L__stack_usage = 0
 389:/Users/manueldeneu/Documents/projets/dev/Monu100/MicroController/MicMonu100/MicMonu100/Display.c ****     display->fontColor = clipVal(color);
 1332               	.LM154:
 1333 054e 8E54      		subi r24,78
 1334 0550 9B4F      		sbci r25,-5
 1335               	.LBB208:
 1336               	.LBB209:
  39:/Users/manueldeneu/Documents/projets/dev/Monu100/MicroController/MicMonu100/MicMonu100/Display.c ****     return val>=PIXEL_MAX_VALUE ? PIXEL_MAX_VALUE : val;
 1338               	.LM155:
 1339 0552 6536      		cpi r22,lo8(101)
 1340 0554 00F0      		brlo .L86
 1341 0556 64E6      		ldi r22,lo8(100)
 1342               	.L86:
 1343               	.LBE209:
 1344               	.LBE208:
 1346               	.LM156:
 1347 0558 FC01      		movw r30,r24
 1348 055a 6083      		st Z,r22
 1349 055c 0895      		ret
 1351               	.Lscope6:
 1355               	.global	display_setFillColor
 1357               	display_setFillColor:
 390:/Users/manueldeneu/Documents/projets/dev/Monu100/MicroController/MicMonu100/MicMonu100/Display.c **** }
 391:/Users/manueldeneu/Documents/projets/dev/Monu100/MicroController/MicMonu100/MicMonu100/Display.c **** 
 392:/Users/manueldeneu/Documents/projets/dev/Monu100/MicroController/MicMonu100/MicMonu100/Display.c **** void display_setFillColor( Display *display ,uint8_t color)
 393:/Users/manueldeneu/Documents/projets/dev/Monu100/MicroController/MicMonu100/MicMonu100/Display.c **** {
 1359               	.LM157:
 1360               	.LFBB7:
 1361               	/* prologue: function */
 1362               	/* frame size = 0 */
 1363               	/* stack size = 0 */
 1364               	.L__stack_usage = 0
 394:/Users/manueldeneu/Documents/projets/dev/Monu100/MicroController/MicMonu100/MicMonu100/Display.c ****     display->fillColor = clipVal( color);
 1366               	.LM158:
 1367 055e 8F54      		subi r24,79
 1368 0560 9B4F      		sbci r25,-5
 1369               	.LBB210:
 1370               	.LBB211:
  39:/Users/manueldeneu/Documents/projets/dev/Monu100/MicroController/MicMonu100/MicMonu100/Display.c ****     return val>=PIXEL_MAX_VALUE ? PIXEL_MAX_VALUE : val;
 1372               	.LM159:
 1373 0562 6536      		cpi r22,lo8(101)
 1374 0564 00F0      		brlo .L88
 1375 0566 64E6      		ldi r22,lo8(100)
 1376               	.L88:
 1377               	.LBE211:
 1378               	.LBE210:
 1380               	.LM160:
 1381 0568 FC01      		movw r30,r24
 1382 056a 6083      		st Z,r22
 1383 056c 0895      		ret
 1385               	.Lscope7:
 1392               	.global	display_clearZoneDraw
 1394               	display_clearZoneDraw:
 395:/Users/manueldeneu/Documents/projets/dev/Monu100/MicroController/MicMonu100/MicMonu100/Display.c **** }
 396:/Users/manueldeneu/Documents/projets/dev/Monu100/MicroController/MicMonu100/MicMonu100/Display.c **** 
 397:/Users/manueldeneu/Documents/projets/dev/Monu100/MicroController/MicMonu100/MicMonu100/Display.c **** /* **** **** **** **** **** **** **** **** **** **** **** **** **** **** **** **** **** **** **** *
 398:/Users/manueldeneu/Documents/projets/dev/Monu100/MicroController/MicMonu100/MicMonu100/Display.c **** 
 399:/Users/manueldeneu/Documents/projets/dev/Monu100/MicroController/MicMonu100/MicMonu100/Display.c **** 
 400:/Users/manueldeneu/Documents/projets/dev/Monu100/MicroController/MicMonu100/MicMonu100/Display.c **** void display_clearZoneDraw     ( Display *display , const int8_t x , const int8_t y, const uint8_t 
 401:/Users/manueldeneu/Documents/projets/dev/Monu100/MicroController/MicMonu100/MicMonu100/Display.c **** {
 1396               	.LM161:
 1397               	.LFBB8:
 1398 056e 0F93      		push r16
 1399 0570 CF93      		push r28
 1400 0572 DF93      		push r29
 1401               	/* prologue: function */
 1402               	/* frame size = 0 */
 1403               	/* stack size = 3 */
 1404               	.L__stack_usage = 3
 1405 0574 260F      		add r18,r22
 1406 0576 040F      		add r16,r20
 1407               	.LBB212:
 1408               	.LBB213:
 1409               	.LBB214:
 402:/Users/manueldeneu/Documents/projets/dev/Monu100/MicroController/MicMonu100/MicMonu100/Display.c ****     for (uint8_t xx=0; xx< w; xx++)
 403:/Users/manueldeneu/Documents/projets/dev/Monu100/MicroController/MicMonu100/MicMonu100/Display.c ****         
 404:/Users/manueldeneu/Documents/projets/dev/Monu100/MicroController/MicMonu100/MicMonu100/Display.c ****         for (uint8_t yy=0; yy<h; yy++)
 405:/Users/manueldeneu/Documents/projets/dev/Monu100/MicroController/MicMonu100/MicMonu100/Display.c ****         {
 406:/Users/manueldeneu/Documents/projets/dev/Monu100/MicroController/MicMonu100/MicMonu100/Display.c ****             const int8_t defX =x+xx;
 407:/Users/manueldeneu/Documents/projets/dev/Monu100/MicroController/MicMonu100/MicMonu100/Display.c ****             const int8_t defY =y+yy;
 408:/Users/manueldeneu/Documents/projets/dev/Monu100/MicroController/MicMonu100/MicMonu100/Display.c ****             
 409:/Users/manueldeneu/Documents/projets/dev/Monu100/MicroController/MicMonu100/MicMonu100/Display.c ****             if( inBouds(defX, defY) )
 410:/Users/manueldeneu/Documents/projets/dev/Monu100/MicroController/MicMonu100/MicMonu100/Display.c ****             {
 411:/Users/manueldeneu/Documents/projets/dev/Monu100/MicroController/MicMonu100/MicMonu100/Display.c ****                 display->buff_draw[defX][defY] = display->backgroundColor;
 1411               	.LM162:
 1412 0578 54E1      		ldi r21,lo8(20)
 1413 057a EC01      		movw r28,r24
 1414 057c C055      		subi r28,80
 1415 057e DB4F      		sbci r29,-5
 1416               	.L90:
 1417               	.LBE214:
 1418               	.LBE213:
 402:/Users/manueldeneu/Documents/projets/dev/Monu100/MicroController/MicMonu100/MicMonu100/Display.c ****     for (uint8_t xx=0; xx< w; xx++)
 1420               	.LM163:
 1421 0580 6217      		cp r22,r18
 1422 0582 01F0      		breq .L89
 1423 0584 342F      		mov r19,r20
 1424               	.LBB219:
 1425               	.LBB217:
 1427               	.LM164:
 1428 0586 6503      		mulsu r22,r21
 1429 0588 F001      		movw r30,r0
 1430 058a 1124      		clr __zero_reg__
 1431 058c E80F      		add r30,r24
 1432 058e F91F      		adc r31,r25
 1433               	.L96:
 1434               	.LBE217:
 404:/Users/manueldeneu/Documents/projets/dev/Monu100/MicroController/MicMonu100/MicMonu100/Display.c ****         for (uint8_t yy=0; yy<h; yy++)
 1436               	.LM165:
 1437 0590 3017      		cp r19,r16
 1438 0592 01F0      		breq .L101
 1439               	.LBB218:
 1440               	.LBB215:
 1441               	.LBB216:
 1443               	.Ltext1:
   1:/Users/manueldeneu/Documents/projets/dev/Monu100/MicroController/MicMonu100/MicMonu100/Display.h **** //
   2:/Users/manueldeneu/Documents/projets/dev/Monu100/MicroController/MicMonu100/MicMonu100/Display.h **** //  Display.h
   3:/Users/manueldeneu/Documents/projets/dev/Monu100/MicroController/MicMonu100/MicMonu100/Display.h **** //  MicMonu100
   4:/Users/manueldeneu/Documents/projets/dev/Monu100/MicroController/MicMonu100/MicMonu100/Display.h **** //
   5:/Users/manueldeneu/Documents/projets/dev/Monu100/MicroController/MicMonu100/MicMonu100/Display.h **** //  Created by Manuel Deneu on 01/03/15.
   6:/Users/manueldeneu/Documents/projets/dev/Monu100/MicroController/MicMonu100/MicMonu100/Display.h **** //  Copyright (c) 2015 Manuel Deneu. All rights reserved.
   7:/Users/manueldeneu/Documents/projets/dev/Monu100/MicroController/MicMonu100/MicMonu100/Display.h **** //
   8:/Users/manueldeneu/Documents/projets/dev/Monu100/MicroController/MicMonu100/MicMonu100/Display.h **** 
   9:/Users/manueldeneu/Documents/projets/dev/Monu100/MicroController/MicMonu100/MicMonu100/Display.h **** #ifndef MicMonu100_Display_h
  10:/Users/manueldeneu/Documents/projets/dev/Monu100/MicroController/MicMonu100/MicMonu100/Display.h **** #define MicMonu100_Display_h
  11:/Users/manueldeneu/Documents/projets/dev/Monu100/MicroController/MicMonu100/MicMonu100/Display.h **** 
  12:/Users/manueldeneu/Documents/projets/dev/Monu100/MicroController/MicMonu100/MicMonu100/Display.h **** 
  13:/Users/manueldeneu/Documents/projets/dev/Monu100/MicroController/MicMonu100/MicMonu100/Display.h **** #define X_TLC_MAX 30
  14:/Users/manueldeneu/Documents/projets/dev/Monu100/MicroController/MicMonu100/MicMonu100/Display.h **** #define Y_MIC_MAX 20
  15:/Users/manueldeneu/Documents/projets/dev/Monu100/MicroController/MicMonu100/MicMonu100/Display.h **** 
  16:/Users/manueldeneu/Documents/projets/dev/Monu100/MicroController/MicMonu100/MicMonu100/Display.h **** #define PIXEL_MAX_VALUE  100 //112
  17:/Users/manueldeneu/Documents/projets/dev/Monu100/MicroController/MicMonu100/MicMonu100/Display.h **** 
  18:/Users/manueldeneu/Documents/projets/dev/Monu100/MicroController/MicMonu100/MicMonu100/Display.h **** 
  19:/Users/manueldeneu/Documents/projets/dev/Monu100/MicroController/MicMonu100/MicMonu100/Display.h **** 
  20:/Users/manueldeneu/Documents/projets/dev/Monu100/MicroController/MicMonu100/MicMonu100/Display.h **** 
  21:/Users/manueldeneu/Documents/projets/dev/Monu100/MicroController/MicMonu100/MicMonu100/Display.h **** /* **** **** **** **** **** **** **** **** **** **** **** */
  22:/Users/manueldeneu/Documents/projets/dev/Monu100/MicroController/MicMonu100/MicMonu100/Display.h **** /*
  23:/Users/manueldeneu/Documents/projets/dev/Monu100/MicroController/MicMonu100/MicMonu100/Display.h ****  
  24:/Users/manueldeneu/Documents/projets/dev/Monu100/MicroController/MicMonu100/MicMonu100/Display.h ****  inversion x<->y entre le buffer et la matrice :
  25:/Users/manueldeneu/Documents/projets/dev/Monu100/MicroController/MicMonu100/MicMonu100/Display.h ****     Pour l'instant l'inversion est compense dans l'interface ( fonctions display_*** )
  26:/Users/manueldeneu/Documents/projets/dev/Monu100/MicroController/MicMonu100/MicMonu100/Display.h ****  */
  27:/Users/manueldeneu/Documents/projets/dev/Monu100/MicroController/MicMonu100/MicMonu100/Display.h **** struct _Display
  28:/Users/manueldeneu/Documents/projets/dev/Monu100/MicroController/MicMonu100/MicMonu100/Display.h **** {
  29:/Users/manueldeneu/Documents/projets/dev/Monu100/MicroController/MicMonu100/MicMonu100/Display.h ****     uint8_t buff_text[ X_TLC_MAX ][ Y_MIC_MAX ];
  30:/Users/manueldeneu/Documents/projets/dev/Monu100/MicroController/MicMonu100/MicMonu100/Display.h ****     uint8_t buff_draw[ X_TLC_MAX ][ Y_MIC_MAX ];
  31:/Users/manueldeneu/Documents/projets/dev/Monu100/MicroController/MicMonu100/MicMonu100/Display.h **** 
  32:/Users/manueldeneu/Documents/projets/dev/Monu100/MicroController/MicMonu100/MicMonu100/Display.h **** 
  33:/Users/manueldeneu/Documents/projets/dev/Monu100/MicroController/MicMonu100/MicMonu100/Display.h **** 
  34:/Users/manueldeneu/Documents/projets/dev/Monu100/MicroController/MicMonu100/MicMonu100/Display.h ****     /* This color will be used when clearing the display */
  35:/Users/manueldeneu/Documents/projets/dev/Monu100/MicroController/MicMonu100/MicMonu100/Display.h ****     uint8_t backgroundColor;
  36:/Users/manueldeneu/Documents/projets/dev/Monu100/MicroController/MicMonu100/MicMonu100/Display.h ****     uint8_t fillColor;
  37:/Users/manueldeneu/Documents/projets/dev/Monu100/MicroController/MicMonu100/MicMonu100/Display.h ****     uint8_t fontColor;
  38:/Users/manueldeneu/Documents/projets/dev/Monu100/MicroController/MicMonu100/MicMonu100/Display.h ****     
  39:/Users/manueldeneu/Documents/projets/dev/Monu100/MicroController/MicMonu100/MicMonu100/Display.h ****     
  40:/Users/manueldeneu/Documents/projets/dev/Monu100/MicroController/MicMonu100/MicMonu100/Display.h ****     uint8_t needsDisplay; // byte 0
  41:/Users/manueldeneu/Documents/projets/dev/Monu100/MicroController/MicMonu100/MicMonu100/Display.h ****     
  42:/Users/manueldeneu/Documents/projets/dev/Monu100/MicroController/MicMonu100/MicMonu100/Display.h ****     /* This flag will be set to 1 during the drawing interupt */
  43:/Users/manueldeneu/Documents/projets/dev/Monu100/MicroController/MicMonu100/MicMonu100/Display.h ****     volatile uint8_t isDrawing;
  44:/Users/manueldeneu/Documents/projets/dev/Monu100/MicroController/MicMonu100/MicMonu100/Display.h ****     
  45:/Users/manueldeneu/Documents/projets/dev/Monu100/MicroController/MicMonu100/MicMonu100/Display.h **** };
  46:/Users/manueldeneu/Documents/projets/dev/Monu100/MicroController/MicMonu100/MicMonu100/Display.h **** 
  47:/Users/manueldeneu/Documents/projets/dev/Monu100/MicroController/MicMonu100/MicMonu100/Display.h **** typedef struct _Display Display;
  48:/Users/manueldeneu/Documents/projets/dev/Monu100/MicroController/MicMonu100/MicMonu100/Display.h **** 
  49:/Users/manueldeneu/Documents/projets/dev/Monu100/MicroController/MicMonu100/MicMonu100/Display.h **** /* **** **** **** **** **** **** **** **** **** **** **** **** **** */
  50:/Users/manueldeneu/Documents/projets/dev/Monu100/MicroController/MicMonu100/MicMonu100/Display.h **** 
  51:/Users/manueldeneu/Documents/projets/dev/Monu100/MicroController/MicMonu100/MicMonu100/Display.h **** inline uint8_t inBouds( int8_t x , int8_t y)
  52:/Users/manueldeneu/Documents/projets/dev/Monu100/MicroController/MicMonu100/MicMonu100/Display.h **** {
  53:/Users/manueldeneu/Documents/projets/dev/Monu100/MicroController/MicMonu100/MicMonu100/Display.h ****     return    ( x >=0 && x <X_TLC_MAX )
  54:/Users/manueldeneu/Documents/projets/dev/Monu100/MicroController/MicMonu100/MicMonu100/Display.h ****            && ( y >=0 && y <Y_MIC_MAX );
 1445               	.LM166:
 1446 0594 6E31      		cpi r22,lo8(30)
 1447 0596 00F4      		brsh .L93
 1448 0598 A1E0      		ldi r26,lo8(1)
 1449 059a B0E0      		ldi r27,0
 1450 059c 3431      		cpi r19,lo8(20)
 1451 059e 00F0      		brlo .L92
 1452 05a0 A0E0      		ldi r26,0
 1453 05a2 B0E0      		ldi r27,0
 1454               	.L92:
 1455               	.LBE216:
 1456               	.LBE215:
 1458               	.Ltext2:
 409:/Users/manueldeneu/Documents/projets/dev/Monu100/MicroController/MicMonu100/MicMonu100/Display.c ****             if( inBouds(defX, defY) )
 1460               	.LM167:
 1461 05a4 AB2B      		or r26,r27
 1462 05a6 01F0      		breq .L93
 1464               	.LM168:
 1465 05a8 DF01      		movw r26,r30
 1466 05aa A30F      		add r26,r19
 1467 05ac B11D      		adc r27,__zero_reg__
 1468 05ae 37FD      		sbrc r19,7
 1469 05b0 BA95      		dec r27
 1470 05b2 A85A      		subi r26,-88
 1471 05b4 BD4F      		sbci r27,-3
 1472 05b6 7881      		ld r23,Y
 1473 05b8 7C93      		st X,r23
 1474               	.L93:
 1475 05ba 3F5F      		subi r19,lo8(-(1))
 1476 05bc 00C0      		rjmp .L96
 1477               	.L101:
 1478 05be 6F5F      		subi r22,lo8(-(1))
 1479 05c0 00C0      		rjmp .L90
 1480               	.L89:
 1481               	/* epilogue start */
 1482               	.LBE218:
 1483               	.LBE219:
 1484               	.LBE212:
 412:/Users/manueldeneu/Documents/projets/dev/Monu100/MicroController/MicMonu100/MicMonu100/Display.c ****             }
 413:/Users/manueldeneu/Documents/projets/dev/Monu100/MicroController/MicMonu100/MicMonu100/Display.c ****         }
 414:/Users/manueldeneu/Documents/projets/dev/Monu100/MicroController/MicMonu100/MicMonu100/Display.c **** }
 1486               	.LM169:
 1487 05c2 DF91      		pop r29
 1488 05c4 CF91      		pop r28
 1489 05c6 0F91      		pop r16
 1490 05c8 0895      		ret
 1492               	.Lscope8:
 1499               	.global	display_clearZoneText
 1501               	display_clearZoneText:
 415:/Users/manueldeneu/Documents/projets/dev/Monu100/MicroController/MicMonu100/MicMonu100/Display.c **** 
 416:/Users/manueldeneu/Documents/projets/dev/Monu100/MicroController/MicMonu100/MicMonu100/Display.c **** void display_clearZoneText     ( Display *display , const int8_t x , const int8_t y, const uint8_t 
 417:/Users/manueldeneu/Documents/projets/dev/Monu100/MicroController/MicMonu100/MicMonu100/Display.c **** {
 1503               	.LM170:
 1504               	.LFBB9:
 1505 05ca 0F93      		push r16
 1506 05cc CF93      		push r28
 1507 05ce DF93      		push r29
 1508               	/* prologue: function */
 1509               	/* frame size = 0 */
 1510               	/* stack size = 3 */
 1511               	.L__stack_usage = 3
 1512 05d0 260F      		add r18,r22
 1513 05d2 040F      		add r16,r20
 1514               	.LBB220:
 1515               	.LBB221:
 1516               	.LBB222:
 418:/Users/manueldeneu/Documents/projets/dev/Monu100/MicroController/MicMonu100/MicMonu100/Display.c ****     for (uint8_t xx=0; xx< w; xx++)
 419:/Users/manueldeneu/Documents/projets/dev/Monu100/MicroController/MicMonu100/MicMonu100/Display.c ****         
 420:/Users/manueldeneu/Documents/projets/dev/Monu100/MicroController/MicMonu100/MicMonu100/Display.c ****         for (uint8_t yy=0; yy<h; yy++)
 421:/Users/manueldeneu/Documents/projets/dev/Monu100/MicroController/MicMonu100/MicMonu100/Display.c ****         {
 422:/Users/manueldeneu/Documents/projets/dev/Monu100/MicroController/MicMonu100/MicMonu100/Display.c ****             const int8_t defX =x+xx;
 423:/Users/manueldeneu/Documents/projets/dev/Monu100/MicroController/MicMonu100/MicMonu100/Display.c ****             const int8_t defY =y+yy;
 424:/Users/manueldeneu/Documents/projets/dev/Monu100/MicroController/MicMonu100/MicMonu100/Display.c ****             
 425:/Users/manueldeneu/Documents/projets/dev/Monu100/MicroController/MicMonu100/MicMonu100/Display.c ****             if( inBouds(defX, defY) )
 426:/Users/manueldeneu/Documents/projets/dev/Monu100/MicroController/MicMonu100/MicMonu100/Display.c ****             {
 427:/Users/manueldeneu/Documents/projets/dev/Monu100/MicroController/MicMonu100/MicMonu100/Display.c ****                 display->buff_text[defX][defY] = display->backgroundColor;
 1518               	.LM171:
 1519 05d4 54E1      		ldi r21,lo8(20)
 1520 05d6 EC01      		movw r28,r24
 1521 05d8 C055      		subi r28,80
 1522 05da DB4F      		sbci r29,-5
 1523               	.L103:
 1524               	.LBE222:
 1525               	.LBE221:
 418:/Users/manueldeneu/Documents/projets/dev/Monu100/MicroController/MicMonu100/MicMonu100/Display.c ****     for (uint8_t xx=0; xx< w; xx++)
 1527               	.LM172:
 1528 05dc 6217      		cp r22,r18
 1529 05de 01F0      		breq .L102
 1530 05e0 342F      		mov r19,r20
 1531               	.LBB227:
 1532               	.LBB225:
 1534               	.LM173:
 1535 05e2 6503      		mulsu r22,r21
 1536 05e4 D001      		movw r26,r0
 1537 05e6 1124      		clr __zero_reg__
 1538               	.L109:
 1539               	.LBE225:
 420:/Users/manueldeneu/Documents/projets/dev/Monu100/MicroController/MicMonu100/MicMonu100/Display.c ****         for (uint8_t yy=0; yy<h; yy++)
 1541               	.LM174:
 1542 05e8 3017      		cp r19,r16
 1543 05ea 01F0      		breq .L114
 1544               	.LBB226:
 1545               	.LBB223:
 1546               	.LBB224:
 1548               	.Ltext3:
 1550               	.LM175:
 1551 05ec 6E31      		cpi r22,lo8(30)
 1552 05ee 00F4      		brsh .L106
 1553 05f0 E1E0      		ldi r30,lo8(1)
 1554 05f2 F0E0      		ldi r31,0
 1555 05f4 3431      		cpi r19,lo8(20)
 1556 05f6 00F0      		brlo .L105
 1557 05f8 E0E0      		ldi r30,0
 1558 05fa F0E0      		ldi r31,0
 1559               	.L105:
 1560               	.LBE224:
 1561               	.LBE223:
 1563               	.Ltext4:
 425:/Users/manueldeneu/Documents/projets/dev/Monu100/MicroController/MicMonu100/MicMonu100/Display.c ****             if( inBouds(defX, defY) )
 1565               	.LM176:
 1566 05fc EF2B      		or r30,r31
 1567 05fe 01F0      		breq .L106
 1569               	.LM177:
 1570 0600 FD01      		movw r30,r26
 1571 0602 E30F      		add r30,r19
 1572 0604 F11D      		adc r31,__zero_reg__
 1573 0606 37FD      		sbrc r19,7
 1574 0608 FA95      		dec r31
 1575 060a E80F      		add r30,r24
 1576 060c F91F      		adc r31,r25
 1577 060e 7881      		ld r23,Y
 1578 0610 7083      		st Z,r23
 1579               	.L106:
 1580 0612 3F5F      		subi r19,lo8(-(1))
 1581 0614 00C0      		rjmp .L109
 1582               	.L114:
 1583 0616 6F5F      		subi r22,lo8(-(1))
 1584 0618 00C0      		rjmp .L103
 1585               	.L102:
 1586               	/* epilogue start */
 1587               	.LBE226:
 1588               	.LBE227:
 1589               	.LBE220:
 428:/Users/manueldeneu/Documents/projets/dev/Monu100/MicroController/MicMonu100/MicMonu100/Display.c ****             }
 429:/Users/manueldeneu/Documents/projets/dev/Monu100/MicroController/MicMonu100/MicMonu100/Display.c ****         }
 430:/Users/manueldeneu/Documents/projets/dev/Monu100/MicroController/MicMonu100/MicMonu100/Display.c **** }
 1591               	.LM178:
 1592 061a DF91      		pop r29
 1593 061c CF91      		pop r28
 1594 061e 0F91      		pop r16
 1595 0620 0895      		ret
 1597               	.Lscope9:
 1600               	.global	display_init
 1602               	display_init:
 371:/Users/manueldeneu/Documents/projets/dev/Monu100/MicroController/MicMonu100/MicMonu100/Display.c **** {
 1604               	.LM179:
 1605               	.LFBB10:
 1606 0622 0F93      		push r16
 1607 0624 CF93      		push r28
 1608 0626 DF93      		push r29
 1609               	/* prologue: function */
 1610               	/* frame size = 0 */
 1611               	/* stack size = 3 */
 1612               	.L__stack_usage = 3
 1613 0628 EC01      		movw r28,r24
 1614               	.LBB228:
 1615               	.LBB229:
 1617               	.Ltext5:
  55:/Users/manueldeneu/Documents/projets/dev/Monu100/MicroController/MicMonu100/MicMonu100/Display.h **** }
  56:/Users/manueldeneu/Documents/projets/dev/Monu100/MicroController/MicMonu100/MicMonu100/Display.h **** 
  57:/Users/manueldeneu/Documents/projets/dev/Monu100/MicroController/MicMonu100/MicMonu100/Display.h **** //uint8_t strLen( const char *s);
  58:/Users/manueldeneu/Documents/projets/dev/Monu100/MicroController/MicMonu100/MicMonu100/Display.h **** 
  59:/Users/manueldeneu/Documents/projets/dev/Monu100/MicroController/MicMonu100/MicMonu100/Display.h **** uint8_t getCharWidth( void );
  60:/Users/manueldeneu/Documents/projets/dev/Monu100/MicroController/MicMonu100/MicMonu100/Display.h **** uint8_t getCharHeight( void );
  61:/Users/manueldeneu/Documents/projets/dev/Monu100/MicroController/MicMonu100/MicMonu100/Display.h **** 
  62:/Users/manueldeneu/Documents/projets/dev/Monu100/MicroController/MicMonu100/MicMonu100/Display.h **** void update(void);
  63:/Users/manueldeneu/Documents/projets/dev/Monu100/MicroController/MicMonu100/MicMonu100/Display.h **** /* **** **** **** **** **** **** **** **** **** **** **** **** **** */
  64:/Users/manueldeneu/Documents/projets/dev/Monu100/MicroController/MicMonu100/MicMonu100/Display.h **** 
  65:/Users/manueldeneu/Documents/projets/dev/Monu100/MicroController/MicMonu100/MicMonu100/Display.h **** void display_init( Display *display);
  66:/Users/manueldeneu/Documents/projets/dev/Monu100/MicroController/MicMonu100/MicMonu100/Display.h **** 
  67:/Users/manueldeneu/Documents/projets/dev/Monu100/MicroController/MicMonu100/MicMonu100/Display.h **** /* getters/setters */
  68:/Users/manueldeneu/Documents/projets/dev/Monu100/MicroController/MicMonu100/MicMonu100/Display.h **** 
  69:/Users/manueldeneu/Documents/projets/dev/Monu100/MicroController/MicMonu100/MicMonu100/Display.h **** void display_setFontColor( Display *display ,uint8_t color);
  70:/Users/manueldeneu/Documents/projets/dev/Monu100/MicroController/MicMonu100/MicMonu100/Display.h **** void display_setFillColor( Display *display ,uint8_t color);
  71:/Users/manueldeneu/Documents/projets/dev/Monu100/MicroController/MicMonu100/MicMonu100/Display.h **** 
  72:/Users/manueldeneu/Documents/projets/dev/Monu100/MicroController/MicMonu100/MicMonu100/Display.h **** // inv x<->y
  73:/Users/manueldeneu/Documents/projets/dev/Monu100/MicroController/MicMonu100/MicMonu100/Display.h **** void display_clearZoneDraw     ( Display *display , const int8_t x , const int8_t y, const uint8_t 
  74:/Users/manueldeneu/Documents/projets/dev/Monu100/MicroController/MicMonu100/MicMonu100/Display.h **** void display_clearZoneText     ( Display *display , const int8_t x , const int8_t y, const uint8_t 
  75:/Users/manueldeneu/Documents/projets/dev/Monu100/MicroController/MicMonu100/MicMonu100/Display.h **** 
  76:/Users/manueldeneu/Documents/projets/dev/Monu100/MicroController/MicMonu100/MicMonu100/Display.h **** inline void display_clearAll         ( Display *display)
  77:/Users/manueldeneu/Documents/projets/dev/Monu100/MicroController/MicMonu100/MicMonu100/Display.h **** {
  78:/Users/manueldeneu/Documents/projets/dev/Monu100/MicroController/MicMonu100/MicMonu100/Display.h ****     display_clearZoneDraw( display ,0,0 , X_TLC_MAX ,Y_MIC_MAX  );
 1619               	.LM180:
 1620 062a 04E1      		ldi r16,lo8(20)
 1621 062c 2EE1      		ldi r18,lo8(30)
 1622 062e 40E0      		ldi r20,0
 1623 0630 60E0      		ldi r22,0
 1624 0632 0E94 0000 		call display_clearZoneDraw
  79:/Users/manueldeneu/Documents/projets/dev/Monu100/MicroController/MicMonu100/MicMonu100/Display.h ****     display_clearZoneText( display ,0,0 , X_TLC_MAX ,Y_MIC_MAX  );
 1626               	.LM181:
 1627 0636 2EE1      		ldi r18,lo8(30)
 1628 0638 40E0      		ldi r20,0
 1629 063a 60E0      		ldi r22,0
 1630 063c CE01      		movw r24,r28
 1631 063e 0E94 0000 		call display_clearZoneText
 1632               	.LBE229:
 1633               	.LBE228:
 1635               	.Ltext6:
 376:/Users/manueldeneu/Documents/projets/dev/Monu100/MicroController/MicMonu100/MicMonu100/Display.c ****     display->backgroundColor = 0b00000000;
 1637               	.LM182:
 1638 0642 FE01      		movw r30,r28
 1639 0644 E055      		subi r30,80
 1640 0646 FB4F      		sbci r31,-5
 1641 0648 1082      		st Z,__zero_reg__
 377:/Users/manueldeneu/Documents/projets/dev/Monu100/MicroController/MicMonu100/MicMonu100/Display.c ****     display->fontColor = PIXEL_MAX_VALUE;
 1643               	.LM183:
 1644 064a 3296      		adiw r30,2
 1645 064c 84E6      		ldi r24,lo8(100)
 1646 064e 8083      		st Z,r24
 378:/Users/manueldeneu/Documents/projets/dev/Monu100/MicroController/MicMonu100/MicMonu100/Display.c ****     display->fillColor = PIXEL_MAX_VALUE;
 1648               	.LM184:
 1649 0650 3197      		sbiw r30,1
 1650 0652 8083      		st Z,r24
 380:/Users/manueldeneu/Documents/projets/dev/Monu100/MicroController/MicMonu100/MicMonu100/Display.c ****     display->isDrawing = 0;
 1652               	.LM185:
 1653 0654 CC54      		subi r28,76
 1654 0656 DB4F      		sbci r29,-5
 1655 0658 1882      		st Y,__zero_reg__
 1656               	/* epilogue start */
 383:/Users/manueldeneu/Documents/projets/dev/Monu100/MicroController/MicMonu100/MicMonu100/Display.c **** }
 1658               	.LM186:
 1659 065a DF91      		pop r29
 1660 065c CF91      		pop r28
 1661 065e 0F91      		pop r16
 382:/Users/manueldeneu/Documents/projets/dev/Monu100/MicroController/MicMonu100/MicMonu100/Display.c ****     TLC5940_Init();    
 1663               	.LM187:
 1664 0660 0C94 0000 		jmp TLC5940_Init
 1666               	.Lscope10:
 1671               	.global	display_translate
 1673               	display_translate:
 431:/Users/manueldeneu/Documents/projets/dev/Monu100/MicroController/MicMonu100/MicMonu100/Display.c **** 
 432:/Users/manueldeneu/Documents/projets/dev/Monu100/MicroController/MicMonu100/MicMonu100/Display.c **** 
 433:/Users/manueldeneu/Documents/projets/dev/Monu100/MicroController/MicMonu100/MicMonu100/Display.c **** /* **** **** **** **** **** **** **** **** **** **** **** **** **** **** **** **** **** **** **** *
 434:/Users/manueldeneu/Documents/projets/dev/Monu100/MicroController/MicMonu100/MicMonu100/Display.c **** 
 435:/Users/manueldeneu/Documents/projets/dev/Monu100/MicroController/MicMonu100/MicMonu100/Display.c **** void display_translate( Display *display , int8_t dX , int8_t dY)
 436:/Users/manueldeneu/Documents/projets/dev/Monu100/MicroController/MicMonu100/MicMonu100/Display.c **** {
 1675               	.LM188:
 1676               	.LFBB11:
 1677               	/* prologue: function */
 1678               	/* frame size = 0 */
 1679               	/* stack size = 0 */
 1680               	.L__stack_usage = 0
 1681 0664 0895      		ret
 1683               	.Lscope11:
 1690               	.global	display_write
 1692               	display_write:
 437:/Users/manueldeneu/Documents/projets/dev/Monu100/MicroController/MicMonu100/MicMonu100/Display.c ****     
 438:/Users/manueldeneu/Documents/projets/dev/Monu100/MicroController/MicMonu100/MicMonu100/Display.c **** }
 439:/Users/manueldeneu/Documents/projets/dev/Monu100/MicroController/MicMonu100/MicMonu100/Display.c **** 
 440:/Users/manueldeneu/Documents/projets/dev/Monu100/MicroController/MicMonu100/MicMonu100/Display.c **** /* **** **** **** **** **** **** **** **** **** **** **** **** **** **** **** **** **** **** **** *
 441:/Users/manueldeneu/Documents/projets/dev/Monu100/MicroController/MicMonu100/MicMonu100/Display.c **** 
 442:/Users/manueldeneu/Documents/projets/dev/Monu100/MicroController/MicMonu100/MicMonu100/Display.c **** void display_write(Display *display , const char* text, int8_t x , int8_t y ,
 443:/Users/manueldeneu/Documents/projets/dev/Monu100/MicroController/MicMonu100/MicMonu100/Display.c ****                     uint8_t dir /* 0 : hori , 1 : verti*/,
 444:/Users/manueldeneu/Documents/projets/dev/Monu100/MicroController/MicMonu100/MicMonu100/Display.c ****                     uint8_t mask /* 0 : none , 1 left , 2 right*/)
 445:/Users/manueldeneu/Documents/projets/dev/Monu100/MicroController/MicMonu100/MicMonu100/Display.c **** {
 1694               	.LM189:
 1695               	.LFBB12:
 1697               	.LM190:
 1698 0666 2F92      		push r2
 1699 0668 3F92      		push r3
 1700 066a 4F92      		push r4
 1701 066c 5F92      		push r5
 1702 066e 6F92      		push r6
 1703 0670 7F92      		push r7
 1704 0672 8F92      		push r8
 1705 0674 9F92      		push r9
 1706 0676 AF92      		push r10
 1707 0678 BF92      		push r11
 1708 067a CF92      		push r12
 1709 067c DF92      		push r13
 1710 067e EF92      		push r14
 1711 0680 FF92      		push r15
 1712 0682 0F93      		push r16
 1713 0684 1F93      		push r17
 1714 0686 CF93      		push r28
 1715 0688 DF93      		push r29
 1716 068a 00D0      		rcall .
 1717 068c 1F92      		push __zero_reg__
 1718 068e CDB7      		in r28,__SP_L__
 1719 0690 DEB7      		in r29,__SP_H__
 1720               	/* prologue: function */
 1721               	/* frame size = 4 */
 1722               	/* stack size = 22 */
 1723               	.L__stack_usage = 22
 1724 0692 EC82      		std Y+4,r14
 1725 0694 1B01      		movw r2,r22
 446:/Users/manueldeneu/Documents/projets/dev/Monu100/MicroController/MicMonu100/MicMonu100/Display.c ****     // inv x<->y
 447:/Users/manueldeneu/Documents/projets/dev/Monu100/MicroController/MicMonu100/MicMonu100/Display.c ****     int i =0;
 448:/Users/manueldeneu/Documents/projets/dev/Monu100/MicroController/MicMonu100/MicMonu100/Display.c ****     
 449:/Users/manueldeneu/Documents/projets/dev/Monu100/MicroController/MicMonu100/MicMonu100/Display.c ****     
 450:/Users/manueldeneu/Documents/projets/dev/Monu100/MicroController/MicMonu100/MicMonu100/Display.c ****     int8_t xx =y;
 451:/Users/manueldeneu/Documents/projets/dev/Monu100/MicroController/MicMonu100/MicMonu100/Display.c ****     int8_t yy =x;
 1727               	.LM191:
 1728 0696 342F      		mov r19,r20
 1729 0698 77E0      		ldi r23,lo8(7)
 1730 069a 472E      		mov r4,r23
 1731 069c 512C      		mov r5,__zero_reg__
 1732               	.LBB230:
 1733               	.LBB231:
 1734               	.LBB232:
 1735               	.LBB233:
 452:/Users/manueldeneu/Documents/projets/dev/Monu100/MicroController/MicMonu100/MicMonu100/Display.c ****     
 453:/Users/manueldeneu/Documents/projets/dev/Monu100/MicroController/MicMonu100/MicMonu100/Display.c ****     while ( text[i] != '\0' )
 454:/Users/manueldeneu/Documents/projets/dev/Monu100/MicroController/MicMonu100/MicMonu100/Display.c ****     {
 455:/Users/manueldeneu/Documents/projets/dev/Monu100/MicroController/MicMonu100/MicMonu100/Display.c ****         if ( !dir && ( text[i] == '\n' ) )
 456:/Users/manueldeneu/Documents/projets/dev/Monu100/MicroController/MicMonu100/MicMonu100/Display.c ****         {
 457:/Users/manueldeneu/Documents/projets/dev/Monu100/MicroController/MicMonu100/MicMonu100/Display.c ****             xx+= CHAR_HEIGHT;
 458:/Users/manueldeneu/Documents/projets/dev/Monu100/MicroController/MicMonu100/MicMonu100/Display.c ****             yy = x;
 459:/Users/manueldeneu/Documents/projets/dev/Monu100/MicroController/MicMonu100/MicMonu100/Display.c ****         }
 460:/Users/manueldeneu/Documents/projets/dev/Monu100/MicroController/MicMonu100/MicMonu100/Display.c ****         
 461:/Users/manueldeneu/Documents/projets/dev/Monu100/MicroController/MicMonu100/MicMonu100/Display.c ****         else if ( text[i] == ' ' )
 462:/Users/manueldeneu/Documents/projets/dev/Monu100/MicroController/MicMonu100/MicMonu100/Display.c ****         {
 463:/Users/manueldeneu/Documents/projets/dev/Monu100/MicroController/MicMonu100/MicMonu100/Display.c ****             if (!dir)
 464:/Users/manueldeneu/Documents/projets/dev/Monu100/MicroController/MicMonu100/MicMonu100/Display.c ****                 yy+=CHAR_WIDTH;
 465:/Users/manueldeneu/Documents/projets/dev/Monu100/MicroController/MicMonu100/MicMonu100/Display.c ****             else
 466:/Users/manueldeneu/Documents/projets/dev/Monu100/MicroController/MicMonu100/MicMonu100/Display.c ****                 xx+=CHAR_HEIGHT;
 467:/Users/manueldeneu/Documents/projets/dev/Monu100/MicroController/MicMonu100/MicMonu100/Display.c ****         }
 468:/Users/manueldeneu/Documents/projets/dev/Monu100/MicroController/MicMonu100/MicMonu100/Display.c ****         
 469:/Users/manueldeneu/Documents/projets/dev/Monu100/MicroController/MicMonu100/MicMonu100/Display.c ****         else
 470:/Users/manueldeneu/Documents/projets/dev/Monu100/MicroController/MicMonu100/MicMonu100/Display.c ****         {
 471:/Users/manueldeneu/Documents/projets/dev/Monu100/MicroController/MicMonu100/MicMonu100/Display.c ****             const Glyphe* ch = getChar( text[i] );
 472:/Users/manueldeneu/Documents/projets/dev/Monu100/MicroController/MicMonu100/MicMonu100/Display.c ****             const uint8_t* buf = ch->buf;
 473:/Users/manueldeneu/Documents/projets/dev/Monu100/MicroController/MicMonu100/MicMonu100/Display.c ****             
 474:/Users/manueldeneu/Documents/projets/dev/Monu100/MicroController/MicMonu100/MicMonu100/Display.c ****             for (int i= 0;i<CHAR_HEIGHT ;i++)
 475:/Users/manueldeneu/Documents/projets/dev/Monu100/MicroController/MicMonu100/MicMonu100/Display.c ****             {
 476:/Users/manueldeneu/Documents/projets/dev/Monu100/MicroController/MicMonu100/MicMonu100/Display.c ****                 
 477:/Users/manueldeneu/Documents/projets/dev/Monu100/MicroController/MicMonu100/MicMonu100/Display.c ****                 for (int j= 0;j<ch->advance ;j++)
 478:/Users/manueldeneu/Documents/projets/dev/Monu100/MicroController/MicMonu100/MicMonu100/Display.c ****                 {
 479:/Users/manueldeneu/Documents/projets/dev/Monu100/MicroController/MicMonu100/MicMonu100/Display.c ****                     if ( buf[i] & (1<<(7-j) ))
 480:/Users/manueldeneu/Documents/projets/dev/Monu100/MicroController/MicMonu100/MicMonu100/Display.c ****                     {
 481:/Users/manueldeneu/Documents/projets/dev/Monu100/MicroController/MicMonu100/MicMonu100/Display.c ****                         const int8_t defX = xx+i;
 482:/Users/manueldeneu/Documents/projets/dev/Monu100/MicroController/MicMonu100/MicMonu100/Display.c ****                         const int8_t defY = yy+j;
 483:/Users/manueldeneu/Documents/projets/dev/Monu100/MicroController/MicMonu100/MicMonu100/Display.c ****                         
 484:/Users/manueldeneu/Documents/projets/dev/Monu100/MicroController/MicMonu100/MicMonu100/Display.c ****                         // ][ Y_MIC_MAX
 485:/Users/manueldeneu/Documents/projets/dev/Monu100/MicroController/MicMonu100/MicMonu100/Display.c ****                         if( inBouds(defX, defY) )
 486:/Users/manueldeneu/Documents/projets/dev/Monu100/MicroController/MicMonu100/MicMonu100/Display.c ****                         {
 487:/Users/manueldeneu/Documents/projets/dev/Monu100/MicroController/MicMonu100/MicMonu100/Display.c ****                             if (    (mask == 0)
 488:/Users/manueldeneu/Documents/projets/dev/Monu100/MicroController/MicMonu100/MicMonu100/Display.c ****                                  || ((mask == 1 ) && (j<4))
 489:/Users/manueldeneu/Documents/projets/dev/Monu100/MicroController/MicMonu100/MicMonu100/Display.c ****                                  || ((mask == 2 ) && (j>3))
 490:/Users/manueldeneu/Documents/projets/dev/Monu100/MicroController/MicMonu100/MicMonu100/Display.c ****                                 )
 491:/Users/manueldeneu/Documents/projets/dev/Monu100/MicroController/MicMonu100/MicMonu100/Display.c ****                                 display->buff_text[ defX ][ defY ] = display->fontColor;
 1737               	.LM192:
 1738 069e 6C01      		movw r12,r24
 1739 06a0 1EE4      		ldi r17,78
 1740 06a2 C11A      		sub r12,r17
 1741 06a4 1BEF      		ldi r17,-5
 1742 06a6 D10A      		sbc r13,r17
 1743               	.L118:
 1744               	.LBE233:
 1745               	.LBE232:
 1746               	.LBE231:
 1747               	.LBE230:
 453:/Users/manueldeneu/Documents/projets/dev/Monu100/MicroController/MicMonu100/MicMonu100/Display.c ****     while ( text[i] != '\0' )
 1749               	.LM193:
 1750 06a8 D101      		movw r26,r2
 1751 06aa ED91      		ld r30,X+
 1752 06ac 1D01      		movw r2,r26
 1753 06ae EE23      		tst r30
 1754 06b0 01F4      		brne .+2
 1755 06b2 00C0      		rjmp .L149
 455:/Users/manueldeneu/Documents/projets/dev/Monu100/MicroController/MicMonu100/MicMonu100/Display.c ****         if ( !dir && ( text[i] == '\n' ) )
 1757               	.LM194:
 1758 06b4 0111      		cpse r16,__zero_reg__
 1759 06b6 00C0      		rjmp .L119
 455:/Users/manueldeneu/Documents/projets/dev/Monu100/MicroController/MicMonu100/MicMonu100/Display.c ****         if ( !dir && ( text[i] == '\n' ) )
 1761               	.LM195:
 1762 06b8 EA30      		cpi r30,lo8(10)
 1763 06ba 01F4      		brne .L120
 457:/Users/manueldeneu/Documents/projets/dev/Monu100/MicroController/MicMonu100/MicMonu100/Display.c ****             xx+= CHAR_HEIGHT;
 1765               	.LM196:
 1766 06bc 265F      		subi r18,lo8(-(10))
 458:/Users/manueldeneu/Documents/projets/dev/Monu100/MicroController/MicMonu100/MicMonu100/Display.c ****             yy = x;
 1768               	.LM197:
 1769 06be 342F      		mov r19,r20
 1770 06c0 00C0      		rjmp .L118
 1771               	.L120:
 461:/Users/manueldeneu/Documents/projets/dev/Monu100/MicroController/MicMonu100/MicMonu100/Display.c ****         else if ( text[i] == ' ' )
 1773               	.LM198:
 1774 06c2 E032      		cpi r30,lo8(32)
 1775 06c4 01F4      		brne .L135
 464:/Users/manueldeneu/Documents/projets/dev/Monu100/MicroController/MicMonu100/MicMonu100/Display.c ****                 yy+=CHAR_WIDTH;
 1777               	.LM199:
 1778 06c6 385F      		subi r19,lo8(-(8))
 1779 06c8 00C0      		rjmp .L118
 1780               	.L119:
 461:/Users/manueldeneu/Documents/projets/dev/Monu100/MicroController/MicMonu100/MicMonu100/Display.c ****         else if ( text[i] == ' ' )
 1782               	.LM200:
 1783 06ca E032      		cpi r30,lo8(32)
 1784 06cc 01F4      		brne .+2
 1785 06ce 00C0      		rjmp .L132
 1786               	.L135:
 1787 06d0 E053      		subi r30,lo8(-(-48))
 1788 06d2 EB34      		cpi r30,lo8(75)
 1789 06d4 00F4      		brsh .L137
 1790 06d6 F0E0      		ldi r31,0
 1791 06d8 EE0F      		lsl r30
 1792 06da FF1F      		rol r31
 1793 06dc E050      		subi r30,lo8(-(CSWTCH.33))
 1794 06de F040      		sbci r31,hi8(-(CSWTCH.33))
 1795 06e0 6081      		ld r22,Z
 1796 06e2 7181      		ldd r23,Z+1
 1797 06e4 7B83      		std Y+3,r23
 1798 06e6 6A83      		std Y+2,r22
 1799 06e8 00C0      		rjmp .L122
 1800               	.L137:
 445:/Users/manueldeneu/Documents/projets/dev/Monu100/MicroController/MicMonu100/MicMonu100/Display.c **** {
 1802               	.LM201:
 1803 06ea A0E0      		ldi r26,lo8(c_NULL)
 1804 06ec B0E0      		ldi r27,hi8(c_NULL)
 1805 06ee BB83      		std Y+3,r27
 1806 06f0 AA83      		std Y+2,r26
 1807               	.L122:
 1808               	.LBB242:
 1809               	.LBB241:
 474:/Users/manueldeneu/Documents/projets/dev/Monu100/MicroController/MicMonu100/MicMonu100/Display.c ****             for (int i= 0;i<CHAR_HEIGHT ;i++)
 1811               	.LM202:
 1812 06f2 E0E0      		ldi r30,0
 1813 06f4 F0E0      		ldi r31,0
 1814               	.L123:
 1815               	.LBB240:
 1816               	.LBB238:
 1817               	.LBB234:
 1818               	.LBB235:
 1820               	.Ltext7:
  54:/Users/manueldeneu/Documents/projets/dev/Monu100/MicroController/MicMonu100/MicMonu100/Display.h ****            && ( y >=0 && y <Y_MIC_MAX );
 1822               	.LM203:
 1823 06f6 60E0      		ldi r22,0
 1824 06f8 70E0      		ldi r23,0
 1825 06fa 8A80      		ldd r8,Y+2
 1826 06fc 9B80      		ldd r9,Y+3
 1827 06fe 8E0E      		add r8,r30
 1828 0700 9F1E      		adc r9,r31
 1829 0702 B22F      		mov r27,r18
 1830 0704 BE0F      		add r27,r30
 1831 0706 B983      		std Y+1,r27
 1832               	.LBE235:
 1833               	.LBE234:
 1835               	.Ltext8:
 1837               	.LM204:
 1838 0708 14E1      		ldi r17,lo8(20)
 1839 070a 5B2F      		mov r21,r27
 1840 070c 5103      		mulsu r21,r17
 1841 070e 5001      		movw r10,r0
 1842 0710 1124      		clr __zero_reg__
 1843               	.L131:
 1844               	.LBE238:
 477:/Users/manueldeneu/Documents/projets/dev/Monu100/MicroController/MicMonu100/MicMonu100/Display.c ****                 for (int j= 0;j<ch->advance ;j++)
 1846               	.LM205:
 1847 0712 AA81      		ldd r26,Y+2
 1848 0714 BB81      		ldd r27,Y+3
 1849 0716 1A96      		adiw r26,10
 1850 0718 7C90      		ld r7,X
 1851 071a E72C      		mov r14,r7
 1852 071c F12C      		mov r15,__zero_reg__
 1853 071e 6E15      		cp r22,r14
 1854 0720 7F05      		cpc r23,r15
 1855 0722 04F4      		brge .L150
 479:/Users/manueldeneu/Documents/projets/dev/Monu100/MicroController/MicMonu100/MicMonu100/Display.c ****                     if ( buf[i] & (1<<(7-j) ))
 1857               	.LM206:
 1858 0724 D401      		movw r26,r8
 1859 0726 EC90      		ld r14,X
 1860 0728 F12C      		mov r15,__zero_reg__
 1861 072a 3201      		movw r6,r4
 1862 072c 661A      		sub r6,r22
 1863 072e 770A      		sbc r7,r23
 1864 0730 00C0      		rjmp 2f
 1865               		1:
 1866 0732 F594      		asr r15
 1867 0734 E794      		ror r14
 1868               		2:
 1869 0736 6A94      		dec r6
 1870 0738 02F4      		brpl 1b
 1871 073a E0FE      		sbrs r14,0
 1872 073c 00C0      		rjmp .L124
 1873               	.LBB239:
 1874               	.LBB237:
 1875               	.LBB236:
 1877               	.Ltext9:
  54:/Users/manueldeneu/Documents/projets/dev/Monu100/MicroController/MicMonu100/MicMonu100/Display.h ****            && ( y >=0 && y <Y_MIC_MAX );
 1879               	.LM207:
 1880 073e B981      		ldd r27,Y+1
 1881 0740 BE31      		cpi r27,lo8(30)
 1882 0742 00F4      		brsh .L124
 1883 0744 732E      		mov r7,r19
 1884 0746 760E      		add r7,r22
 1885 0748 EE24      		clr r14
 1886 074a E394      		inc r14
 1887 074c F12C      		mov r15,__zero_reg__
 1888 074e 13E1      		ldi r17,lo8(19)
 1889 0750 1715      		cp r17,r7
 1890 0752 00F4      		brsh .L126
 1891 0754 E12C      		mov r14,__zero_reg__
 1892 0756 F12C      		mov r15,__zero_reg__
 1893               	.L126:
 1894               	.LBE236:
 1895               	.LBE237:
 1897               	.Ltext10:
 485:/Users/manueldeneu/Documents/projets/dev/Monu100/MicroController/MicMonu100/MicMonu100/Display.c ****                         if( inBouds(defX, defY) )
 1899               	.LM208:
 1900 0758 EF28      		or r14,r15
 1901 075a 01F0      		breq .L124
 487:/Users/manueldeneu/Documents/projets/dev/Monu100/MicroController/MicMonu100/MicMonu100/Display.c ****                             if (    (mask == 0)
 1903               	.LM209:
 1904 075c 5C81      		ldd r21,Y+4
 1905 075e 5523      		tst r21
 1906 0760 01F0      		breq .L127
 488:/Users/manueldeneu/Documents/projets/dev/Monu100/MicroController/MicMonu100/MicMonu100/Display.c ****                                  || ((mask == 1 ) && (j<4))
 1908               	.LM210:
 1909 0762 5130      		cpi r21,lo8(1)
 1910 0764 01F4      		brne .L128
 488:/Users/manueldeneu/Documents/projets/dev/Monu100/MicroController/MicMonu100/MicMonu100/Display.c ****                                  || ((mask == 1 ) && (j<4))
 1912               	.LM211:
 1913 0766 6430      		cpi r22,4
 1914 0768 7105      		cpc r23,__zero_reg__
 1915 076a 04F0      		brlt .L127
 1916 076c 00C0      		rjmp .L124
 1917               	.L128:
 489:/Users/manueldeneu/Documents/projets/dev/Monu100/MicroController/MicMonu100/MicMonu100/Display.c ****                                  || ((mask == 2 ) && (j>3))
 1919               	.LM212:
 1920 076e AC81      		ldd r26,Y+4
 1921 0770 A230      		cpi r26,lo8(2)
 1922 0772 01F4      		brne .L124
 489:/Users/manueldeneu/Documents/projets/dev/Monu100/MicroController/MicMonu100/MicMonu100/Display.c ****                                  || ((mask == 2 ) && (j>3))
 1924               	.LM213:
 1925 0774 6430      		cpi r22,4
 1926 0776 7105      		cpc r23,__zero_reg__
 1927 0778 04F0      		brlt .L124
 1928               	.L127:
 1930               	.LM214:
 1931 077a 7501      		movw r14,r10
 1932 077c E70C      		add r14,r7
 1933 077e F11C      		adc r15,__zero_reg__
 1934 0780 77FC      		sbrc r7,7
 1935 0782 FA94      		dec r15
 1936 0784 E80E      		add r14,r24
 1937 0786 F91E      		adc r15,r25
 1938 0788 D601      		movw r26,r12
 1939 078a 7C90      		ld r7,X
 1940 078c D701      		movw r26,r14
 1941 078e 7C92      		st X,r7
 1942               	.L124:
 1943               	.LBE239:
 477:/Users/manueldeneu/Documents/projets/dev/Monu100/MicroController/MicMonu100/MicMonu100/Display.c ****                 for (int j= 0;j<ch->advance ;j++)
 1945               	.LM215:
 1946 0790 6F5F      		subi r22,-1
 1947 0792 7F4F      		sbci r23,-1
 1948 0794 00C0      		rjmp .L131
 1949               	.L150:
 1950               	.LBE240:
 474:/Users/manueldeneu/Documents/projets/dev/Monu100/MicroController/MicMonu100/MicMonu100/Display.c ****             for (int i= 0;i<CHAR_HEIGHT ;i++)
 1952               	.LM216:
 1953 0796 3196      		adiw r30,1
 1954 0798 EA30      		cpi r30,10
 1955 079a F105      		cpc r31,__zero_reg__
 1956 079c 01F0      		breq .+2
 1957 079e 00C0      		rjmp .L123
 1958               	.LBE241:
 492:/Users/manueldeneu/Documents/projets/dev/Monu100/MicroController/MicMonu100/MicMonu100/Display.c ****                         }
 493:/Users/manueldeneu/Documents/projets/dev/Monu100/MicroController/MicMonu100/MicMonu100/Display.c ****                     }
 494:/Users/manueldeneu/Documents/projets/dev/Monu100/MicroController/MicMonu100/MicMonu100/Display.c **** 
 495:/Users/manueldeneu/Documents/projets/dev/Monu100/MicroController/MicMonu100/MicMonu100/Display.c ****                 }
 496:/Users/manueldeneu/Documents/projets/dev/Monu100/MicroController/MicMonu100/MicMonu100/Display.c ****             }
 497:/Users/manueldeneu/Documents/projets/dev/Monu100/MicroController/MicMonu100/MicMonu100/Display.c ****             
 498:/Users/manueldeneu/Documents/projets/dev/Monu100/MicroController/MicMonu100/MicMonu100/Display.c ****             //
 499:/Users/manueldeneu/Documents/projets/dev/Monu100/MicroController/MicMonu100/MicMonu100/Display.c ****             if( dir == 0 )
 1960               	.LM217:
 1961 07a0 0111      		cpse r16,__zero_reg__
 1962 07a2 00C0      		rjmp .L132
 500:/Users/manueldeneu/Documents/projets/dev/Monu100/MicroController/MicMonu100/MicMonu100/Display.c ****                 yy+=ch->advance;
 1964               	.LM218:
 1965 07a4 370D      		add r19,r7
 1966 07a6 00C0      		rjmp .L118
 1967               	.L132:
 501:/Users/manueldeneu/Documents/projets/dev/Monu100/MicroController/MicMonu100/MicMonu100/Display.c ****             else
 502:/Users/manueldeneu/Documents/projets/dev/Monu100/MicroController/MicMonu100/MicMonu100/Display.c ****                 xx+= CHAR_HEIGHT;
 1969               	.LM219:
 1970 07a8 265F      		subi r18,lo8(-(10))
 1971 07aa 00C0      		rjmp .L118
 1972               	.L149:
 1973               	/* epilogue start */
 1974               	.LBE242:
 503:/Users/manueldeneu/Documents/projets/dev/Monu100/MicroController/MicMonu100/MicMonu100/Display.c ****         }
 504:/Users/manueldeneu/Documents/projets/dev/Monu100/MicroController/MicMonu100/MicMonu100/Display.c ****         i++;
 505:/Users/manueldeneu/Documents/projets/dev/Monu100/MicroController/MicMonu100/MicMonu100/Display.c ****         
 506:/Users/manueldeneu/Documents/projets/dev/Monu100/MicroController/MicMonu100/MicMonu100/Display.c ****         
 507:/Users/manueldeneu/Documents/projets/dev/Monu100/MicroController/MicMonu100/MicMonu100/Display.c ****     }
 508:/Users/manueldeneu/Documents/projets/dev/Monu100/MicroController/MicMonu100/MicMonu100/Display.c **** }
 1976               	.LM220:
 1977 07ac 0F90      		pop __tmp_reg__
 1978 07ae 0F90      		pop __tmp_reg__
 1979 07b0 0F90      		pop __tmp_reg__
 1980 07b2 0F90      		pop __tmp_reg__
 1981 07b4 DF91      		pop r29
 1982 07b6 CF91      		pop r28
 1983 07b8 1F91      		pop r17
 1984 07ba 0F91      		pop r16
 1985 07bc FF90      		pop r15
 1986 07be EF90      		pop r14
 1987 07c0 DF90      		pop r13
 1988 07c2 CF90      		pop r12
 1989 07c4 BF90      		pop r11
 1990 07c6 AF90      		pop r10
 1991 07c8 9F90      		pop r9
 1992 07ca 8F90      		pop r8
 1993 07cc 7F90      		pop r7
 1994 07ce 6F90      		pop r6
 1995 07d0 5F90      		pop r5
 1996 07d2 4F90      		pop r4
 1997 07d4 3F90      		pop r3
 1998 07d6 2F90      		pop r2
 1999 07d8 0895      		ret
 2013               	.Lscope12:
 2016               	.global	display_writeImage
 2018               	display_writeImage:
 509:/Users/manueldeneu/Documents/projets/dev/Monu100/MicroController/MicMonu100/MicMonu100/Display.c **** 
 510:/Users/manueldeneu/Documents/projets/dev/Monu100/MicroController/MicMonu100/MicMonu100/Display.c **** /* **** **** **** **** **** **** **** **** **** **** **** */
 511:/Users/manueldeneu/Documents/projets/dev/Monu100/MicroController/MicMonu100/MicMonu100/Display.c **** 
 512:/Users/manueldeneu/Documents/projets/dev/Monu100/MicroController/MicMonu100/MicMonu100/Display.c **** void display_writeImage( Display *display,const  uint8_t *image )
 513:/Users/manueldeneu/Documents/projets/dev/Monu100/MicroController/MicMonu100/MicMonu100/Display.c **** {
 2020               	.LM221:
 2021               	.LFBB13:
 2022 07da CF93      		push r28
 2023 07dc DF93      		push r29
 2024               	/* prologue: function */
 2025               	/* frame size = 0 */
 2026               	/* stack size = 2 */
 2027               	.L__stack_usage = 2
 514:/Users/manueldeneu/Documents/projets/dev/Monu100/MicroController/MicMonu100/MicMonu100/Display.c ****     if (display->isDrawing == 1)
 2029               	.LM222:
 2030 07de FC01      		movw r30,r24
 2031 07e0 EC54      		subi r30,76
 2032 07e2 FB4F      		sbci r31,-5
 2033 07e4 2081      		ld r18,Z
 2034 07e6 2130      		cpi r18,lo8(1)
 2035 07e8 01F0      		breq .L151
 2036 07ea AB01      		movw r20,r22
 2037 07ec 60E0      		ldi r22,0
 2038 07ee 70E0      		ldi r23,0
 2039               	.L153:
 513:/Users/manueldeneu/Documents/projets/dev/Monu100/MicroController/MicMonu100/MicMonu100/Display.c **** {
 2041               	.LM223:
 2042 07f0 20E0      		ldi r18,0
 2043 07f2 30E0      		ldi r19,0
 2044 07f4 FC01      		movw r30,r24
 2045 07f6 E60F      		add r30,r22
 2046 07f8 F71F      		adc r31,r23
 2047               	.L156:
 2048 07fa DF01      		movw r26,r30
 2049 07fc A20F      		add r26,r18
 2050 07fe B31F      		adc r27,r19
 2051 0800 A85A      		subi r26,-88
 2052 0802 BD4F      		sbci r27,-3
 2053 0804 EA01      		movw r28,r20
 2054 0806 C20F      		add r28,r18
 2055 0808 D31F      		adc r29,r19
 2056               	.LBB243:
 2057               	.LBB244:
 2058               	.LBB245:
 2059               	.LBB246:
  39:/Users/manueldeneu/Documents/projets/dev/Monu100/MicroController/MicMonu100/MicMonu100/Display.c ****     return val>=PIXEL_MAX_VALUE ? PIXEL_MAX_VALUE : val;
 2061               	.LM224:
 2062 080a C881      		ld r28,Y
 2063 080c C536      		cpi r28,lo8(101)
 2064 080e 00F0      		brlo .L154
 2065 0810 C4E6      		ldi r28,lo8(100)
 2066               	.L154:
 2067               	.LBE246:
 2068               	.LBE245:
 515:/Users/manueldeneu/Documents/projets/dev/Monu100/MicroController/MicMonu100/MicMonu100/Display.c ****         return;
 516:/Users/manueldeneu/Documents/projets/dev/Monu100/MicroController/MicMonu100/MicMonu100/Display.c ****     
 517:/Users/manueldeneu/Documents/projets/dev/Monu100/MicroController/MicMonu100/MicMonu100/Display.c ****     for (int x = 0; x<X_TLC_MAX;x++)
 518:/Users/manueldeneu/Documents/projets/dev/Monu100/MicroController/MicMonu100/MicMonu100/Display.c ****     {
 519:/Users/manueldeneu/Documents/projets/dev/Monu100/MicroController/MicMonu100/MicMonu100/Display.c ****         for (int y = 0; y<Y_MIC_MAX;y++)
 520:/Users/manueldeneu/Documents/projets/dev/Monu100/MicroController/MicMonu100/MicMonu100/Display.c ****         {
 521:/Users/manueldeneu/Documents/projets/dev/Monu100/MicroController/MicMonu100/MicMonu100/Display.c ****             display->buff_draw[x][y] = clipVal( image[y + x*X_TLC_MAX] );
 2070               	.LM225:
 2071 0812 CC93      		st X,r28
 519:/Users/manueldeneu/Documents/projets/dev/Monu100/MicroController/MicMonu100/MicMonu100/Display.c ****         for (int y = 0; y<Y_MIC_MAX;y++)
 2073               	.LM226:
 2074 0814 2F5F      		subi r18,-1
 2075 0816 3F4F      		sbci r19,-1
 2076 0818 2431      		cpi r18,20
 2077 081a 3105      		cpc r19,__zero_reg__
 2078 081c 01F4      		brne .L156
 2079 081e 425E      		subi r20,-30
 2080 0820 5F4F      		sbci r21,-1
 2081 0822 6C5E      		subi r22,-20
 2082 0824 7F4F      		sbci r23,-1
 2083               	.LBE244:
 517:/Users/manueldeneu/Documents/projets/dev/Monu100/MicroController/MicMonu100/MicMonu100/Display.c ****     for (int x = 0; x<X_TLC_MAX;x++)
 2085               	.LM227:
 2086 0826 6835      		cpi r22,88
 2087 0828 22E0      		ldi r18,2
 2088 082a 7207      		cpc r23,r18
 2089 082c 01F4      		brne .L153
 2090               	.L151:
 2091               	/* epilogue start */
 2092               	.LBE243:
 522:/Users/manueldeneu/Documents/projets/dev/Monu100/MicroController/MicMonu100/MicMonu100/Display.c ****         }
 523:/Users/manueldeneu/Documents/projets/dev/Monu100/MicroController/MicMonu100/MicMonu100/Display.c ****     }
 524:/Users/manueldeneu/Documents/projets/dev/Monu100/MicroController/MicMonu100/MicMonu100/Display.c **** }
 2094               	.LM228:
 2095 082e DF91      		pop r29
 2096 0830 CF91      		pop r28
 2097 0832 0895      		ret
 2102               	.Lscope13:
 2109               	.global	display_fillZone
 2111               	display_fillZone:
 525:/Users/manueldeneu/Documents/projets/dev/Monu100/MicroController/MicMonu100/MicMonu100/Display.c **** 
 526:/Users/manueldeneu/Documents/projets/dev/Monu100/MicroController/MicMonu100/MicMonu100/Display.c **** /* **** **** **** **** **** **** **** **** **** **** **** */
 527:/Users/manueldeneu/Documents/projets/dev/Monu100/MicroController/MicMonu100/MicMonu100/Display.c **** 
 528:/Users/manueldeneu/Documents/projets/dev/Monu100/MicroController/MicMonu100/MicMonu100/Display.c **** void display_fillZone  ( Display *display , const int8_t x , const int8_t y, const int8_t w , const
 529:/Users/manueldeneu/Documents/projets/dev/Monu100/MicroController/MicMonu100/MicMonu100/Display.c **** {
 2113               	.LM229:
 2114               	.LFBB14:
 2115 0834 CF92      		push r12
 2116 0836 DF92      		push r13
 2117 0838 FF92      		push r15
 2118 083a 0F93      		push r16
 2119 083c 1F93      		push r17
 2120 083e CF93      		push r28
 2121 0840 DF93      		push r29
 2122               	/* prologue: function */
 2123               	/* frame size = 0 */
 2124               	/* stack size = 7 */
 2125               	.L__stack_usage = 7
 2126               	.LBB247:
 530:/Users/manueldeneu/Documents/projets/dev/Monu100/MicroController/MicMonu100/MicMonu100/Display.c ****     /*
 531:/Users/manueldeneu/Documents/projets/dev/Monu100/MicroController/MicMonu100/MicMonu100/Display.c ****     if (display->isDrawing == 1)
 532:/Users/manueldeneu/Documents/projets/dev/Monu100/MicroController/MicMonu100/MicMonu100/Display.c ****         return;
 533:/Users/manueldeneu/Documents/projets/dev/Monu100/MicroController/MicMonu100/MicMonu100/Display.c ****     */
 534:/Users/manueldeneu/Documents/projets/dev/Monu100/MicroController/MicMonu100/MicMonu100/Display.c ****     
 535:/Users/manueldeneu/Documents/projets/dev/Monu100/MicroController/MicMonu100/MicMonu100/Display.c ****     // inv x<->y
 536:/Users/manueldeneu/Documents/projets/dev/Monu100/MicroController/MicMonu100/MicMonu100/Display.c ****     for (uint8_t xx=0; xx< w; xx++)
 2128               	.LM230:
 2129 0842 562F      		mov r21,r22
 2130 0844 C22E      		mov r12,r18
 2131 0846 DD24      		clr r13
 2132 0848 C7FC      		sbrc r12,7
 2133 084a D094      		com r13
 2134               	.LBB248:
 537:/Users/manueldeneu/Documents/projets/dev/Monu100/MicroController/MicMonu100/MicMonu100/Display.c ****         
 538:/Users/manueldeneu/Documents/projets/dev/Monu100/MicroController/MicMonu100/MicMonu100/Display.c ****         for (uint8_t yy=0; yy<h; yy++)
 2136               	.LM231:
 2137 084c 1127      		clr r17
 2138 084e 07FD      		sbrc r16,7
 2139 0850 1095      		com r17
 2140               	.LBB249:
 539:/Users/manueldeneu/Documents/projets/dev/Monu100/MicroController/MicMonu100/MicMonu100/Display.c ****         {
 540:/Users/manueldeneu/Documents/projets/dev/Monu100/MicroController/MicMonu100/MicMonu100/Display.c ****             const int8_t dX = y+yy;
 541:/Users/manueldeneu/Documents/projets/dev/Monu100/MicroController/MicMonu100/MicMonu100/Display.c ****             const int8_t dY = x+xx;
 542:/Users/manueldeneu/Documents/projets/dev/Monu100/MicroController/MicMonu100/MicMonu100/Display.c ****             
 543:/Users/manueldeneu/Documents/projets/dev/Monu100/MicroController/MicMonu100/MicMonu100/Display.c ****             if( inBouds(dX, dY))
 544:/Users/manueldeneu/Documents/projets/dev/Monu100/MicroController/MicMonu100/MicMonu100/Display.c ****                 display->buff_draw[dX][dY] = display->fillColor;
 2142               	.LM232:
 2143 0852 34E1      		ldi r19,lo8(20)
 2144 0854 EC01      		movw r28,r24
 2145 0856 CF54      		subi r28,79
 2146 0858 DB4F      		sbci r29,-5
 2147               	.L164:
 2148 085a E52F      		mov r30,r21
 2149 085c E61B      		sub r30,r22
 2150               	.LBE249:
 2151               	.LBE248:
 536:/Users/manueldeneu/Documents/projets/dev/Monu100/MicroController/MicMonu100/MicMonu100/Display.c ****     for (uint8_t xx=0; xx< w; xx++)
 2153               	.LM233:
 2154 085e F0E0      		ldi r31,0
 2155 0860 EC15      		cp r30,r12
 2156 0862 FD05      		cpc r31,r13
 2157 0864 04F4      		brge .L163
 536:/Users/manueldeneu/Documents/projets/dev/Monu100/MicroController/MicMonu100/MicMonu100/Display.c ****     for (uint8_t xx=0; xx< w; xx++)
 2159               	.LM234:
 2160 0866 742F      		mov r23,r20
 2161               	.LBB254:
 2162               	.LBB252:
 2164               	.LM235:
 2165 0868 A52F      		mov r26,r21
 2166 086a BB27      		clr r27
 2167 086c A7FD      		sbrc r26,7
 2168 086e B095      		com r27
 2169               	.L170:
 2170 0870 E72F      		mov r30,r23
 2171 0872 E41B      		sub r30,r20
 2172               	.LBE252:
 538:/Users/manueldeneu/Documents/projets/dev/Monu100/MicroController/MicMonu100/MicMonu100/Display.c ****         for (uint8_t yy=0; yy<h; yy++)
 2174               	.LM236:
 2175 0874 F0E0      		ldi r31,0
 2176 0876 E017      		cp r30,r16
 2177 0878 F107      		cpc r31,r17
 2178 087a 04F4      		brge .L175
 2179               	.LBB253:
 2180               	.LBB250:
 2181               	.LBB251:
 2183               	.Ltext11:
  54:/Users/manueldeneu/Documents/projets/dev/Monu100/MicroController/MicMonu100/MicMonu100/Display.h ****            && ( y >=0 && y <Y_MIC_MAX );
 2185               	.LM237:
 2186 087c 7E31      		cpi r23,lo8(30)
 2187 087e 00F4      		brsh .L167
 2188 0880 E1E0      		ldi r30,lo8(1)
 2189 0882 F0E0      		ldi r31,0
 2190 0884 5431      		cpi r21,lo8(20)
 2191 0886 00F0      		brlo .L166
 2192 0888 E0E0      		ldi r30,0
 2193 088a F0E0      		ldi r31,0
 2194               	.L166:
 2195               	.LBE251:
 2196               	.LBE250:
 2198               	.Ltext12:
 543:/Users/manueldeneu/Documents/projets/dev/Monu100/MicroController/MicMonu100/MicMonu100/Display.c ****             if( inBouds(dX, dY))
 2200               	.LM238:
 2201 088c EF2B      		or r30,r31
 2202 088e 01F0      		breq .L167
 2204               	.LM239:
 2205 0890 7303      		mulsu r23,r19
 2206 0892 F001      		movw r30,r0
 2207 0894 1124      		clr __zero_reg__
 2208 0896 E80F      		add r30,r24
 2209 0898 F91F      		adc r31,r25
 2210 089a EA0F      		add r30,r26
 2211 089c FB1F      		adc r31,r27
 2212 089e E85A      		subi r30,-88
 2213 08a0 FD4F      		sbci r31,-3
 2214 08a2 F880      		ld r15,Y
 2215 08a4 F082      		st Z,r15
 2216               	.L167:
 2217 08a6 7F5F      		subi r23,lo8(-(1))
 2218 08a8 00C0      		rjmp .L170
 2219               	.L175:
 2220 08aa 5F5F      		subi r21,lo8(-(1))
 2221 08ac 00C0      		rjmp .L164
 2222               	.L163:
 2223               	/* epilogue start */
 2224               	.LBE253:
 2225               	.LBE254:
 2226               	.LBE247:
 545:/Users/manueldeneu/Documents/projets/dev/Monu100/MicroController/MicMonu100/MicMonu100/Display.c ****         }
 546:/Users/manueldeneu/Documents/projets/dev/Monu100/MicroController/MicMonu100/MicMonu100/Display.c **** }
 2228               	.LM240:
 2229 08ae DF91      		pop r29
 2230 08b0 CF91      		pop r28
 2231 08b2 1F91      		pop r17
 2232 08b4 0F91      		pop r16
 2233 08b6 FF90      		pop r15
 2234 08b8 DF90      		pop r13
 2235 08ba CF90      		pop r12
 2236 08bc 0895      		ret
 2238               	.Lscope14:
 2244               	.global	display_setPixel
 2246               	display_setPixel:
 547:/Users/manueldeneu/Documents/projets/dev/Monu100/MicroController/MicMonu100/MicMonu100/Display.c **** 
 548:/Users/manueldeneu/Documents/projets/dev/Monu100/MicroController/MicMonu100/MicMonu100/Display.c **** /* **** **** **** **** **** **** **** **** **** **** **** */
 549:/Users/manueldeneu/Documents/projets/dev/Monu100/MicroController/MicMonu100/MicMonu100/Display.c **** 
 550:/Users/manueldeneu/Documents/projets/dev/Monu100/MicroController/MicMonu100/MicMonu100/Display.c **** void display_setPixel( Display *display , const uint8_t x , const uint8_t y, const uint8_t value)
 551:/Users/manueldeneu/Documents/projets/dev/Monu100/MicroController/MicMonu100/MicMonu100/Display.c **** {
 2248               	.LM241:
 2249               	.LFBB15:
 2250               	/* prologue: function */
 2251               	/* frame size = 0 */
 2252               	/* stack size = 0 */
 2253               	.L__stack_usage = 0
 552:/Users/manueldeneu/Documents/projets/dev/Monu100/MicroController/MicMonu100/MicMonu100/Display.c **** //    if (display->isDrawing == 1)
 553:/Users/manueldeneu/Documents/projets/dev/Monu100/MicroController/MicMonu100/MicMonu100/Display.c **** //        return;
 554:/Users/manueldeneu/Documents/projets/dev/Monu100/MicroController/MicMonu100/MicMonu100/Display.c ****     
 555:/Users/manueldeneu/Documents/projets/dev/Monu100/MicroController/MicMonu100/MicMonu100/Display.c ****     // inversion x<->y
 556:/Users/manueldeneu/Documents/projets/dev/Monu100/MicroController/MicMonu100/MicMonu100/Display.c ****     if ( (y < X_TLC_MAX) && ( x <Y_MIC_MAX) )
 2255               	.LM242:
 2256 08be 4E31      		cpi r20,lo8(30)
 2257 08c0 00F4      		brsh .L176
 2259               	.LM243:
 2260 08c2 6431      		cpi r22,lo8(20)
 2261 08c4 00F4      		brsh .L176
 557:/Users/manueldeneu/Documents/projets/dev/Monu100/MicroController/MicMonu100/MicMonu100/Display.c ****         display->buff_draw[y][x] = clipVal( value );
 2263               	.LM244:
 2264 08c6 34E1      		ldi r19,lo8(20)
 2265 08c8 439F      		mul r20,r19
 2266 08ca 800D      		add r24,r0
 2267 08cc 911D      		adc r25,r1
 2268 08ce 1124      		clr __zero_reg__
 2269 08d0 860F      		add r24,r22
 2270 08d2 911D      		adc r25,__zero_reg__
 2271 08d4 FC01      		movw r30,r24
 2272 08d6 E85A      		subi r30,-88
 2273 08d8 FD4F      		sbci r31,-3
 2274               	.LBB255:
 2275               	.LBB256:
  39:/Users/manueldeneu/Documents/projets/dev/Monu100/MicroController/MicMonu100/MicMonu100/Display.c ****     return val>=PIXEL_MAX_VALUE ? PIXEL_MAX_VALUE : val;
 2277               	.LM245:
 2278 08da 2536      		cpi r18,lo8(101)
 2279 08dc 00F0      		brlo .L178
 2280 08de 24E6      		ldi r18,lo8(100)
 2281               	.L178:
 2282               	.LBE256:
 2283               	.LBE255:
 2285               	.LM246:
 2286 08e0 2083      		st Z,r18
 2287               	.L176:
 2288 08e2 0895      		ret
 2290               	.Lscope15:
 2296               	.global	display_addPixel
 2298               	display_addPixel:
 558:/Users/manueldeneu/Documents/projets/dev/Monu100/MicroController/MicMonu100/MicMonu100/Display.c **** }
 559:/Users/manueldeneu/Documents/projets/dev/Monu100/MicroController/MicMonu100/MicMonu100/Display.c **** 
 560:/Users/manueldeneu/Documents/projets/dev/Monu100/MicroController/MicMonu100/MicMonu100/Display.c **** /* **** **** **** **** **** **** **** **** **** **** **** */
 561:/Users/manueldeneu/Documents/projets/dev/Monu100/MicroController/MicMonu100/MicMonu100/Display.c **** 
 562:/Users/manueldeneu/Documents/projets/dev/Monu100/MicroController/MicMonu100/MicMonu100/Display.c **** void display_addPixel( Display *display , const uint8_t x , const uint8_t y, const uint8_t value)
 563:/Users/manueldeneu/Documents/projets/dev/Monu100/MicroController/MicMonu100/MicMonu100/Display.c **** {
 2300               	.LM247:
 2301               	.LFBB16:
 2302               	/* prologue: function */
 2303               	/* frame size = 0 */
 2304               	/* stack size = 0 */
 2305               	.L__stack_usage = 0
 564:/Users/manueldeneu/Documents/projets/dev/Monu100/MicroController/MicMonu100/MicMonu100/Display.c ****     // inversion x<->y
 565:/Users/manueldeneu/Documents/projets/dev/Monu100/MicroController/MicMonu100/MicMonu100/Display.c ****     if ( (y < X_TLC_MAX) && ( x <Y_MIC_MAX) )
 2307               	.LM248:
 2308 08e4 4E31      		cpi r20,lo8(30)
 2309 08e6 00F4      		brsh .L179
 2311               	.LM249:
 2312 08e8 6431      		cpi r22,lo8(20)
 2313 08ea 00F4      		brsh .L179
 566:/Users/manueldeneu/Documents/projets/dev/Monu100/MicroController/MicMonu100/MicMonu100/Display.c ****         display->buff_draw[y][x] = clipVal( value );
 2315               	.LM250:
 2316 08ec 34E1      		ldi r19,lo8(20)
 2317 08ee 439F      		mul r20,r19
 2318 08f0 800D      		add r24,r0
 2319 08f2 911D      		adc r25,r1
 2320 08f4 1124      		clr __zero_reg__
 2321 08f6 860F      		add r24,r22
 2322 08f8 911D      		adc r25,__zero_reg__
 2323 08fa FC01      		movw r30,r24
 2324 08fc E85A      		subi r30,-88
 2325 08fe FD4F      		sbci r31,-3
 2326               	.LBB257:
 2327               	.LBB258:
  39:/Users/manueldeneu/Documents/projets/dev/Monu100/MicroController/MicMonu100/MicMonu100/Display.c ****     return val>=PIXEL_MAX_VALUE ? PIXEL_MAX_VALUE : val;
 2329               	.LM251:
 2330 0900 2536      		cpi r18,lo8(101)
 2331 0902 00F0      		brlo .L181
 2332 0904 24E6      		ldi r18,lo8(100)
 2333               	.L181:
 2334               	.LBE258:
 2335               	.LBE257:
 2337               	.LM252:
 2338 0906 2083      		st Z,r18
 2339               	.L179:
 2340 0908 0895      		ret
 2342               	.Lscope16:
 2348               	.global	display_drawCircle
 2350               	display_drawCircle:
 567:/Users/manueldeneu/Documents/projets/dev/Monu100/MicroController/MicMonu100/MicMonu100/Display.c **** }
 568:/Users/manueldeneu/Documents/projets/dev/Monu100/MicroController/MicMonu100/MicMonu100/Display.c **** 
 569:/Users/manueldeneu/Documents/projets/dev/Monu100/MicroController/MicMonu100/MicMonu100/Display.c **** /* **** **** **** **** **** **** **** **** **** **** **** **** **** **** **** **** **** **** **** *
 570:/Users/manueldeneu/Documents/projets/dev/Monu100/MicroController/MicMonu100/MicMonu100/Display.c **** /* **** **** **** **** **** **** **** **** **** **** **** **** **** **** **** **** **** **** **** *
 571:/Users/manueldeneu/Documents/projets/dev/Monu100/MicroController/MicMonu100/MicMonu100/Display.c **** 
 572:/Users/manueldeneu/Documents/projets/dev/Monu100/MicroController/MicMonu100/MicMonu100/Display.c **** /*
 573:/Users/manueldeneu/Documents/projets/dev/Monu100/MicroController/MicMonu100/MicMonu100/Display.c ****  
 574:/Users/manueldeneu/Documents/projets/dev/Monu100/MicroController/MicMonu100/MicMonu100/Display.c ****     Drawing routines
 575:/Users/manueldeneu/Documents/projets/dev/Monu100/MicroController/MicMonu100/MicMonu100/Display.c ****  
 576:/Users/manueldeneu/Documents/projets/dev/Monu100/MicroController/MicMonu100/MicMonu100/Display.c ****  */
 577:/Users/manueldeneu/Documents/projets/dev/Monu100/MicroController/MicMonu100/MicMonu100/Display.c **** /* **** **** **** **** **** **** **** **** **** **** **** */
 578:/Users/manueldeneu/Documents/projets/dev/Monu100/MicroController/MicMonu100/MicMonu100/Display.c **** 
 579:/Users/manueldeneu/Documents/projets/dev/Monu100/MicroController/MicMonu100/MicMonu100/Display.c **** void display_drawCircle( Display *display , const uint8_t x0 , const uint8_t y0 , const uint8_t r)
 580:/Users/manueldeneu/Documents/projets/dev/Monu100/MicroController/MicMonu100/MicMonu100/Display.c **** {
 2352               	.LM253:
 2353               	.LFBB17:
 2354 090a 2F92      		push r2
 2355 090c 3F92      		push r3
 2356 090e 4F92      		push r4
 2357 0910 5F92      		push r5
 2358 0912 6F92      		push r6
 2359 0914 7F92      		push r7
 2360 0916 8F92      		push r8
 2361 0918 9F92      		push r9
 2362 091a AF92      		push r10
 2363 091c BF92      		push r11
 2364 091e CF92      		push r12
 2365 0920 DF92      		push r13
 2366 0922 EF92      		push r14
 2367 0924 FF92      		push r15
 2368 0926 0F93      		push r16
 2369 0928 1F93      		push r17
 2370 092a CF93      		push r28
 2371 092c DF93      		push r29
 2372 092e 00D0      		rcall .
 2373 0930 CDB7      		in r28,__SP_L__
 2374 0932 DEB7      		in r29,__SP_H__
 2375               	/* prologue: function */
 2376               	/* frame size = 3 */
 2377               	/* stack size = 21 */
 2378               	.L__stack_usage = 21
 2379 0934 9B83      		std Y+3,r25
 2380 0936 8A83      		std Y+2,r24
 2381 0938 762E      		mov r7,r22
 2382 093a 642E      		mov r6,r20
 581:/Users/manueldeneu/Documents/projets/dev/Monu100/MicroController/MicMonu100/MicMonu100/Display.c ****     int x = r;
 2384               	.LM254:
 2385 093c 022F      		mov r16,r18
 2386 093e 10E0      		ldi r17,0
 582:/Users/manueldeneu/Documents/projets/dev/Monu100/MicroController/MicMonu100/MicMonu100/Display.c ****     int y = 0;
 583:/Users/manueldeneu/Documents/projets/dev/Monu100/MicroController/MicMonu100/MicMonu100/Display.c ****     int decisionOver2 = 1 - x;   // Decision criterion divided by 2 evaluated at x=r, y=0
 2388               	.LM255:
 2389 0940 AA24      		clr r10
 2390 0942 A394      		inc r10
 2391 0944 B12C      		mov r11,__zero_reg__
 2392 0946 A01A      		sub r10,r16
 2393 0948 B10A      		sbc r11,r17
 2394 094a A3E0      		ldi r26,lo8(3)
 2395 094c 8A2E      		mov r8,r26
 2396 094e 912C      		mov r9,__zero_reg__
 582:/Users/manueldeneu/Documents/projets/dev/Monu100/MicroController/MicMonu100/MicMonu100/Display.c ****     int y = 0;
 2398               	.LM256:
 2399 0950 C12C      		mov r12,__zero_reg__
 2400 0952 D12C      		mov r13,__zero_reg__
 584:/Users/manueldeneu/Documents/projets/dev/Monu100/MicroController/MicMonu100/MicMonu100/Display.c ****     
 585:/Users/manueldeneu/Documents/projets/dev/Monu100/MicroController/MicMonu100/MicMonu100/Display.c ****     while(x >= y)
 586:/Users/manueldeneu/Documents/projets/dev/Monu100/MicroController/MicMonu100/MicMonu100/Display.c ****     {
 587:/Users/manueldeneu/Documents/projets/dev/Monu100/MicroController/MicMonu100/MicMonu100/Display.c ****         display_setPixel( display , x + x0,  y + y0  , display->fillColor);
 2402               	.LM257:
 2403 0954 7C01      		movw r14,r24
 2404 0956 8FE4      		ldi r24,79
 2405 0958 E81A      		sub r14,r24
 2406 095a 8BEF      		ldi r24,-5
 2407 095c F80A      		sbc r15,r24
 2408               	.L186:
 2409 095e 462C      		mov r4,r6
 2410 0960 4C0C      		add r4,r12
 2411 0962 F701      		movw r30,r14
 2412 0964 2081      		ld r18,Z
 2413 0966 442D      		mov r20,r4
 2414 0968 572C      		mov r5,r7
 2415 096a 500E      		add r5,r16
 2416 096c 652D      		mov r22,r5
 2417 096e 8A81      		ldd r24,Y+2
 2418 0970 9B81      		ldd r25,Y+3
 2419 0972 0E94 0000 		call display_setPixel
 588:/Users/manueldeneu/Documents/projets/dev/Monu100/MicroController/MicMonu100/MicMonu100/Display.c ****         display_setPixel( display , x + x0,  y + y0  , display->fillColor);
 2421               	.LM258:
 2422 0976 F701      		movw r30,r14
 2423 0978 2081      		ld r18,Z
 2424 097a 442D      		mov r20,r4
 2425 097c 652D      		mov r22,r5
 2426 097e 8A81      		ldd r24,Y+2
 2427 0980 9B81      		ldd r25,Y+3
 2428 0982 0E94 0000 		call display_setPixel
 2429 0986 372C      		mov r3,r7
 2430 0988 3C0C      		add r3,r12
 589:/Users/manueldeneu/Documents/projets/dev/Monu100/MicroController/MicMonu100/MicMonu100/Display.c ****         display_setPixel( display , y + x0,  x + y0  , display->fillColor);
 2432               	.LM259:
 2433 098a F701      		movw r30,r14
 2434 098c 2081      		ld r18,Z
 2435 098e 262C      		mov r2,r6
 2436 0990 200E      		add r2,r16
 2437 0992 422D      		mov r20,r2
 2438 0994 632D      		mov r22,r3
 2439 0996 8A81      		ldd r24,Y+2
 2440 0998 9B81      		ldd r25,Y+3
 2441 099a 0E94 0000 		call display_setPixel
 590:/Users/manueldeneu/Documents/projets/dev/Monu100/MicroController/MicMonu100/MicMonu100/Display.c ****         display_setPixel( display , -x + x0,  y + y0 , display->fillColor);
 2443               	.LM260:
 2444 099e F701      		movw r30,r14
 2445 09a0 2081      		ld r18,Z
 2446 09a2 442D      		mov r20,r4
 2447 09a4 472C      		mov r4,r7
 2448 09a6 401A      		sub r4,r16
 2449 09a8 642D      		mov r22,r4
 2450 09aa 8A81      		ldd r24,Y+2
 2451 09ac 9B81      		ldd r25,Y+3
 2452 09ae 0E94 0000 		call display_setPixel
 2453 09b2 372D      		mov r19,r7
 2454 09b4 3C19      		sub r19,r12
 591:/Users/manueldeneu/Documents/projets/dev/Monu100/MicroController/MicMonu100/MicMonu100/Display.c ****         display_setPixel( display , -y + x0,  x + y0 , display->fillColor);
 2456               	.LM261:
 2457 09b6 F701      		movw r30,r14
 2458 09b8 2081      		ld r18,Z
 2459 09ba 422D      		mov r20,r2
 2460 09bc 632F      		mov r22,r19
 2461 09be 8A81      		ldd r24,Y+2
 2462 09c0 9B81      		ldd r25,Y+3
 2463 09c2 3983      		std Y+1,r19
 2464 09c4 0E94 0000 		call display_setPixel
 2465 09c8 262C      		mov r2,r6
 2466 09ca 2C18      		sub r2,r12
 592:/Users/manueldeneu/Documents/projets/dev/Monu100/MicroController/MicMonu100/MicMonu100/Display.c ****         display_setPixel( display , -x + x0, -y + y0 , display->fillColor);
 2468               	.LM262:
 2469 09cc F701      		movw r30,r14
 2470 09ce 2081      		ld r18,Z
 2471 09d0 422D      		mov r20,r2
 2472 09d2 642D      		mov r22,r4
 2473 09d4 8A81      		ldd r24,Y+2
 2474 09d6 9B81      		ldd r25,Y+3
 2475 09d8 0E94 0000 		call display_setPixel
 593:/Users/manueldeneu/Documents/projets/dev/Monu100/MicroController/MicMonu100/MicMonu100/Display.c ****         display_setPixel( display , -y + x0, -x + y0 , display->fillColor);
 2477               	.LM263:
 2478 09dc F701      		movw r30,r14
 2479 09de 2081      		ld r18,Z
 2480 09e0 462C      		mov r4,r6
 2481 09e2 401A      		sub r4,r16
 2482 09e4 442D      		mov r20,r4
 2483 09e6 3981      		ldd r19,Y+1
 2484 09e8 632F      		mov r22,r19
 2485 09ea 8A81      		ldd r24,Y+2
 2486 09ec 9B81      		ldd r25,Y+3
 2487 09ee 0E94 0000 		call display_setPixel
 594:/Users/manueldeneu/Documents/projets/dev/Monu100/MicroController/MicMonu100/MicMonu100/Display.c ****         display_setPixel( display ,  x + x0, -y + y0 , display->fillColor);
 2489               	.LM264:
 2490 09f2 F701      		movw r30,r14
 2491 09f4 2081      		ld r18,Z
 2492 09f6 422D      		mov r20,r2
 2493 09f8 652D      		mov r22,r5
 2494 09fa 8A81      		ldd r24,Y+2
 2495 09fc 9B81      		ldd r25,Y+3
 2496 09fe 0E94 0000 		call display_setPixel
 595:/Users/manueldeneu/Documents/projets/dev/Monu100/MicroController/MicMonu100/MicMonu100/Display.c ****         display_setPixel( display ,  y + x0, -x + y0 , display->fillColor);
 2498               	.LM265:
 2499 0a02 F701      		movw r30,r14
 2500 0a04 2081      		ld r18,Z
 2501 0a06 442D      		mov r20,r4
 2502 0a08 632D      		mov r22,r3
 2503 0a0a 8A81      		ldd r24,Y+2
 2504 0a0c 9B81      		ldd r25,Y+3
 2505 0a0e 0E94 0000 		call display_setPixel
 596:/Users/manueldeneu/Documents/projets/dev/Monu100/MicroController/MicMonu100/MicMonu100/Display.c ****         y++;
 2507               	.LM266:
 2508 0a12 FFEF      		ldi r31,-1
 2509 0a14 CF1A      		sub r12,r31
 2510 0a16 DF0A      		sbc r13,r31
 597:/Users/manueldeneu/Documents/projets/dev/Monu100/MicroController/MicMonu100/MicMonu100/Display.c ****         
 598:/Users/manueldeneu/Documents/projets/dev/Monu100/MicroController/MicMonu100/MicMonu100/Display.c ****         if (decisionOver2<=0)
 2512               	.LM267:
 2513 0a18 1A14      		cp __zero_reg__,r10
 2514 0a1a 1B04      		cpc __zero_reg__,r11
 2515 0a1c 04F0      		brlt .L183
 599:/Users/manueldeneu/Documents/projets/dev/Monu100/MicroController/MicMonu100/MicMonu100/Display.c ****         {
 600:/Users/manueldeneu/Documents/projets/dev/Monu100/MicroController/MicMonu100/MicMonu100/Display.c ****             decisionOver2 += 2 * y + 1;   // Change in decision criterion for y -> y+1
 2517               	.LM268:
 2518 0a1e A80C      		add r10,r8
 2519 0a20 B91C      		adc r11,r9
 2520 0a22 00C0      		rjmp .L184
 2521               	.L183:
 601:/Users/manueldeneu/Documents/projets/dev/Monu100/MicroController/MicMonu100/MicMonu100/Display.c ****         }
 602:/Users/manueldeneu/Documents/projets/dev/Monu100/MicroController/MicMonu100/MicMonu100/Display.c ****         else
 603:/Users/manueldeneu/Documents/projets/dev/Monu100/MicroController/MicMonu100/MicMonu100/Display.c ****         {
 604:/Users/manueldeneu/Documents/projets/dev/Monu100/MicroController/MicMonu100/MicMonu100/Display.c ****             x--;
 2523               	.LM269:
 2524 0a24 0150      		subi r16,1
 2525 0a26 1109      		sbc r17,__zero_reg__
 605:/Users/manueldeneu/Documents/projets/dev/Monu100/MicroController/MicMonu100/MicMonu100/Display.c ****             decisionOver2 += 2 * (y - x) + 1;   // Change for y -> y+1, x -> x-1
 2527               	.LM270:
 2528 0a28 C601      		movw r24,r12
 2529 0a2a 801B      		sub r24,r16
 2530 0a2c 910B      		sbc r25,r17
 2531 0a2e 880F      		lsl r24
 2532 0a30 991F      		rol r25
 2533 0a32 0196      		adiw r24,1
 2534 0a34 A80E      		add r10,r24
 2535 0a36 B91E      		adc r11,r25
 2536               	.L184:
 2537 0a38 82E0      		ldi r24,2
 2538 0a3a 880E      		add r8,r24
 2539 0a3c 911C      		adc r9,__zero_reg__
 585:/Users/manueldeneu/Documents/projets/dev/Monu100/MicroController/MicMonu100/MicMonu100/Display.c ****     while(x >= y)
 2541               	.LM271:
 2542 0a3e 0C15      		cp r16,r12
 2543 0a40 1D05      		cpc r17,r13
 2544 0a42 04F0      		brlt .+2
 2545 0a44 00C0      		rjmp .L186
 2546               	/* epilogue start */
 606:/Users/manueldeneu/Documents/projets/dev/Monu100/MicroController/MicMonu100/MicMonu100/Display.c ****         }
 607:/Users/manueldeneu/Documents/projets/dev/Monu100/MicroController/MicMonu100/MicMonu100/Display.c ****     }
 608:/Users/manueldeneu/Documents/projets/dev/Monu100/MicroController/MicMonu100/MicMonu100/Display.c **** }
 2548               	.LM272:
 2549 0a46 0F90      		pop __tmp_reg__
 2550 0a48 0F90      		pop __tmp_reg__
 2551 0a4a 0F90      		pop __tmp_reg__
 2552 0a4c DF91      		pop r29
 2553 0a4e CF91      		pop r28
 2554 0a50 1F91      		pop r17
 2555 0a52 0F91      		pop r16
 2556 0a54 FF90      		pop r15
 2557 0a56 EF90      		pop r14
 2558 0a58 DF90      		pop r13
 2559 0a5a CF90      		pop r12
 2560 0a5c BF90      		pop r11
 2561 0a5e AF90      		pop r10
 2562 0a60 9F90      		pop r9
 2563 0a62 8F90      		pop r8
 2564 0a64 7F90      		pop r7
 2565 0a66 6F90      		pop r6
 2566 0a68 5F90      		pop r5
 2567 0a6a 4F90      		pop r4
 2568 0a6c 3F90      		pop r3
 2569 0a6e 2F90      		pop r2
 2570 0a70 0895      		ret
 2577               	.Lscope17:
 2584               	.global	display_drawLine
 2586               	display_drawLine:
 609:/Users/manueldeneu/Documents/projets/dev/Monu100/MicroController/MicMonu100/MicMonu100/Display.c **** 
 610:/Users/manueldeneu/Documents/projets/dev/Monu100/MicroController/MicMonu100/MicMonu100/Display.c **** /* **** **** **** **** **** **** **** **** **** **** **** */
 611:/Users/manueldeneu/Documents/projets/dev/Monu100/MicroController/MicMonu100/MicMonu100/Display.c **** 
 612:/Users/manueldeneu/Documents/projets/dev/Monu100/MicroController/MicMonu100/MicMonu100/Display.c **** void display_drawLine( Display *display , uint8_t x0 , uint8_t y0 , uint8_t x1 , uint8_t y1 )
 613:/Users/manueldeneu/Documents/projets/dev/Monu100/MicroController/MicMonu100/MicMonu100/Display.c **** {
 2588               	.LM273:
 2589               	.LFBB18:
 2590 0a72 2F92      		push r2
 2591 0a74 3F92      		push r3
 2592 0a76 4F92      		push r4
 2593 0a78 5F92      		push r5
 2594 0a7a 6F92      		push r6
 2595 0a7c 7F92      		push r7
 2596 0a7e 8F92      		push r8
 2597 0a80 9F92      		push r9
 2598 0a82 AF92      		push r10
 2599 0a84 BF92      		push r11
 2600 0a86 CF92      		push r12
 2601 0a88 DF92      		push r13
 2602 0a8a EF92      		push r14
 2603 0a8c FF92      		push r15
 2604 0a8e 0F93      		push r16
 2605 0a90 1F93      		push r17
 2606 0a92 CF93      		push r28
 2607 0a94 DF93      		push r29
 2608 0a96 1F92      		push __zero_reg__
 2609 0a98 1F92      		push __zero_reg__
 2610 0a9a CDB7      		in r28,__SP_L__
 2611 0a9c DEB7      		in r29,__SP_H__
 2612               	/* prologue: function */
 2613               	/* frame size = 2 */
 2614               	/* stack size = 20 */
 2615               	.L__stack_usage = 20
 2616 0a9e 5C01      		movw r10,r24
 2617 0aa0 562E      		mov r5,r22
 2618 0aa2 142F      		mov r17,r20
 2619 0aa4 422E      		mov r4,r18
 614:/Users/manueldeneu/Documents/projets/dev/Monu100/MicroController/MicMonu100/MicMonu100/Display.c ****     int dx = abs(x1-x0), sx = x0<x1 ? 1 : -1;
 2621               	.LM274:
 2622 0aa6 E22E      		mov r14,r18
 2623 0aa8 F12C      		mov r15,__zero_reg__
 2624 0aaa E61A      		sub r14,r22
 2625 0aac F108      		sbc r15,__zero_reg__
 2626 0aae F7FE      		sbrs r15,7
 2627 0ab0 00C0      		rjmp .L188
 2628 0ab2 F194      		neg r15
 2629 0ab4 E194      		neg r14
 2630 0ab6 F108      		sbc r15,__zero_reg__
 2631               	.L188:
 2632 0ab8 5414      		cp r5,r4
 2633 0aba 00F4      		brsh .L200
 2634 0abc 51E0      		ldi r21,lo8(1)
 2635 0abe 00C0      		rjmp .L189
 2636               	.L200:
 2637 0ac0 5FEF      		ldi r21,lo8(-1)
 2638               	.L189:
 615:/Users/manueldeneu/Documents/projets/dev/Monu100/MicroController/MicMonu100/MicMonu100/Display.c ****     int dy = abs(y1-y0), sy = y0<y1 ? 1 : -1;
 2640               	.LM275:
 2641 0ac2 202E      		mov r2,r16
 2642 0ac4 312C      		mov r3,__zero_reg__
 2643 0ac6 211A      		sub r2,r17
 2644 0ac8 3108      		sbc r3,__zero_reg__
 2645 0aca 37FE      		sbrs r3,7
 2646 0acc 00C0      		rjmp .L190
 2647 0ace 3194      		neg r3
 2648 0ad0 2194      		neg r2
 2649 0ad2 3108      		sbc r3,__zero_reg__
 2650               	.L190:
 2651 0ad4 1017      		cp r17,r16
 2652 0ad6 00F4      		brsh .L201
 2654               	.LM276:
 2655 0ad8 31E0      		ldi r19,lo8(1)
 2656 0ada 00C0      		rjmp .L191
 2657               	.L201:
 2658 0adc 3FEF      		ldi r19,lo8(-1)
 2659               	.L191:
 616:/Users/manueldeneu/Documents/projets/dev/Monu100/MicroController/MicMonu100/MicMonu100/Display.c ****     int err = (dx>dy ? dx : -dy)/2, e2;
 2661               	.LM277:
 2662 0ade 2E14      		cp r2,r14
 2663 0ae0 3F04      		cpc r3,r15
 2664 0ae2 04F4      		brge .L192
 2666               	.LM278:
 2667 0ae4 6701      		movw r12,r14
 2668 0ae6 D594      		asr r13
 2669 0ae8 C794      		ror r12
 2670               	.L195:
 617:/Users/manueldeneu/Documents/projets/dev/Monu100/MicroController/MicMonu100/MicMonu100/Display.c ****     
 618:/Users/manueldeneu/Documents/projets/dev/Monu100/MicroController/MicMonu100/MicMonu100/Display.c ****     for(;;)
 619:/Users/manueldeneu/Documents/projets/dev/Monu100/MicroController/MicMonu100/MicMonu100/Display.c ****     {
 620:/Users/manueldeneu/Documents/projets/dev/Monu100/MicroController/MicMonu100/MicMonu100/Display.c ****         display_setPixel( display , x0,  y0  , display->fillColor);
 2672               	.LM279:
 2673 0aea 4501      		movw r8,r10
 2674 0aec 8FE4      		ldi r24,79
 2675 0aee 881A      		sub r8,r24
 2676 0af0 8BEF      		ldi r24,-5
 2677 0af2 980A      		sbc r9,r24
 621:/Users/manueldeneu/Documents/projets/dev/Monu100/MicroController/MicMonu100/MicMonu100/Display.c **** 
 622:/Users/manueldeneu/Documents/projets/dev/Monu100/MicroController/MicMonu100/MicMonu100/Display.c ****         if (x0==x1 && y0==y1)
 623:/Users/manueldeneu/Documents/projets/dev/Monu100/MicroController/MicMonu100/MicMonu100/Display.c ****             break;
 624:/Users/manueldeneu/Documents/projets/dev/Monu100/MicroController/MicMonu100/MicMonu100/Display.c ****         e2 = err;
 625:/Users/manueldeneu/Documents/projets/dev/Monu100/MicroController/MicMonu100/MicMonu100/Display.c ****         if (e2 >-dx) { err -= dy; x0 += sx; }
 2679               	.LM280:
 2680 0af4 6624      		clr r6
 2681 0af6 7724      		clr r7
 2682 0af8 6E18      		sub r6,r14
 2683 0afa 7F08      		sbc r7,r15
 2684 0afc 00C0      		rjmp .L193
 2685               	.L192:
 616:/Users/manueldeneu/Documents/projets/dev/Monu100/MicroController/MicMonu100/MicMonu100/Display.c ****     int err = (dx>dy ? dx : -dy)/2, e2;
 2687               	.LM281:
 2688 0afe 6101      		movw r12,r2
 2689 0b00 37FE      		sbrs r3,7
 2690 0b02 00C0      		rjmp .L194
 2691 0b04 EFEF      		ldi r30,-1
 2692 0b06 CE1A      		sub r12,r30
 2693 0b08 DE0A      		sbc r13,r30
 2694               	.L194:
 2695 0b0a D594      		asr r13
 2696 0b0c C794      		ror r12
 2697 0b0e D194      		neg r13
 2698 0b10 C194      		neg r12
 2699 0b12 D108      		sbc r13,__zero_reg__
 2700 0b14 00C0      		rjmp .L195
 2701               	.L204:
 622:/Users/manueldeneu/Documents/projets/dev/Monu100/MicroController/MicMonu100/MicMonu100/Display.c ****         if (x0==x1 && y0==y1)
 2703               	.LM282:
 2704 0b16 1017      		cp r17,r16
 2705 0b18 01F0      		breq .L187
 2706               	.L196:
 2708               	.LM283:
 2709 0b1a F601      		movw r30,r12
 2710 0b1c 6C14      		cp r6,r12
 2711 0b1e 7D04      		cpc r7,r13
 2712 0b20 04F4      		brge .L198
 2714               	.LM284:
 2715 0b22 E219      		sub r30,r2
 2716 0b24 F309      		sbc r31,r3
 2717 0b26 550E      		add r5,r21
 2718               	.L198:
 626:/Users/manueldeneu/Documents/projets/dev/Monu100/MicroController/MicMonu100/MicMonu100/Display.c ****         if (e2 < dy) { err += dx; y0 += sy; }
 2720               	.LM285:
 2721 0b28 C214      		cp r12,r2
 2722 0b2a D304      		cpc r13,r3
 2723 0b2c 04F0      		brlt .L203
 2724               	.L199:
 615:/Users/manueldeneu/Documents/projets/dev/Monu100/MicroController/MicMonu100/MicMonu100/Display.c ****     int dy = abs(y1-y0), sy = y0<y1 ? 1 : -1;
 2726               	.LM286:
 2727 0b2e 6F01      		movw r12,r30
 2728               	.L193:
 620:/Users/manueldeneu/Documents/projets/dev/Monu100/MicroController/MicMonu100/MicMonu100/Display.c ****         display_setPixel( display , x0,  y0  , display->fillColor);
 2730               	.LM287:
 2731 0b30 F401      		movw r30,r8
 2732 0b32 2081      		ld r18,Z
 2733 0b34 412F      		mov r20,r17
 2734 0b36 652D      		mov r22,r5
 2735 0b38 C501      		movw r24,r10
 2736 0b3a 3A83      		std Y+2,r19
 2737 0b3c 5983      		std Y+1,r21
 2738 0b3e 0E94 0000 		call display_setPixel
 622:/Users/manueldeneu/Documents/projets/dev/Monu100/MicroController/MicMonu100/MicMonu100/Display.c ****         if (x0==x1 && y0==y1)
 2740               	.LM288:
 2741 0b42 3A81      		ldd r19,Y+2
 2742 0b44 5981      		ldd r21,Y+1
 2743 0b46 5410      		cpse r5,r4
 2744 0b48 00C0      		rjmp .L196
 2745 0b4a 00C0      		rjmp .L204
 2746               	.L203:
 2748               	.LM289:
 2749 0b4c EE0D      		add r30,r14
 2750 0b4e FF1D      		adc r31,r15
 2751 0b50 130F      		add r17,r19
 2752 0b52 00C0      		rjmp .L199
 2753               	.L187:
 2754               	/* epilogue start */
 627:/Users/manueldeneu/Documents/projets/dev/Monu100/MicroController/MicMonu100/MicMonu100/Display.c ****     }
 628:/Users/manueldeneu/Documents/projets/dev/Monu100/MicroController/MicMonu100/MicMonu100/Display.c **** }
 2756               	.LM290:
 2757 0b54 0F90      		pop __tmp_reg__
 2758 0b56 0F90      		pop __tmp_reg__
 2759 0b58 DF91      		pop r29
 2760 0b5a CF91      		pop r28
 2761 0b5c 1F91      		pop r17
 2762 0b5e 0F91      		pop r16
 2763 0b60 FF90      		pop r15
 2764 0b62 EF90      		pop r14
 2765 0b64 DF90      		pop r13
 2766 0b66 CF90      		pop r12
 2767 0b68 BF90      		pop r11
 2768 0b6a AF90      		pop r10
 2769 0b6c 9F90      		pop r9
 2770 0b6e 8F90      		pop r8
 2771 0b70 7F90      		pop r7
 2772 0b72 6F90      		pop r6
 2773 0b74 5F90      		pop r5
 2774 0b76 4F90      		pop r4
 2775 0b78 3F90      		pop r3
 2776 0b7a 2F90      		pop r2
 2777 0b7c 0895      		ret
 2779               	.Lscope18:
 2780               		.section	.rodata
 2783               	CSWTCH.33:
 2784 0000 0000      		.word	c_0
 2785 0002 0000      		.word	c_1
 2786 0004 0000      		.word	c_2
 2787 0006 0000      		.word	c_3
 2788 0008 0000      		.word	c_4
 2789 000a 0000      		.word	c_5
 2790 000c 0000      		.word	c_6
 2791 000e 0000      		.word	c_7
 2792 0010 0000      		.word	c_8
 2793 0012 0000      		.word	c_9
 2794 0014 0000      		.word	c_NULL
 2795 0016 0000      		.word	c_NULL
 2796 0018 0000      		.word	c_NULL
 2797 001a 0000      		.word	c_NULL
 2798 001c 0000      		.word	c_NULL
 2799 001e 0000      		.word	c_NULL
 2800 0020 0000      		.word	c_NULL
 2801 0022 0000      		.word	c_A
 2802 0024 0000      		.word	c_B
 2803 0026 0000      		.word	c_C
 2804 0028 0000      		.word	c_D
 2805 002a 0000      		.word	c_E
 2806 002c 0000      		.word	c_F
 2807 002e 0000      		.word	c_G
 2808 0030 0000      		.word	c_H
 2809 0032 0000      		.word	c_I
 2810 0034 0000      		.word	c_J
 2811 0036 0000      		.word	c_K
 2812 0038 0000      		.word	c_L
 2813 003a 0000      		.word	c_M
 2814 003c 0000      		.word	c_N
 2815 003e 0000      		.word	c_O
 2816 0040 0000      		.word	c_P
 2817 0042 0000      		.word	c_Q
 2818 0044 0000      		.word	c_R
 2819 0046 0000      		.word	c_S
 2820 0048 0000      		.word	c_T
 2821 004a 0000      		.word	c_U
 2822 004c 0000      		.word	c_V
 2823 004e 0000      		.word	c_W
 2824 0050 0000      		.word	c_X
 2825 0052 0000      		.word	c_Y
 2826 0054 0000      		.word	c_Z
 2827 0056 0000      		.word	c_NULL
 2828 0058 0000      		.word	c_NULL
 2829 005a 0000      		.word	c_NULL
 2830 005c 0000      		.word	c_NULL
 2831 005e 0000      		.word	c_NULL
 2832 0060 0000      		.word	c_NULL
 2833 0062 0000      		.word	c_A
 2834 0064 0000      		.word	c_B
 2835 0066 0000      		.word	c_C
 2836 0068 0000      		.word	c_D
 2837 006a 0000      		.word	c_E
 2838 006c 0000      		.word	c_F
 2839 006e 0000      		.word	c_G
 2840 0070 0000      		.word	c_H
 2841 0072 0000      		.word	c_I
 2842 0074 0000      		.word	c_J
 2843 0076 0000      		.word	c_K
 2844 0078 0000      		.word	c_L
 2845 007a 0000      		.word	c_M
 2846 007c 0000      		.word	c_N
 2847 007e 0000      		.word	c_O
 2848 0080 0000      		.word	c_P
 2849 0082 0000      		.word	c_Q
 2850 0084 0000      		.word	c_R
 2851 0086 0000      		.word	c_S
 2852 0088 0000      		.word	c_T
 2853 008a 0000      		.word	c_U
 2854 008c 0000      		.word	c_V
 2855 008e 0000      		.word	c_W
 2856 0090 0000      		.word	c_X
 2857 0092 0000      		.word	c_Y
 2858 0094 0000      		.word	c_Z
 2859               		.data
 2862               	firstCycleFlag.2449:
 2863 0000 01        		.byte	1
 2864               		.local	xlatNeedsPulse.2450
 2865               		.comm	xlatNeedsPulse.2450,1,1
 2868               	rowIndex.2448:
 2869 0001 1400      		.word	20
 2872               	firstCycleFlag.2429:
 2873 0003 01        		.byte	1
 2874               		.local	xlatNeedsPulse.2430
 2875               		.comm	xlatNeedsPulse.2430,1,1
 2878               	rowIndex.2428:
 2879 0004 1400      		.word	20
 2880               	.global	c_NULL
 2881               		.section	.rodata
 2884               	c_NULL:
 2885 0096 00        		.byte	0
 2886 0097 00        		.byte	0
 2887 0098 00        		.byte	0
 2888 0099 00        		.byte	0
 2889 009a 00        		.byte	0
 2890 009b 00        		.byte	0
 2891 009c 00        		.byte	0
 2892 009d 00        		.byte	0
 2893 009e 00        		.byte	0
 2894 009f 00        		.byte	0
 2895 00a0 08        		.byte	8
 2896               	.global	c_Z
 2899               	c_Z:
 2900 00a1 FF        		.byte	-1
 2901 00a2 FF        		.byte	-1
 2902 00a3 06        		.byte	6
 2903 00a4 0C        		.byte	12
 2904 00a5 18        		.byte	24
 2905 00a6 30        		.byte	48
 2906 00a7 60        		.byte	96
 2907 00a8 FF        		.byte	-1
 2908 00a9 FF        		.byte	-1
 2909 00aa 00        		.byte	0
 2910 00ab 08        		.byte	8
 2911               	.global	c_Y
 2914               	c_Y:
 2915 00ac C3        		.byte	-61
 2916 00ad C3        		.byte	-61
 2917 00ae C3        		.byte	-61
 2918 00af FF        		.byte	-1
 2919 00b0 7F        		.byte	127
 2920 00b1 03        		.byte	3
 2921 00b2 03        		.byte	3
 2922 00b3 FF        		.byte	-1
 2923 00b4 FF        		.byte	-1
 2924 00b5 00        		.byte	0
 2925 00b6 08        		.byte	8
 2926               	.global	c_X
 2929               	c_X:
 2930 00b7 C3        		.byte	-61
 2931 00b8 C3        		.byte	-61
 2932 00b9 66        		.byte	102
 2933 00ba 3C        		.byte	60
 2934 00bb 18        		.byte	24
 2935 00bc 3C        		.byte	60
 2936 00bd 66        		.byte	102
 2937 00be C3        		.byte	-61
 2938 00bf C3        		.byte	-61
 2939 00c0 00        		.byte	0
 2940 00c1 08        		.byte	8
 2941               	.global	c_W
 2944               	c_W:
 2945 00c2 DB        		.byte	-37
 2946 00c3 DB        		.byte	-37
 2947 00c4 DB        		.byte	-37
 2948 00c5 DB        		.byte	-37
 2949 00c6 DB        		.byte	-37
 2950 00c7 DB        		.byte	-37
 2951 00c8 DB        		.byte	-37
 2952 00c9 FF        		.byte	-1
 2953 00ca FF        		.byte	-1
 2954 00cb 00        		.byte	0
 2955 00cc 08        		.byte	8
 2956               	.global	c_V
 2959               	c_V:
 2960 00cd C3        		.byte	-61
 2961 00ce C3        		.byte	-61
 2962 00cf C3        		.byte	-61
 2963 00d0 C3        		.byte	-61
 2964 00d1 C3        		.byte	-61
 2965 00d2 C3        		.byte	-61
 2966 00d3 E7        		.byte	-25
 2967 00d4 7E        		.byte	126
 2968 00d5 3C        		.byte	60
 2969 00d6 00        		.byte	0
 2970 00d7 08        		.byte	8
 2971               	.global	c_U
 2974               	c_U:
 2975 00d8 C3        		.byte	-61
 2976 00d9 C3        		.byte	-61
 2977 00da C3        		.byte	-61
 2978 00db C3        		.byte	-61
 2979 00dc C3        		.byte	-61
 2980 00dd C3        		.byte	-61
 2981 00de C3        		.byte	-61
 2982 00df FF        		.byte	-1
 2983 00e0 7E        		.byte	126
 2984 00e1 00        		.byte	0
 2985 00e2 08        		.byte	8
 2986               	.global	c_T
 2989               	c_T:
 2990 00e3 FF        		.byte	-1
 2991 00e4 FF        		.byte	-1
 2992 00e5 18        		.byte	24
 2993 00e6 18        		.byte	24
 2994 00e7 18        		.byte	24
 2995 00e8 18        		.byte	24
 2996 00e9 18        		.byte	24
 2997 00ea 18        		.byte	24
 2998 00eb 18        		.byte	24
 2999 00ec 00        		.byte	0
 3000 00ed 08        		.byte	8
 3001               	.global	c_S
 3004               	c_S:
 3005 00ee 7F        		.byte	127
 3006 00ef FF        		.byte	-1
 3007 00f0 C0        		.byte	-64
 3008 00f1 FE        		.byte	-2
 3009 00f2 FF        		.byte	-1
 3010 00f3 7F        		.byte	127
 3011 00f4 03        		.byte	3
 3012 00f5 FF        		.byte	-1
 3013 00f6 FE        		.byte	-2
 3014 00f7 00        		.byte	0
 3015 00f8 08        		.byte	8
 3016               	.global	c_R
 3019               	c_R:
 3020 00f9 FE        		.byte	-2
 3021 00fa FF        		.byte	-1
 3022 00fb C3        		.byte	-61
 3023 00fc C3        		.byte	-61
 3024 00fd FF        		.byte	-1
 3025 00fe FE        		.byte	-2
 3026 00ff C6        		.byte	-58
 3027 0100 C7        		.byte	-57
 3028 0101 C7        		.byte	-57
 3029 0102 00        		.byte	0
 3030 0103 08        		.byte	8
 3031               	.global	c_Q
 3034               	c_Q:
 3035 0104 7E        		.byte	126
 3036 0105 FF        		.byte	-1
 3037 0106 C3        		.byte	-61
 3038 0107 C3        		.byte	-61
 3039 0108 C3        		.byte	-61
 3040 0109 C3        		.byte	-61
 3041 010a DB        		.byte	-37
 3042 010b FF        		.byte	-1
 3043 010c 7E        		.byte	126
 3044 010d 0C        		.byte	12
 3045 010e 08        		.byte	8
 3046               	.global	c_P
 3049               	c_P:
 3050 010f FE        		.byte	-2
 3051 0110 FF        		.byte	-1
 3052 0111 C3        		.byte	-61
 3053 0112 C3        		.byte	-61
 3054 0113 FF        		.byte	-1
 3055 0114 FE        		.byte	-2
 3056 0115 C0        		.byte	-64
 3057 0116 C0        		.byte	-64
 3058 0117 C0        		.byte	-64
 3059 0118 00        		.byte	0
 3060 0119 08        		.byte	8
 3061               	.global	c_O
 3064               	c_O:
 3065 011a 7E        		.byte	126
 3066 011b FF        		.byte	-1
 3067 011c C3        		.byte	-61
 3068 011d C3        		.byte	-61
 3069 011e C3        		.byte	-61
 3070 011f C3        		.byte	-61
 3071 0120 C3        		.byte	-61
 3072 0121 FF        		.byte	-1
 3073 0122 7E        		.byte	126
 3074 0123 00        		.byte	0
 3075 0124 08        		.byte	8
 3076               	.global	c_N
 3079               	c_N:
 3080 0125 C3        		.byte	-61
 3081 0126 C3        		.byte	-61
 3082 0127 E3        		.byte	-29
 3083 0128 F3        		.byte	-13
 3084 0129 DB        		.byte	-37
 3085 012a CF        		.byte	-49
 3086 012b C7        		.byte	-57
 3087 012c C3        		.byte	-61
 3088 012d C3        		.byte	-61
 3089 012e 00        		.byte	0
 3090 012f 08        		.byte	8
 3091               	.global	c_M
 3094               	c_M:
 3095 0130 FF        		.byte	-1
 3096 0131 DB        		.byte	-37
 3097 0132 DB        		.byte	-37
 3098 0133 DB        		.byte	-37
 3099 0134 DB        		.byte	-37
 3100 0135 DB        		.byte	-37
 3101 0136 DB        		.byte	-37
 3102 0137 DB        		.byte	-37
 3103 0138 DB        		.byte	-37
 3104 0139 00        		.byte	0
 3105 013a 08        		.byte	8
 3106               	.global	c_L
 3109               	c_L:
 3110 013b 60        		.byte	96
 3111 013c 60        		.byte	96
 3112 013d 60        		.byte	96
 3113 013e 60        		.byte	96
 3114 013f 60        		.byte	96
 3115 0140 60        		.byte	96
 3116 0141 60        		.byte	96
 3117 0142 7E        		.byte	126
 3118 0143 7E        		.byte	126
 3119 0144 00        		.byte	0
 3120 0145 08        		.byte	8
 3121               	.global	c_K
 3124               	c_K:
 3125 0146 66        		.byte	102
 3126 0147 66        		.byte	102
 3127 0148 66        		.byte	102
 3128 0149 7C        		.byte	124
 3129 014a 7C        		.byte	124
 3130 014b 7C        		.byte	124
 3131 014c 66        		.byte	102
 3132 014d 66        		.byte	102
 3133 014e 66        		.byte	102
 3134 014f 00        		.byte	0
 3135 0150 08        		.byte	8
 3136               	.global	c_J
 3139               	c_J:
 3140 0151 7E        		.byte	126
 3141 0152 7E        		.byte	126
 3142 0153 06        		.byte	6
 3143 0154 06        		.byte	6
 3144 0155 06        		.byte	6
 3145 0156 06        		.byte	6
 3146 0157 66        		.byte	102
 3147 0158 7E        		.byte	126
 3148 0159 3C        		.byte	60
 3149 015a 00        		.byte	0
 3150 015b 08        		.byte	8
 3151               	.global	c_I
 3154               	c_I:
 3155 015c 7E        		.byte	126
 3156 015d 7E        		.byte	126
 3157 015e 18        		.byte	24
 3158 015f 18        		.byte	24
 3159 0160 18        		.byte	24
 3160 0161 18        		.byte	24
 3161 0162 18        		.byte	24
 3162 0163 7E        		.byte	126
 3163 0164 7E        		.byte	126
 3164 0165 00        		.byte	0
 3165 0166 08        		.byte	8
 3166               	.global	c_H
 3169               	c_H:
 3170 0167 C3        		.byte	-61
 3171 0168 C3        		.byte	-61
 3172 0169 C3        		.byte	-61
 3173 016a FF        		.byte	-1
 3174 016b FF        		.byte	-1
 3175 016c C3        		.byte	-61
 3176 016d C3        		.byte	-61
 3177 016e C3        		.byte	-61
 3178 016f C3        		.byte	-61
 3179 0170 00        		.byte	0
 3180 0171 08        		.byte	8
 3181               	.global	c_G
 3184               	c_G:
 3185 0172 7F        		.byte	127
 3186 0173 FF        		.byte	-1
 3187 0174 C0        		.byte	-64
 3188 0175 C0        		.byte	-64
 3189 0176 CE        		.byte	-50
 3190 0177 CF        		.byte	-49
 3191 0178 C3        		.byte	-61
 3192 0179 FF        		.byte	-1
 3193 017a 7E        		.byte	126
 3194 017b 00        		.byte	0
 3195 017c 08        		.byte	8
 3196               	.global	c_F
 3199               	c_F:
 3200 017d 7E        		.byte	126
 3201 017e 7E        		.byte	126
 3202 017f 60        		.byte	96
 3203 0180 7C        		.byte	124
 3204 0181 7C        		.byte	124
 3205 0182 60        		.byte	96
 3206 0183 60        		.byte	96
 3207 0184 60        		.byte	96
 3208 0185 60        		.byte	96
 3209 0186 00        		.byte	0
 3210 0187 08        		.byte	8
 3211               	.global	c_E
 3214               	c_E:
 3215 0188 7E        		.byte	126
 3216 0189 7E        		.byte	126
 3217 018a 60        		.byte	96
 3218 018b 7C        		.byte	124
 3219 018c 7C        		.byte	124
 3220 018d 60        		.byte	96
 3221 018e 60        		.byte	96
 3222 018f 7E        		.byte	126
 3223 0190 7E        		.byte	126
 3224 0191 00        		.byte	0
 3225 0192 08        		.byte	8
 3226               	.global	c_D
 3229               	c_D:
 3230 0193 FE        		.byte	-2
 3231 0194 FF        		.byte	-1
 3232 0195 C3        		.byte	-61
 3233 0196 C3        		.byte	-61
 3234 0197 C3        		.byte	-61
 3235 0198 C3        		.byte	-61
 3236 0199 C3        		.byte	-61
 3237 019a FF        		.byte	-1
 3238 019b FE        		.byte	-2
 3239 019c 00        		.byte	0
 3240 019d 08        		.byte	8
 3241               	.global	c_C
 3244               	c_C:
 3245 019e 3E        		.byte	62
 3246 019f 7E        		.byte	126
 3247 01a0 60        		.byte	96
 3248 01a1 60        		.byte	96
 3249 01a2 60        		.byte	96
 3250 01a3 60        		.byte	96
 3251 01a4 60        		.byte	96
 3252 01a5 7E        		.byte	126
 3253 01a6 3E        		.byte	62
 3254 01a7 00        		.byte	0
 3255 01a8 08        		.byte	8
 3256               	.global	c_B
 3259               	c_B:
 3260 01a9 FC        		.byte	-4
 3261 01aa FE        		.byte	-2
 3262 01ab C6        		.byte	-58
 3263 01ac FE        		.byte	-2
 3264 01ad FF        		.byte	-1
 3265 01ae C3        		.byte	-61
 3266 01af C3        		.byte	-61
 3267 01b0 FF        		.byte	-1
 3268 01b1 FF        		.byte	-1
 3269 01b2 00        		.byte	0
 3270 01b3 08        		.byte	8
 3271               	.global	c_A
 3274               	c_A:
 3275 01b4 3C        		.byte	60
 3276 01b5 3C        		.byte	60
 3277 01b6 C3        		.byte	-61
 3278 01b7 C3        		.byte	-61
 3279 01b8 FF        		.byte	-1
 3280 01b9 FF        		.byte	-1
 3281 01ba C3        		.byte	-61
 3282 01bb C3        		.byte	-61
 3283 01bc C3        		.byte	-61
 3284 01bd 00        		.byte	0
 3285 01be 08        		.byte	8
 3286               	.global	c_9
 3289               	c_9:
 3290 01bf 7E        		.byte	126
 3291 01c0 7E        		.byte	126
 3292 01c1 66        		.byte	102
 3293 01c2 7E        		.byte	126
 3294 01c3 7E        		.byte	126
 3295 01c4 06        		.byte	6
 3296 01c5 06        		.byte	6
 3297 01c6 7E        		.byte	126
 3298 01c7 7E        		.byte	126
 3299 01c8 00        		.byte	0
 3300 01c9 08        		.byte	8
 3301               	.global	c_8
 3304               	c_8:
 3305 01ca 7E        		.byte	126
 3306 01cb 7E        		.byte	126
 3307 01cc 66        		.byte	102
 3308 01cd 7E        		.byte	126
 3309 01ce 7E        		.byte	126
 3310 01cf 66        		.byte	102
 3311 01d0 66        		.byte	102
 3312 01d1 7E        		.byte	126
 3313 01d2 7E        		.byte	126
 3314 01d3 00        		.byte	0
 3315 01d4 08        		.byte	8
 3316               	.global	c_7
 3319               	c_7:
 3320 01d5 7E        		.byte	126
 3321 01d6 7E        		.byte	126
 3322 01d7 06        		.byte	6
 3323 01d8 0E        		.byte	14
 3324 01d9 1C        		.byte	28
 3325 01da 38        		.byte	56
 3326 01db 30        		.byte	48
 3327 01dc 30        		.byte	48
 3328 01dd 30        		.byte	48
 3329 01de 00        		.byte	0
 3330 01df 08        		.byte	8
 3331               	.global	c_6
 3334               	c_6:
 3335 01e0 7E        		.byte	126
 3336 01e1 7E        		.byte	126
 3337 01e2 60        		.byte	96
 3338 01e3 7E        		.byte	126
 3339 01e4 7E        		.byte	126
 3340 01e5 66        		.byte	102
 3341 01e6 66        		.byte	102
 3342 01e7 7E        		.byte	126
 3343 01e8 7E        		.byte	126
 3344 01e9 00        		.byte	0
 3345 01ea 08        		.byte	8
 3346               	.global	c_5
 3349               	c_5:
 3350 01eb 7E        		.byte	126
 3351 01ec 7E        		.byte	126
 3352 01ed 60        		.byte	96
 3353 01ee 7C        		.byte	124
 3354 01ef 7E        		.byte	126
 3355 01f0 06        		.byte	6
 3356 01f1 06        		.byte	6
 3357 01f2 7E        		.byte	126
 3358 01f3 7C        		.byte	124
 3359 01f4 00        		.byte	0
 3360 01f5 08        		.byte	8
 3361               	.global	c_4
 3364               	c_4:
 3365 01f6 66        		.byte	102
 3366 01f7 66        		.byte	102
 3367 01f8 66        		.byte	102
 3368 01f9 7E        		.byte	126
 3369 01fa 7E        		.byte	126
 3370 01fb 06        		.byte	6
 3371 01fc 06        		.byte	6
 3372 01fd 06        		.byte	6
 3373 01fe 06        		.byte	6
 3374 01ff 00        		.byte	0
 3375 0200 08        		.byte	8
 3376               	.global	c_3
 3379               	c_3:
 3380 0201 7E        		.byte	126
 3381 0202 7E        		.byte	126
 3382 0203 46        		.byte	70
 3383 0204 1E        		.byte	30
 3384 0205 1C        		.byte	28
 3385 0206 1E        		.byte	30
 3386 0207 46        		.byte	70
 3387 0208 7E        		.byte	126
 3388 0209 7E        		.byte	126
 3389 020a 00        		.byte	0
 3390 020b 08        		.byte	8
 3391               	.global	c_2
 3394               	c_2:
 3395 020c 7E        		.byte	126
 3396 020d 7E        		.byte	126
 3397 020e 66        		.byte	102
 3398 020f 0C        		.byte	12
 3399 0210 18        		.byte	24
 3400 0211 30        		.byte	48
 3401 0212 60        		.byte	96
 3402 0213 7E        		.byte	126
 3403 0214 7E        		.byte	126
 3404 0215 00        		.byte	0
 3405 0216 08        		.byte	8
 3406               	.global	c_1
 3409               	c_1:
 3410 0217 3C        		.byte	60
 3411 0218 3C        		.byte	60
 3412 0219 0C        		.byte	12
 3413 021a 0C        		.byte	12
 3414 021b 0C        		.byte	12
 3415 021c 0C        		.byte	12
 3416 021d 0C        		.byte	12
 3417 021e 0C        		.byte	12
 3418 021f 0C        		.byte	12
 3419 0220 00        		.byte	0
 3420 0221 08        		.byte	8
 3421               	.global	c_0
 3424               	c_0:
 3425 0222 3C        		.byte	60
 3426 0223 7E        		.byte	126
 3427 0224 66        		.byte	102
 3428 0225 66        		.byte	102
 3429 0226 66        		.byte	102
 3430 0227 66        		.byte	102
 3431 0228 66        		.byte	102
 3432 0229 7E        		.byte	126
 3433 022a 3C        		.byte	60
 3434 022b 00        		.byte	0
 3435 022c 08        		.byte	8
 3473               		.text
 3475               	.Letext0:
 3476               		.ident	"GCC: (GNU) 4.8.1"
 3477               	.global __do_copy_data
 3478               	.global __do_clear_bss
DEFINED SYMBOLS
                            *ABS*:00000000 Display.c
/var/folders/yp/wn04j3ms5mn9jhx6j8jq8l4c0000gn/T//cc4IRRw3.s:2      *ABS*:0000003e __SP_H__
/var/folders/yp/wn04j3ms5mn9jhx6j8jq8l4c0000gn/T//cc4IRRw3.s:3      *ABS*:0000003d __SP_L__
/var/folders/yp/wn04j3ms5mn9jhx6j8jq8l4c0000gn/T//cc4IRRw3.s:4      *ABS*:0000003f __SREG__
/var/folders/yp/wn04j3ms5mn9jhx6j8jq8l4c0000gn/T//cc4IRRw3.s:5      *ABS*:0000003b __RAMPZ__
/var/folders/yp/wn04j3ms5mn9jhx6j8jq8l4c0000gn/T//cc4IRRw3.s:6      *ABS*:00000000 __tmp_reg__
/var/folders/yp/wn04j3ms5mn9jhx6j8jq8l4c0000gn/T//cc4IRRw3.s:7      *ABS*:00000001 __zero_reg__
/var/folders/yp/wn04j3ms5mn9jhx6j8jq8l4c0000gn/T//cc4IRRw3.s:144    .text:00000000 getCharWidth
/var/folders/yp/wn04j3ms5mn9jhx6j8jq8l4c0000gn/T//cc4IRRw3.s:161    .text:00000004 getCharHeight
/var/folders/yp/wn04j3ms5mn9jhx6j8jq8l4c0000gn/T//cc4IRRw3.s:178    .text:00000008 __vector_21
/var/folders/yp/wn04j3ms5mn9jhx6j8jq8l4c0000gn/T//cc4IRRw3.s:2878   .data:00000004 rowIndex.2428
/var/folders/yp/wn04j3ms5mn9jhx6j8jq8l4c0000gn/T//cc4IRRw3.s:2865   .bss:00000001 xlatNeedsPulse.2430
/var/folders/yp/wn04j3ms5mn9jhx6j8jq8l4c0000gn/T//cc4IRRw3.s:2872   .data:00000003 firstCycleFlag.2429
/var/folders/yp/wn04j3ms5mn9jhx6j8jq8l4c0000gn/T//cc4IRRw3.s:699    .text:00000272 update
/var/folders/yp/wn04j3ms5mn9jhx6j8jq8l4c0000gn/T//cc4IRRw3.s:2868   .data:00000001 rowIndex.2448
                             .bss:00000000 xlatNeedsPulse.2450
/var/folders/yp/wn04j3ms5mn9jhx6j8jq8l4c0000gn/T//cc4IRRw3.s:2862   .data:00000000 firstCycleFlag.2449
/var/folders/yp/wn04j3ms5mn9jhx6j8jq8l4c0000gn/T//cc4IRRw3.s:1198   .text:000004a8 TLC5940_Init
/var/folders/yp/wn04j3ms5mn9jhx6j8jq8l4c0000gn/T//cc4IRRw3.s:1323   .text:0000054e display_setFontColor
/var/folders/yp/wn04j3ms5mn9jhx6j8jq8l4c0000gn/T//cc4IRRw3.s:1357   .text:0000055e display_setFillColor
/var/folders/yp/wn04j3ms5mn9jhx6j8jq8l4c0000gn/T//cc4IRRw3.s:1394   .text:0000056e display_clearZoneDraw
/var/folders/yp/wn04j3ms5mn9jhx6j8jq8l4c0000gn/T//cc4IRRw3.s:1501   .text:000005ca display_clearZoneText
/var/folders/yp/wn04j3ms5mn9jhx6j8jq8l4c0000gn/T//cc4IRRw3.s:1602   .text:00000622 display_init
/var/folders/yp/wn04j3ms5mn9jhx6j8jq8l4c0000gn/T//cc4IRRw3.s:1673   .text:00000664 display_translate
/var/folders/yp/wn04j3ms5mn9jhx6j8jq8l4c0000gn/T//cc4IRRw3.s:1692   .text:00000666 display_write
/var/folders/yp/wn04j3ms5mn9jhx6j8jq8l4c0000gn/T//cc4IRRw3.s:2783   .rodata:00000000 CSWTCH.33
/var/folders/yp/wn04j3ms5mn9jhx6j8jq8l4c0000gn/T//cc4IRRw3.s:2884   .rodata:00000096 c_NULL
/var/folders/yp/wn04j3ms5mn9jhx6j8jq8l4c0000gn/T//cc4IRRw3.s:2018   .text:000007da display_writeImage
/var/folders/yp/wn04j3ms5mn9jhx6j8jq8l4c0000gn/T//cc4IRRw3.s:2111   .text:00000834 display_fillZone
/var/folders/yp/wn04j3ms5mn9jhx6j8jq8l4c0000gn/T//cc4IRRw3.s:2246   .text:000008be display_setPixel
/var/folders/yp/wn04j3ms5mn9jhx6j8jq8l4c0000gn/T//cc4IRRw3.s:2298   .text:000008e4 display_addPixel
/var/folders/yp/wn04j3ms5mn9jhx6j8jq8l4c0000gn/T//cc4IRRw3.s:2350   .text:0000090a display_drawCircle
/var/folders/yp/wn04j3ms5mn9jhx6j8jq8l4c0000gn/T//cc4IRRw3.s:2586   .text:00000a72 display_drawLine
/var/folders/yp/wn04j3ms5mn9jhx6j8jq8l4c0000gn/T//cc4IRRw3.s:3424   .rodata:00000222 c_0
/var/folders/yp/wn04j3ms5mn9jhx6j8jq8l4c0000gn/T//cc4IRRw3.s:3409   .rodata:00000217 c_1
/var/folders/yp/wn04j3ms5mn9jhx6j8jq8l4c0000gn/T//cc4IRRw3.s:3394   .rodata:0000020c c_2
/var/folders/yp/wn04j3ms5mn9jhx6j8jq8l4c0000gn/T//cc4IRRw3.s:3379   .rodata:00000201 c_3
/var/folders/yp/wn04j3ms5mn9jhx6j8jq8l4c0000gn/T//cc4IRRw3.s:3364   .rodata:000001f6 c_4
/var/folders/yp/wn04j3ms5mn9jhx6j8jq8l4c0000gn/T//cc4IRRw3.s:3349   .rodata:000001eb c_5
/var/folders/yp/wn04j3ms5mn9jhx6j8jq8l4c0000gn/T//cc4IRRw3.s:3334   .rodata:000001e0 c_6
/var/folders/yp/wn04j3ms5mn9jhx6j8jq8l4c0000gn/T//cc4IRRw3.s:3319   .rodata:000001d5 c_7
/var/folders/yp/wn04j3ms5mn9jhx6j8jq8l4c0000gn/T//cc4IRRw3.s:3304   .rodata:000001ca c_8
/var/folders/yp/wn04j3ms5mn9jhx6j8jq8l4c0000gn/T//cc4IRRw3.s:3289   .rodata:000001bf c_9
/var/folders/yp/wn04j3ms5mn9jhx6j8jq8l4c0000gn/T//cc4IRRw3.s:3274   .rodata:000001b4 c_A
/var/folders/yp/wn04j3ms5mn9jhx6j8jq8l4c0000gn/T//cc4IRRw3.s:3259   .rodata:000001a9 c_B
/var/folders/yp/wn04j3ms5mn9jhx6j8jq8l4c0000gn/T//cc4IRRw3.s:3244   .rodata:0000019e c_C
/var/folders/yp/wn04j3ms5mn9jhx6j8jq8l4c0000gn/T//cc4IRRw3.s:3229   .rodata:00000193 c_D
/var/folders/yp/wn04j3ms5mn9jhx6j8jq8l4c0000gn/T//cc4IRRw3.s:3214   .rodata:00000188 c_E
/var/folders/yp/wn04j3ms5mn9jhx6j8jq8l4c0000gn/T//cc4IRRw3.s:3199   .rodata:0000017d c_F
/var/folders/yp/wn04j3ms5mn9jhx6j8jq8l4c0000gn/T//cc4IRRw3.s:3184   .rodata:00000172 c_G
/var/folders/yp/wn04j3ms5mn9jhx6j8jq8l4c0000gn/T//cc4IRRw3.s:3169   .rodata:00000167 c_H
/var/folders/yp/wn04j3ms5mn9jhx6j8jq8l4c0000gn/T//cc4IRRw3.s:3154   .rodata:0000015c c_I
/var/folders/yp/wn04j3ms5mn9jhx6j8jq8l4c0000gn/T//cc4IRRw3.s:3139   .rodata:00000151 c_J
/var/folders/yp/wn04j3ms5mn9jhx6j8jq8l4c0000gn/T//cc4IRRw3.s:3124   .rodata:00000146 c_K
/var/folders/yp/wn04j3ms5mn9jhx6j8jq8l4c0000gn/T//cc4IRRw3.s:3109   .rodata:0000013b c_L
/var/folders/yp/wn04j3ms5mn9jhx6j8jq8l4c0000gn/T//cc4IRRw3.s:3094   .rodata:00000130 c_M
/var/folders/yp/wn04j3ms5mn9jhx6j8jq8l4c0000gn/T//cc4IRRw3.s:3079   .rodata:00000125 c_N
/var/folders/yp/wn04j3ms5mn9jhx6j8jq8l4c0000gn/T//cc4IRRw3.s:3064   .rodata:0000011a c_O
/var/folders/yp/wn04j3ms5mn9jhx6j8jq8l4c0000gn/T//cc4IRRw3.s:3049   .rodata:0000010f c_P
/var/folders/yp/wn04j3ms5mn9jhx6j8jq8l4c0000gn/T//cc4IRRw3.s:3034   .rodata:00000104 c_Q
/var/folders/yp/wn04j3ms5mn9jhx6j8jq8l4c0000gn/T//cc4IRRw3.s:3019   .rodata:000000f9 c_R
/var/folders/yp/wn04j3ms5mn9jhx6j8jq8l4c0000gn/T//cc4IRRw3.s:3004   .rodata:000000ee c_S
/var/folders/yp/wn04j3ms5mn9jhx6j8jq8l4c0000gn/T//cc4IRRw3.s:2989   .rodata:000000e3 c_T
/var/folders/yp/wn04j3ms5mn9jhx6j8jq8l4c0000gn/T//cc4IRRw3.s:2974   .rodata:000000d8 c_U
/var/folders/yp/wn04j3ms5mn9jhx6j8jq8l4c0000gn/T//cc4IRRw3.s:2959   .rodata:000000cd c_V
/var/folders/yp/wn04j3ms5mn9jhx6j8jq8l4c0000gn/T//cc4IRRw3.s:2944   .rodata:000000c2 c_W
/var/folders/yp/wn04j3ms5mn9jhx6j8jq8l4c0000gn/T//cc4IRRw3.s:2929   .rodata:000000b7 c_X
/var/folders/yp/wn04j3ms5mn9jhx6j8jq8l4c0000gn/T//cc4IRRw3.s:2914   .rodata:000000ac c_Y
/var/folders/yp/wn04j3ms5mn9jhx6j8jq8l4c0000gn/T//cc4IRRw3.s:2899   .rodata:000000a1 c_Z

UNDEFINED SYMBOLS
_display
__do_copy_data
__do_clear_bss
