   1               		.file	"main.c"
   2               	__SP_H__ = 0x3e
   3               	__SP_L__ = 0x3d
   4               	__SREG__ = 0x3f
   5               	__RAMPZ__ = 0x3b
   6               	__tmp_reg__ = 0
   7               	__zero_reg__ = 1
   9               		.text
  10               	.Ltext0:
 140               		.section	.init3,"ax",@progbits
 142               	.global	get_mcusr
 144               	get_mcusr:
   1:/Users/manueldeneu/Documents/projets/dev/Monu100/MicroController/MicMonu100/MicMonu100/main.c **** 
   2:/Users/manueldeneu/Documents/projets/dev/Monu100/MicroController/MicMonu100/MicMonu100/main.c **** #include <stdlib.h> 
   3:/Users/manueldeneu/Documents/projets/dev/Monu100/MicroController/MicMonu100/MicMonu100/main.c **** #include <stdio.h>
   4:/Users/manueldeneu/Documents/projets/dev/Monu100/MicroController/MicMonu100/MicMonu100/main.c **** 
   5:/Users/manueldeneu/Documents/projets/dev/Monu100/MicroController/MicMonu100/MicMonu100/main.c **** #include <avr/io.h>
   6:/Users/manueldeneu/Documents/projets/dev/Monu100/MicroController/MicMonu100/MicMonu100/main.c **** 
   7:/Users/manueldeneu/Documents/projets/dev/Monu100/MicroController/MicMonu100/MicMonu100/main.c **** #define __PROG_TYPES_COMPAT__
   8:/Users/manueldeneu/Documents/projets/dev/Monu100/MicroController/MicMonu100/MicMonu100/main.c **** #include <avr/pgmspace.h>
   9:/Users/manueldeneu/Documents/projets/dev/Monu100/MicroController/MicMonu100/MicMonu100/main.c **** #include <avr/interrupt.h>
  10:/Users/manueldeneu/Documents/projets/dev/Monu100/MicroController/MicMonu100/MicMonu100/main.c **** #include <util/delay.h>
  11:/Users/manueldeneu/Documents/projets/dev/Monu100/MicroController/MicMonu100/MicMonu100/main.c **** #include <avr/wdt.h>
  12:/Users/manueldeneu/Documents/projets/dev/Monu100/MicroController/MicMonu100/MicMonu100/main.c **** #include <math.h>
  13:/Users/manueldeneu/Documents/projets/dev/Monu100/MicroController/MicMonu100/MicMonu100/main.c **** #include <string.h>
  14:/Users/manueldeneu/Documents/projets/dev/Monu100/MicroController/MicMonu100/MicMonu100/main.c **** 
  15:/Users/manueldeneu/Documents/projets/dev/Monu100/MicroController/MicMonu100/MicMonu100/main.c **** #include "PinsConfig.h"
  16:/Users/manueldeneu/Documents/projets/dev/Monu100/MicroController/MicMonu100/MicMonu100/main.c **** 
  17:/Users/manueldeneu/Documents/projets/dev/Monu100/MicroController/MicMonu100/MicMonu100/main.c **** #include "Sensors.h"
  18:/Users/manueldeneu/Documents/projets/dev/Monu100/MicroController/MicMonu100/MicMonu100/main.c **** 
  19:/Users/manueldeneu/Documents/projets/dev/Monu100/MicroController/MicMonu100/MicMonu100/main.c **** #include "Display.h"
  20:/Users/manueldeneu/Documents/projets/dev/Monu100/MicroController/MicMonu100/MicMonu100/main.c **** //#include "Chars.h"
  21:/Users/manueldeneu/Documents/projets/dev/Monu100/MicroController/MicMonu100/MicMonu100/main.c **** #include "Coms.h"
  22:/Users/manueldeneu/Documents/projets/dev/Monu100/MicroController/MicMonu100/MicMonu100/main.c **** 
  23:/Users/manueldeneu/Documents/projets/dev/Monu100/MicroController/MicMonu100/MicMonu100/main.c **** #include "mcp2515.h"
  24:/Users/manueldeneu/Documents/projets/dev/Monu100/MicroController/MicMonu100/MicMonu100/main.c **** #include "CanMessages.h"
  25:/Users/manueldeneu/Documents/projets/dev/Monu100/MicroController/MicMonu100/MicMonu100/main.c **** #include "Constants.h"
  26:/Users/manueldeneu/Documents/projets/dev/Monu100/MicroController/MicMonu100/MicMonu100/main.c **** #include "Errors.h"
  27:/Users/manueldeneu/Documents/projets/dev/Monu100/MicroController/MicMonu100/MicMonu100/main.c **** /*
  28:/Users/manueldeneu/Documents/projets/dev/Monu100/MicroController/MicMonu100/MicMonu100/main.c ****  LEDS
  29:/Users/manueldeneu/Documents/projets/dev/Monu100/MicroController/MicMonu100/MicMonu100/main.c ****  MIC 20 
  30:/Users/manueldeneu/Documents/projets/dev/Monu100/MicroController/MicMonu100/MicMonu100/main.c ****  TLC 30
  31:/Users/manueldeneu/Documents/projets/dev/Monu100/MicroController/MicMonu100/MicMonu100/main.c ****  
  32:/Users/manueldeneu/Documents/projets/dev/Monu100/MicroController/MicMonu100/MicMonu100/main.c ****  CAPTEURS
  33:/Users/manueldeneu/Documents/projets/dev/Monu100/MicroController/MicMonu100/MicMonu100/main.c ****  10 MIC * 15 ADC
  34:/Users/manueldeneu/Documents/projets/dev/Monu100/MicroController/MicMonu100/MicMonu100/main.c ****  
  35:/Users/manueldeneu/Documents/projets/dev/Monu100/MicroController/MicMonu100/MicMonu100/main.c ****  */
  36:/Users/manueldeneu/Documents/projets/dev/Monu100/MicroController/MicMonu100/MicMonu100/main.c **** 
  37:/Users/manueldeneu/Documents/projets/dev/Monu100/MicroController/MicMonu100/MicMonu100/main.c **** 
  38:/Users/manueldeneu/Documents/projets/dev/Monu100/MicroController/MicMonu100/MicMonu100/main.c **** /* *** *** *** *** *** *** *** *** *** */
  39:/Users/manueldeneu/Documents/projets/dev/Monu100/MicroController/MicMonu100/MicMonu100/main.c **** 
  40:/Users/manueldeneu/Documents/projets/dev/Monu100/MicroController/MicMonu100/MicMonu100/main.c **** uint8_t canID = 0;
  41:/Users/manueldeneu/Documents/projets/dev/Monu100/MicroController/MicMonu100/MicMonu100/main.c **** 
  42:/Users/manueldeneu/Documents/projets/dev/Monu100/MicroController/MicMonu100/MicMonu100/main.c **** uint8_t offX = 0;
  43:/Users/manueldeneu/Documents/projets/dev/Monu100/MicroController/MicMonu100/MicMonu100/main.c **** uint8_t offY = 0;
  44:/Users/manueldeneu/Documents/projets/dev/Monu100/MicroController/MicMonu100/MicMonu100/main.c **** 
  45:/Users/manueldeneu/Documents/projets/dev/Monu100/MicroController/MicMonu100/MicMonu100/main.c **** /* *** *** *** *** *** *** *** *** *** */
  46:/Users/manueldeneu/Documents/projets/dev/Monu100/MicroController/MicMonu100/MicMonu100/main.c **** 
  47:/Users/manueldeneu/Documents/projets/dev/Monu100/MicroController/MicMonu100/MicMonu100/main.c **** uint8_t errorCode = 0;
  48:/Users/manueldeneu/Documents/projets/dev/Monu100/MicroController/MicMonu100/MicMonu100/main.c **** uint8_t mcusr_mirror __attribute__ ((section (".noinit")));
  49:/Users/manueldeneu/Documents/projets/dev/Monu100/MicroController/MicMonu100/MicMonu100/main.c **** 
  50:/Users/manueldeneu/Documents/projets/dev/Monu100/MicroController/MicMonu100/MicMonu100/main.c **** void get_mcusr(void) \
  51:/Users/manueldeneu/Documents/projets/dev/Monu100/MicroController/MicMonu100/MicMonu100/main.c **** __attribute__((naked)) \
  52:/Users/manueldeneu/Documents/projets/dev/Monu100/MicroController/MicMonu100/MicMonu100/main.c **** __attribute__((section(".init3")));
  53:/Users/manueldeneu/Documents/projets/dev/Monu100/MicroController/MicMonu100/MicMonu100/main.c **** 
  54:/Users/manueldeneu/Documents/projets/dev/Monu100/MicroController/MicMonu100/MicMonu100/main.c **** void get_mcusr(void)
  55:/Users/manueldeneu/Documents/projets/dev/Monu100/MicroController/MicMonu100/MicMonu100/main.c **** {
 146               	.LM0:
 147               	.LFBB1:
 148               	/* prologue: naked */
 149               	/* frame size = 0 */
 150               	/* stack size = 0 */
 151               	.L__stack_usage = 0
  56:/Users/manueldeneu/Documents/projets/dev/Monu100/MicroController/MicMonu100/MicMonu100/main.c ****     mcusr_mirror = MCUSR;
 153               	.LM1:
 154 0000 84B7      		in r24,0x34
 155 0002 8093 0000 		sts mcusr_mirror,r24
  57:/Users/manueldeneu/Documents/projets/dev/Monu100/MicroController/MicMonu100/MicMonu100/main.c ****     MCUSR = 0;
 157               	.LM2:
 158 0006 14BE      		out 0x34,__zero_reg__
  58:/Users/manueldeneu/Documents/projets/dev/Monu100/MicroController/MicMonu100/MicMonu100/main.c ****     wdt_disable();
 160               	.LM3:
 161 0008 88E1      		ldi r24,lo8(24)
 162               	/* #APP */
 163               	 ;  58 "/Users/manueldeneu/Documents/projets/dev/Monu100/MicroController/MicMonu100/MicMonu100/main
 164 000a 0FB6      		in __tmp_reg__, __SREG__
 165 000c F894      		cli
 166 000e 8093 6000 		sts 96, r24
 167 0012 1092 6000 		sts 96, __zero_reg__
 168 0016 0FBE      		out __SREG__,__tmp_reg__
 169               		
 170               	 ;  0 "" 2
 171               	/* epilogue start */
  59:/Users/manueldeneu/Documents/projets/dev/Monu100/MicroController/MicMonu100/MicMonu100/main.c **** }
 173               	.LM4:
 174               	/* #NOAPP */
 176               	.Lscope1:
 177               		.text
 179               	.global	initDip
 181               	initDip:
  60:/Users/manueldeneu/Documents/projets/dev/Monu100/MicroController/MicMonu100/MicMonu100/main.c **** 
  61:/Users/manueldeneu/Documents/projets/dev/Monu100/MicroController/MicMonu100/MicMonu100/main.c **** /* *** *** *** *** *** *** *** *** *** */
  62:/Users/manueldeneu/Documents/projets/dev/Monu100/MicroController/MicMonu100/MicMonu100/main.c **** 
  63:/Users/manueldeneu/Documents/projets/dev/Monu100/MicroController/MicMonu100/MicMonu100/main.c **** void initDip(void)
  64:/Users/manueldeneu/Documents/projets/dev/Monu100/MicroController/MicMonu100/MicMonu100/main.c **** {
 183               	.LM5:
 184               	.LFBB2:
 185               	/* prologue: function */
 186               	/* frame size = 0 */
 187               	/* stack size = 0 */
 188               	.L__stack_usage = 0
  65:/Users/manueldeneu/Documents/projets/dev/Monu100/MicroController/MicMonu100/MicMonu100/main.c ****     DIP_DDR = 0x00;
 190               	.LM6:
 191 0000 13BA      		out 0x13,__zero_reg__
  66:/Users/manueldeneu/Documents/projets/dev/Monu100/MicroController/MicMonu100/MicMonu100/main.c ****     DIP_PORT =0xFF; // pullup
 193               	.LM7:
 194 0002 8FEF      		ldi r24,lo8(-1)
 195 0004 84BB      		out 0x14,r24
 196 0006 0895      		ret
 198               	.Lscope2:
 200               	.global	readCanID
 202               	readCanID:
  67:/Users/manueldeneu/Documents/projets/dev/Monu100/MicroController/MicMonu100/MicMonu100/main.c **** }
  68:/Users/manueldeneu/Documents/projets/dev/Monu100/MicroController/MicMonu100/MicMonu100/main.c **** 
  69:/Users/manueldeneu/Documents/projets/dev/Monu100/MicroController/MicMonu100/MicMonu100/main.c **** uint8_t readCanID(void)
  70:/Users/manueldeneu/Documents/projets/dev/Monu100/MicroController/MicMonu100/MicMonu100/main.c **** {
 204               	.LM8:
 205               	.LFBB3:
 206               	/* prologue: function */
 207               	/* frame size = 0 */
 208               	/* stack size = 0 */
 209               	.L__stack_usage = 0
  71:/Users/manueldeneu/Documents/projets/dev/Monu100/MicroController/MicMonu100/MicMonu100/main.c ****     return (~PING) &0b00111111;
 211               	.LM9:
 212 0008 82B3      		in r24,0x12
 213 000a 8095      		com r24
  72:/Users/manueldeneu/Documents/projets/dev/Monu100/MicroController/MicMonu100/MicMonu100/main.c **** }
 215               	.LM10:
 216 000c 8F73      		andi r24,lo8(63)
 217 000e 0895      		ret
 219               	.Lscope3:
 221               	.global	computeGeometry
 223               	computeGeometry:
  73:/Users/manueldeneu/Documents/projets/dev/Monu100/MicroController/MicMonu100/MicMonu100/main.c **** 
  74:/Users/manueldeneu/Documents/projets/dev/Monu100/MicroController/MicMonu100/MicMonu100/main.c **** void computeGeometry(void)
  75:/Users/manueldeneu/Documents/projets/dev/Monu100/MicroController/MicMonu100/MicMonu100/main.c **** {
 225               	.LM11:
 226               	.LFBB4:
 227               	/* prologue: function */
 228               	/* frame size = 0 */
 229               	/* stack size = 0 */
 230               	.L__stack_usage = 0
  76:/Users/manueldeneu/Documents/projets/dev/Monu100/MicroController/MicMonu100/MicMonu100/main.c ****     if( canID == 1)
 232               	.LM12:
 233 0010 8091 0000 		lds r24,canID
 234 0014 8130      		cpi r24,lo8(1)
 235 0016 01F4      		brne .L5
  77:/Users/manueldeneu/Documents/projets/dev/Monu100/MicroController/MicMonu100/MicMonu100/main.c ****     {
  78:/Users/manueldeneu/Documents/projets/dev/Monu100/MicroController/MicMonu100/MicMonu100/main.c ****         offX = 0;
 237               	.LM13:
 238 0018 1092 0000 		sts offX,__zero_reg__
 239 001c 00C0      		rjmp .L7
 240               	.L5:
  79:/Users/manueldeneu/Documents/projets/dev/Monu100/MicroController/MicMonu100/MicMonu100/main.c ****         offY = 0;
  80:/Users/manueldeneu/Documents/projets/dev/Monu100/MicroController/MicMonu100/MicMonu100/main.c ****     }
  81:/Users/manueldeneu/Documents/projets/dev/Monu100/MicroController/MicMonu100/MicMonu100/main.c ****     else if( canID == 2)
 242               	.LM14:
 243 001e 8230      		cpi r24,lo8(2)
 244 0020 01F4      		brne .L4
  82:/Users/manueldeneu/Documents/projets/dev/Monu100/MicroController/MicMonu100/MicMonu100/main.c ****     {
  83:/Users/manueldeneu/Documents/projets/dev/Monu100/MicroController/MicMonu100/MicMonu100/main.c ****         offX = 20;
 246               	.LM15:
 247 0022 84E1      		ldi r24,lo8(20)
 248 0024 8093 0000 		sts offX,r24
 249               	.L7:
  84:/Users/manueldeneu/Documents/projets/dev/Monu100/MicroController/MicMonu100/MicMonu100/main.c ****         offY = 0;
 251               	.LM16:
 252 0028 1092 0000 		sts offY,__zero_reg__
 253               	.L4:
 254 002c 0895      		ret
 256               	.Lscope4:
 258               	.global	sendState
 260               	sendState:
  85:/Users/manueldeneu/Documents/projets/dev/Monu100/MicroController/MicMonu100/MicMonu100/main.c ****     }
  86:/Users/manueldeneu/Documents/projets/dev/Monu100/MicroController/MicMonu100/MicMonu100/main.c **** }
  87:/Users/manueldeneu/Documents/projets/dev/Monu100/MicroController/MicMonu100/MicMonu100/main.c **** 
  88:/Users/manueldeneu/Documents/projets/dev/Monu100/MicroController/MicMonu100/MicMonu100/main.c **** inline int getRealX( uint8_t x)
  89:/Users/manueldeneu/Documents/projets/dev/Monu100/MicroController/MicMonu100/MicMonu100/main.c **** {
  90:/Users/manueldeneu/Documents/projets/dev/Monu100/MicroController/MicMonu100/MicMonu100/main.c ****     return x - offX;
  91:/Users/manueldeneu/Documents/projets/dev/Monu100/MicroController/MicMonu100/MicMonu100/main.c **** }
  92:/Users/manueldeneu/Documents/projets/dev/Monu100/MicroController/MicMonu100/MicMonu100/main.c **** 
  93:/Users/manueldeneu/Documents/projets/dev/Monu100/MicroController/MicMonu100/MicMonu100/main.c **** inline int getRealY( uint8_t y)
  94:/Users/manueldeneu/Documents/projets/dev/Monu100/MicroController/MicMonu100/MicMonu100/main.c **** {
  95:/Users/manueldeneu/Documents/projets/dev/Monu100/MicroController/MicMonu100/MicMonu100/main.c ****     return y - offY;
  96:/Users/manueldeneu/Documents/projets/dev/Monu100/MicroController/MicMonu100/MicMonu100/main.c **** }
  97:/Users/manueldeneu/Documents/projets/dev/Monu100/MicroController/MicMonu100/MicMonu100/main.c **** 
  98:/Users/manueldeneu/Documents/projets/dev/Monu100/MicroController/MicMonu100/MicMonu100/main.c **** inline int getMainX(uint8_t x)
  99:/Users/manueldeneu/Documents/projets/dev/Monu100/MicroController/MicMonu100/MicMonu100/main.c **** {
 100:/Users/manueldeneu/Documents/projets/dev/Monu100/MicroController/MicMonu100/MicMonu100/main.c ****     return  x+offX;
 101:/Users/manueldeneu/Documents/projets/dev/Monu100/MicroController/MicMonu100/MicMonu100/main.c **** }
 102:/Users/manueldeneu/Documents/projets/dev/Monu100/MicroController/MicMonu100/MicMonu100/main.c **** 
 103:/Users/manueldeneu/Documents/projets/dev/Monu100/MicroController/MicMonu100/MicMonu100/main.c **** inline int getMainY(uint8_t y)
 104:/Users/manueldeneu/Documents/projets/dev/Monu100/MicroController/MicMonu100/MicMonu100/main.c **** {
 105:/Users/manueldeneu/Documents/projets/dev/Monu100/MicroController/MicMonu100/MicMonu100/main.c ****     return  y+offY;
 106:/Users/manueldeneu/Documents/projets/dev/Monu100/MicroController/MicMonu100/MicMonu100/main.c **** }
 107:/Users/manueldeneu/Documents/projets/dev/Monu100/MicroController/MicMonu100/MicMonu100/main.c **** 
 108:/Users/manueldeneu/Documents/projets/dev/Monu100/MicroController/MicMonu100/MicMonu100/main.c **** /* *** *** *** *** *** *** *** *** *** */
 109:/Users/manueldeneu/Documents/projets/dev/Monu100/MicroController/MicMonu100/MicMonu100/main.c **** 
 110:/Users/manueldeneu/Documents/projets/dev/Monu100/MicroController/MicMonu100/MicMonu100/main.c **** void sendState( void )
 111:/Users/manueldeneu/Documents/projets/dev/Monu100/MicroController/MicMonu100/MicMonu100/main.c **** {
 262               	.LM17:
 263               	.LFBB5:
 264 002e CF93      		push r28
 265 0030 DF93      		push r29
 266 0032 CDB7      		in r28,__SP_L__
 267 0034 DEB7      		in r29,__SP_H__
 268 0036 2C97      		sbiw r28,12
 269 0038 0FB6      		in __tmp_reg__,__SREG__
 270 003a F894      		cli
 271 003c DEBF      		out __SP_H__,r29
 272 003e 0FBE      		out __SREG__,__tmp_reg__
 273 0040 CDBF      		out __SP_L__,r28
 274               	/* prologue: function */
 275               	/* frame size = 12 */
 276               	/* stack size = 14 */
 277               	.L__stack_usage = 14
 112:/Users/manueldeneu/Documents/projets/dev/Monu100/MicroController/MicMonu100/MicMonu100/main.c ****     CANMessage m;
 113:/Users/manueldeneu/Documents/projets/dev/Monu100/MicroController/MicMonu100/MicMonu100/main.c ****     m.id = CAN_STATE_ID;
 279               	.LM18:
 280 0042 81E0      		ldi r24,lo8(1)
 281 0044 90E0      		ldi r25,0
 282 0046 9A83      		std Y+2,r25
 283 0048 8983      		std Y+1,r24
 114:/Users/manueldeneu/Documents/projets/dev/Monu100/MicroController/MicMonu100/MicMonu100/main.c ****     m.length = 3;
 285               	.LM19:
 286 004a 83E0      		ldi r24,lo8(3)
 287 004c 8C83      		std Y+4,r24
 115:/Users/manueldeneu/Documents/projets/dev/Monu100/MicroController/MicMonu100/MicMonu100/main.c ****     m.rtr = 0;
 289               	.LM20:
 290 004e 1B82      		std Y+3,__zero_reg__
 116:/Users/manueldeneu/Documents/projets/dev/Monu100/MicroController/MicMonu100/MicMonu100/main.c ****     m.data[0] = canID;
 292               	.LM21:
 293 0050 8091 0000 		lds r24,canID
 294 0054 8D83      		std Y+5,r24
 117:/Users/manueldeneu/Documents/projets/dev/Monu100/MicroController/MicMonu100/MicMonu100/main.c ****     m.data[1] = mcusr_mirror;
 296               	.LM22:
 297 0056 8091 0000 		lds r24,mcusr_mirror
 298 005a 8E83      		std Y+6,r24
 118:/Users/manueldeneu/Documents/projets/dev/Monu100/MicroController/MicMonu100/MicMonu100/main.c ****     m.data[2] = errorCode;
 300               	.LM23:
 301 005c 8091 0000 		lds r24,errorCode
 302 0060 8F83      		std Y+7,r24
 119:/Users/manueldeneu/Documents/projets/dev/Monu100/MicroController/MicMonu100/MicMonu100/main.c ****     can_send_message( &m);
 304               	.LM24:
 305 0062 CE01      		movw r24,r28
 306 0064 0196      		adiw r24,1
 307 0066 0E94 0000 		call can_send_message
 308               	/* epilogue start */
 120:/Users/manueldeneu/Documents/projets/dev/Monu100/MicroController/MicMonu100/MicMonu100/main.c **** }
 310               	.LM25:
 311 006a 2C96      		adiw r28,12
 312 006c 0FB6      		in __tmp_reg__,__SREG__
 313 006e F894      		cli
 314 0070 DEBF      		out __SP_H__,r29
 315 0072 0FBE      		out __SREG__,__tmp_reg__
 316 0074 CDBF      		out __SP_L__,r28
 317 0076 DF91      		pop r29
 318 0078 CF91      		pop r28
 319 007a 0895      		ret
 324               	.Lscope5:
 326               	.global	checkErrors
 328               	checkErrors:
 121:/Users/manueldeneu/Documents/projets/dev/Monu100/MicroController/MicMonu100/MicMonu100/main.c **** 
 122:/Users/manueldeneu/Documents/projets/dev/Monu100/MicroController/MicMonu100/MicMonu100/main.c **** 
 123:/Users/manueldeneu/Documents/projets/dev/Monu100/MicroController/MicMonu100/MicMonu100/main.c **** /* *** *** *** *** *** *** *** *** *** */
 124:/Users/manueldeneu/Documents/projets/dev/Monu100/MicroController/MicMonu100/MicMonu100/main.c **** 
 125:/Users/manueldeneu/Documents/projets/dev/Monu100/MicroController/MicMonu100/MicMonu100/main.c **** Display _display;
 126:/Users/manueldeneu/Documents/projets/dev/Monu100/MicroController/MicMonu100/MicMonu100/main.c **** Sensors _sensors;
 127:/Users/manueldeneu/Documents/projets/dev/Monu100/MicroController/MicMonu100/MicMonu100/main.c **** 
 128:/Users/manueldeneu/Documents/projets/dev/Monu100/MicroController/MicMonu100/MicMonu100/main.c **** 
 129:/Users/manueldeneu/Documents/projets/dev/Monu100/MicroController/MicMonu100/MicMonu100/main.c **** 
 130:/Users/manueldeneu/Documents/projets/dev/Monu100/MicroController/MicMonu100/MicMonu100/main.c **** void checkErrors(void)
 131:/Users/manueldeneu/Documents/projets/dev/Monu100/MicroController/MicMonu100/MicMonu100/main.c **** {
 330               	.LM26:
 331               	.LFBB6:
 332               	/* prologue: function */
 333               	/* frame size = 0 */
 334               	/* stack size = 0 */
 335               	.L__stack_usage = 0
 336 007c 0895      		ret
 338               	.Lscope6:
 340               	.global	updateScreen
 342               	updateScreen:
 132:/Users/manueldeneu/Documents/projets/dev/Monu100/MicroController/MicMonu100/MicMonu100/main.c ****     /*
 133:/Users/manueldeneu/Documents/projets/dev/Monu100/MicroController/MicMonu100/MicMonu100/main.c ****      #define JTRF    4
 134:/Users/manueldeneu/Documents/projets/dev/Monu100/MicroController/MicMonu100/MicMonu100/main.c ****      WDRF  bit  3 : WDRF: Watchdog System Reset Flag
 135:/Users/manueldeneu/Documents/projets/dev/Monu100/MicroController/MicMonu100/MicMonu100/main.c ****      This bit is set if a Watchdog System Reset occurs. The bit is reset by a Power-on Reset, or by
 136:/Users/manueldeneu/Documents/projets/dev/Monu100/MicroController/MicMonu100/MicMonu100/main.c ****      
 137:/Users/manueldeneu/Documents/projets/dev/Monu100/MicroController/MicMonu100/MicMonu100/main.c ****      BORF  bit  2 : BORF: Brown-out Reset Flag
 138:/Users/manueldeneu/Documents/projets/dev/Monu100/MicroController/MicMonu100/MicMonu100/main.c ****      This bit is set if a Brown-out Reset occurs. The bit is reset by a Power-on Reset, or by writi
 139:/Users/manueldeneu/Documents/projets/dev/Monu100/MicroController/MicMonu100/MicMonu100/main.c ****      
 140:/Users/manueldeneu/Documents/projets/dev/Monu100/MicroController/MicMonu100/MicMonu100/main.c ****      EXTRF bit 1  : EXT external Reset Flag
 141:/Users/manueldeneu/Documents/projets/dev/Monu100/MicroController/MicMonu100/MicMonu100/main.c ****      This bit is set if an External Reset occurs. The bit is reset by a Power-on Reset, or by writi
 142:/Users/manueldeneu/Documents/projets/dev/Monu100/MicroController/MicMonu100/MicMonu100/main.c ****      
 143:/Users/manueldeneu/Documents/projets/dev/Monu100/MicroController/MicMonu100/MicMonu100/main.c ****      PORF bit  0 : PORF: Power-on Reset Flag
 144:/Users/manueldeneu/Documents/projets/dev/Monu100/MicroController/MicMonu100/MicMonu100/main.c ****      This bit is set if a Power-on Reset occurs. The bit is reset only by writing a logic zero to t
 145:/Users/manueldeneu/Documents/projets/dev/Monu100/MicroController/MicMonu100/MicMonu100/main.c ****     */
 146:/Users/manueldeneu/Documents/projets/dev/Monu100/MicroController/MicMonu100/MicMonu100/main.c **** }
 147:/Users/manueldeneu/Documents/projets/dev/Monu100/MicroController/MicMonu100/MicMonu100/main.c **** 
 148:/Users/manueldeneu/Documents/projets/dev/Monu100/MicroController/MicMonu100/MicMonu100/main.c **** 
 149:/Users/manueldeneu/Documents/projets/dev/Monu100/MicroController/MicMonu100/MicMonu100/main.c **** 
 150:/Users/manueldeneu/Documents/projets/dev/Monu100/MicroController/MicMonu100/MicMonu100/main.c **** /* *** *** *** *** *** *** *** *** *** *** *** *** *** *** *** *** *** *** *** *** *** *** *** *** 
 151:/Users/manueldeneu/Documents/projets/dev/Monu100/MicroController/MicMonu100/MicMonu100/main.c **** /* *** *** *** *** *** *** *** *** *** *** *** *** *** *** *** *** *** *** *** *** *** *** *** *** 
 152:/Users/manueldeneu/Documents/projets/dev/Monu100/MicroController/MicMonu100/MicMonu100/main.c **** 
 153:/Users/manueldeneu/Documents/projets/dev/Monu100/MicroController/MicMonu100/MicMonu100/main.c **** int16_t textX = 0;
 154:/Users/manueldeneu/Documents/projets/dev/Monu100/MicroController/MicMonu100/MicMonu100/main.c **** int16_t textY = 0;
 155:/Users/manueldeneu/Documents/projets/dev/Monu100/MicroController/MicMonu100/MicMonu100/main.c **** 
 156:/Users/manueldeneu/Documents/projets/dev/Monu100/MicroController/MicMonu100/MicMonu100/main.c **** uint8_t sep   = 0;
 157:/Users/manueldeneu/Documents/projets/dev/Monu100/MicroController/MicMonu100/MicMonu100/main.c **** int8_t  angle = 0;
 158:/Users/manueldeneu/Documents/projets/dev/Monu100/MicroController/MicMonu100/MicMonu100/main.c **** char text[TEXT_LENGTH_MAX];
 159:/Users/manueldeneu/Documents/projets/dev/Monu100/MicroController/MicMonu100/MicMonu100/main.c **** char tempText[TEXT_LENGTH_MAX];
 160:/Users/manueldeneu/Documents/projets/dev/Monu100/MicroController/MicMonu100/MicMonu100/main.c **** 
 161:/Users/manueldeneu/Documents/projets/dev/Monu100/MicroController/MicMonu100/MicMonu100/main.c **** volatile uint8_t textChanging = 0;
 162:/Users/manueldeneu/Documents/projets/dev/Monu100/MicroController/MicMonu100/MicMonu100/main.c **** volatile uint8_t textLength   = 0;
 163:/Users/manueldeneu/Documents/projets/dev/Monu100/MicroController/MicMonu100/MicMonu100/main.c **** 
 164:/Users/manueldeneu/Documents/projets/dev/Monu100/MicroController/MicMonu100/MicMonu100/main.c **** void updateScreen(void)
 165:/Users/manueldeneu/Documents/projets/dev/Monu100/MicroController/MicMonu100/MicMonu100/main.c **** {
 344               	.LM27:
 345               	.LFBB7:
 347               	.LM28:
 348 007e 0F93      		push r16
 349               	/* prologue: function */
 350               	/* frame size = 0 */
 351               	/* stack size = 1 */
 352               	.L__stack_usage = 1
 353               	.LBB38:
 354               	.LBB39:
 356               	.Ltext1:
   1:/Users/manueldeneu/Documents/projets/dev/Monu100/MicroController/MicMonu100/MicMonu100/Display.h **** //
   2:/Users/manueldeneu/Documents/projets/dev/Monu100/MicroController/MicMonu100/MicMonu100/Display.h **** //  Display.h
   3:/Users/manueldeneu/Documents/projets/dev/Monu100/MicroController/MicMonu100/MicMonu100/Display.h **** //  MicMonu100
   4:/Users/manueldeneu/Documents/projets/dev/Monu100/MicroController/MicMonu100/MicMonu100/Display.h **** //
   5:/Users/manueldeneu/Documents/projets/dev/Monu100/MicroController/MicMonu100/MicMonu100/Display.h **** //  Created by Manuel Deneu on 01/03/15.
   6:/Users/manueldeneu/Documents/projets/dev/Monu100/MicroController/MicMonu100/MicMonu100/Display.h **** //  Copyright (c) 2015 Manuel Deneu. All rights reserved.
   7:/Users/manueldeneu/Documents/projets/dev/Monu100/MicroController/MicMonu100/MicMonu100/Display.h **** //
   8:/Users/manueldeneu/Documents/projets/dev/Monu100/MicroController/MicMonu100/MicMonu100/Display.h **** 
   9:/Users/manueldeneu/Documents/projets/dev/Monu100/MicroController/MicMonu100/MicMonu100/Display.h **** #ifndef MicMonu100_Display_h
  10:/Users/manueldeneu/Documents/projets/dev/Monu100/MicroController/MicMonu100/MicMonu100/Display.h **** #define MicMonu100_Display_h
  11:/Users/manueldeneu/Documents/projets/dev/Monu100/MicroController/MicMonu100/MicMonu100/Display.h **** 
  12:/Users/manueldeneu/Documents/projets/dev/Monu100/MicroController/MicMonu100/MicMonu100/Display.h **** 
  13:/Users/manueldeneu/Documents/projets/dev/Monu100/MicroController/MicMonu100/MicMonu100/Display.h **** #define X_TLC_MAX 30
  14:/Users/manueldeneu/Documents/projets/dev/Monu100/MicroController/MicMonu100/MicMonu100/Display.h **** #define Y_MIC_MAX 20
  15:/Users/manueldeneu/Documents/projets/dev/Monu100/MicroController/MicMonu100/MicMonu100/Display.h **** 
  16:/Users/manueldeneu/Documents/projets/dev/Monu100/MicroController/MicMonu100/MicMonu100/Display.h **** #define PIXEL_MAX_VALUE  100 //112
  17:/Users/manueldeneu/Documents/projets/dev/Monu100/MicroController/MicMonu100/MicMonu100/Display.h **** 
  18:/Users/manueldeneu/Documents/projets/dev/Monu100/MicroController/MicMonu100/MicMonu100/Display.h **** 
  19:/Users/manueldeneu/Documents/projets/dev/Monu100/MicroController/MicMonu100/MicMonu100/Display.h **** 
  20:/Users/manueldeneu/Documents/projets/dev/Monu100/MicroController/MicMonu100/MicMonu100/Display.h **** 
  21:/Users/manueldeneu/Documents/projets/dev/Monu100/MicroController/MicMonu100/MicMonu100/Display.h **** /* **** **** **** **** **** **** **** **** **** **** **** */
  22:/Users/manueldeneu/Documents/projets/dev/Monu100/MicroController/MicMonu100/MicMonu100/Display.h **** /*
  23:/Users/manueldeneu/Documents/projets/dev/Monu100/MicroController/MicMonu100/MicMonu100/Display.h ****  
  24:/Users/manueldeneu/Documents/projets/dev/Monu100/MicroController/MicMonu100/MicMonu100/Display.h ****  inversion x<->y entre le buffer et la matrice :
  25:/Users/manueldeneu/Documents/projets/dev/Monu100/MicroController/MicMonu100/MicMonu100/Display.h ****     Pour l'instant l'inversion est compensée dans l'interface ( fonctions display_*** )
  26:/Users/manueldeneu/Documents/projets/dev/Monu100/MicroController/MicMonu100/MicMonu100/Display.h ****  */
  27:/Users/manueldeneu/Documents/projets/dev/Monu100/MicroController/MicMonu100/MicMonu100/Display.h **** struct _Display
  28:/Users/manueldeneu/Documents/projets/dev/Monu100/MicroController/MicMonu100/MicMonu100/Display.h **** {
  29:/Users/manueldeneu/Documents/projets/dev/Monu100/MicroController/MicMonu100/MicMonu100/Display.h ****     uint8_t buff_text[ X_TLC_MAX ][ Y_MIC_MAX ];
  30:/Users/manueldeneu/Documents/projets/dev/Monu100/MicroController/MicMonu100/MicMonu100/Display.h ****     uint8_t buff_draw[ X_TLC_MAX ][ Y_MIC_MAX ];
  31:/Users/manueldeneu/Documents/projets/dev/Monu100/MicroController/MicMonu100/MicMonu100/Display.h **** 
  32:/Users/manueldeneu/Documents/projets/dev/Monu100/MicroController/MicMonu100/MicMonu100/Display.h **** 
  33:/Users/manueldeneu/Documents/projets/dev/Monu100/MicroController/MicMonu100/MicMonu100/Display.h **** 
  34:/Users/manueldeneu/Documents/projets/dev/Monu100/MicroController/MicMonu100/MicMonu100/Display.h ****     /* This color will be used when clearing the display */
  35:/Users/manueldeneu/Documents/projets/dev/Monu100/MicroController/MicMonu100/MicMonu100/Display.h ****     uint8_t backgroundColor;
  36:/Users/manueldeneu/Documents/projets/dev/Monu100/MicroController/MicMonu100/MicMonu100/Display.h ****     uint8_t fillColor;
  37:/Users/manueldeneu/Documents/projets/dev/Monu100/MicroController/MicMonu100/MicMonu100/Display.h ****     uint8_t fontColor;
  38:/Users/manueldeneu/Documents/projets/dev/Monu100/MicroController/MicMonu100/MicMonu100/Display.h ****     
  39:/Users/manueldeneu/Documents/projets/dev/Monu100/MicroController/MicMonu100/MicMonu100/Display.h ****     
  40:/Users/manueldeneu/Documents/projets/dev/Monu100/MicroController/MicMonu100/MicMonu100/Display.h ****     uint8_t needsDisplay; // byte 0
  41:/Users/manueldeneu/Documents/projets/dev/Monu100/MicroController/MicMonu100/MicMonu100/Display.h ****     
  42:/Users/manueldeneu/Documents/projets/dev/Monu100/MicroController/MicMonu100/MicMonu100/Display.h ****     /* This flag will be set to 1 during the drawing interupt */
  43:/Users/manueldeneu/Documents/projets/dev/Monu100/MicroController/MicMonu100/MicMonu100/Display.h ****     volatile uint8_t isDrawing;
  44:/Users/manueldeneu/Documents/projets/dev/Monu100/MicroController/MicMonu100/MicMonu100/Display.h ****     
  45:/Users/manueldeneu/Documents/projets/dev/Monu100/MicroController/MicMonu100/MicMonu100/Display.h **** };
  46:/Users/manueldeneu/Documents/projets/dev/Monu100/MicroController/MicMonu100/MicMonu100/Display.h **** 
  47:/Users/manueldeneu/Documents/projets/dev/Monu100/MicroController/MicMonu100/MicMonu100/Display.h **** typedef struct _Display Display;
  48:/Users/manueldeneu/Documents/projets/dev/Monu100/MicroController/MicMonu100/MicMonu100/Display.h **** 
  49:/Users/manueldeneu/Documents/projets/dev/Monu100/MicroController/MicMonu100/MicMonu100/Display.h **** /* **** **** **** **** **** **** **** **** **** **** **** **** **** */
  50:/Users/manueldeneu/Documents/projets/dev/Monu100/MicroController/MicMonu100/MicMonu100/Display.h **** 
  51:/Users/manueldeneu/Documents/projets/dev/Monu100/MicroController/MicMonu100/MicMonu100/Display.h **** inline uint8_t inBouds( int8_t x , int8_t y)
  52:/Users/manueldeneu/Documents/projets/dev/Monu100/MicroController/MicMonu100/MicMonu100/Display.h **** {
  53:/Users/manueldeneu/Documents/projets/dev/Monu100/MicroController/MicMonu100/MicMonu100/Display.h ****     return    ( x >=0 && x <X_TLC_MAX )
  54:/Users/manueldeneu/Documents/projets/dev/Monu100/MicroController/MicMonu100/MicMonu100/Display.h ****            && ( y >=0 && y <Y_MIC_MAX );
  55:/Users/manueldeneu/Documents/projets/dev/Monu100/MicroController/MicMonu100/MicMonu100/Display.h **** }
  56:/Users/manueldeneu/Documents/projets/dev/Monu100/MicroController/MicMonu100/MicMonu100/Display.h **** 
  57:/Users/manueldeneu/Documents/projets/dev/Monu100/MicroController/MicMonu100/MicMonu100/Display.h **** //uint8_t strLen( const char *s);
  58:/Users/manueldeneu/Documents/projets/dev/Monu100/MicroController/MicMonu100/MicMonu100/Display.h **** 
  59:/Users/manueldeneu/Documents/projets/dev/Monu100/MicroController/MicMonu100/MicMonu100/Display.h **** uint8_t getCharWidth( void );
  60:/Users/manueldeneu/Documents/projets/dev/Monu100/MicroController/MicMonu100/MicMonu100/Display.h **** uint8_t getCharHeight( void );
  61:/Users/manueldeneu/Documents/projets/dev/Monu100/MicroController/MicMonu100/MicMonu100/Display.h **** 
  62:/Users/manueldeneu/Documents/projets/dev/Monu100/MicroController/MicMonu100/MicMonu100/Display.h **** void update(void);
  63:/Users/manueldeneu/Documents/projets/dev/Monu100/MicroController/MicMonu100/MicMonu100/Display.h **** /* **** **** **** **** **** **** **** **** **** **** **** **** **** */
  64:/Users/manueldeneu/Documents/projets/dev/Monu100/MicroController/MicMonu100/MicMonu100/Display.h **** 
  65:/Users/manueldeneu/Documents/projets/dev/Monu100/MicroController/MicMonu100/MicMonu100/Display.h **** void display_init( Display *display);
  66:/Users/manueldeneu/Documents/projets/dev/Monu100/MicroController/MicMonu100/MicMonu100/Display.h **** 
  67:/Users/manueldeneu/Documents/projets/dev/Monu100/MicroController/MicMonu100/MicMonu100/Display.h **** /* getters/setters */
  68:/Users/manueldeneu/Documents/projets/dev/Monu100/MicroController/MicMonu100/MicMonu100/Display.h **** 
  69:/Users/manueldeneu/Documents/projets/dev/Monu100/MicroController/MicMonu100/MicMonu100/Display.h **** void display_setFontColor( Display *display ,uint8_t color);
  70:/Users/manueldeneu/Documents/projets/dev/Monu100/MicroController/MicMonu100/MicMonu100/Display.h **** void display_setFillColor( Display *display ,uint8_t color);
  71:/Users/manueldeneu/Documents/projets/dev/Monu100/MicroController/MicMonu100/MicMonu100/Display.h **** 
  72:/Users/manueldeneu/Documents/projets/dev/Monu100/MicroController/MicMonu100/MicMonu100/Display.h **** // inv x<->y
  73:/Users/manueldeneu/Documents/projets/dev/Monu100/MicroController/MicMonu100/MicMonu100/Display.h **** void display_clearZoneDraw     ( Display *display , const int8_t x , const int8_t y, const uint8_t 
  74:/Users/manueldeneu/Documents/projets/dev/Monu100/MicroController/MicMonu100/MicMonu100/Display.h **** void display_clearZoneText     ( Display *display , const int8_t x , const int8_t y, const uint8_t 
  75:/Users/manueldeneu/Documents/projets/dev/Monu100/MicroController/MicMonu100/MicMonu100/Display.h **** 
  76:/Users/manueldeneu/Documents/projets/dev/Monu100/MicroController/MicMonu100/MicMonu100/Display.h **** inline void display_clearAll         ( Display *display)
  77:/Users/manueldeneu/Documents/projets/dev/Monu100/MicroController/MicMonu100/MicMonu100/Display.h **** {
  78:/Users/manueldeneu/Documents/projets/dev/Monu100/MicroController/MicMonu100/MicMonu100/Display.h ****     display_clearZoneDraw( display ,0,0 , X_TLC_MAX ,Y_MIC_MAX  );
  79:/Users/manueldeneu/Documents/projets/dev/Monu100/MicroController/MicMonu100/MicMonu100/Display.h ****     display_clearZoneText( display ,0,0 , X_TLC_MAX ,Y_MIC_MAX  );
  80:/Users/manueldeneu/Documents/projets/dev/Monu100/MicroController/MicMonu100/MicMonu100/Display.h **** }
  81:/Users/manueldeneu/Documents/projets/dev/Monu100/MicroController/MicMonu100/MicMonu100/Display.h **** 
  82:/Users/manueldeneu/Documents/projets/dev/Monu100/MicroController/MicMonu100/MicMonu100/Display.h **** inline void display_clearText( Display *display)
  83:/Users/manueldeneu/Documents/projets/dev/Monu100/MicroController/MicMonu100/MicMonu100/Display.h **** {
  84:/Users/manueldeneu/Documents/projets/dev/Monu100/MicroController/MicMonu100/MicMonu100/Display.h ****     display_clearZoneText( display ,0,0 , X_TLC_MAX ,Y_MIC_MAX  );
  85:/Users/manueldeneu/Documents/projets/dev/Monu100/MicroController/MicMonu100/MicMonu100/Display.h **** }
  86:/Users/manueldeneu/Documents/projets/dev/Monu100/MicroController/MicMonu100/MicMonu100/Display.h **** 
  87:/Users/manueldeneu/Documents/projets/dev/Monu100/MicroController/MicMonu100/MicMonu100/Display.h **** inline void display_clearDraw( Display *display)
  88:/Users/manueldeneu/Documents/projets/dev/Monu100/MicroController/MicMonu100/MicMonu100/Display.h **** {
  89:/Users/manueldeneu/Documents/projets/dev/Monu100/MicroController/MicMonu100/MicMonu100/Display.h ****     display_clearZoneDraw( display ,0,0 , X_TLC_MAX ,Y_MIC_MAX  );
 358               	.LM29:
 359 0080 04E1      		ldi r16,lo8(20)
 360 0082 2EE1      		ldi r18,lo8(30)
 361 0084 40E0      		ldi r20,0
 362 0086 60E0      		ldi r22,0
 363 0088 80E0      		ldi r24,lo8(_display)
 364 008a 90E0      		ldi r25,hi8(_display)
 365 008c 0E94 0000 		call display_clearZoneDraw
 366               	.LBE39:
 367               	.LBE38:
 368               	.LBB40:
 369               	.LBB41:
  84:/Users/manueldeneu/Documents/projets/dev/Monu100/MicroController/MicMonu100/MicMonu100/Display.h ****     display_clearZoneText( display ,0,0 , X_TLC_MAX ,Y_MIC_MAX  );
 371               	.LM30:
 372 0090 2EE1      		ldi r18,lo8(30)
 373 0092 40E0      		ldi r20,0
 374 0094 60E0      		ldi r22,0
 375 0096 80E0      		ldi r24,lo8(_display)
 376 0098 90E0      		ldi r25,hi8(_display)
 377 009a 0E94 0000 		call display_clearZoneText
 378               	.LBE41:
 379               	.LBE40:
 381               	.Ltext2:
 166:/Users/manueldeneu/Documents/projets/dev/Monu100/MicroController/MicMonu100/MicMonu100/main.c ****     display_clearDraw(&_display);
 167:/Users/manueldeneu/Documents/projets/dev/Monu100/MicroController/MicMonu100/MicMonu100/main.c ****     display_clearText( &_display);
 168:/Users/manueldeneu/Documents/projets/dev/Monu100/MicroController/MicMonu100/MicMonu100/main.c **** 
 169:/Users/manueldeneu/Documents/projets/dev/Monu100/MicroController/MicMonu100/MicMonu100/main.c ****     display_setFillColor(&_display, 255);
 383               	.LM31:
 384 009e 6FEF      		ldi r22,lo8(-1)
 385 00a0 80E0      		ldi r24,lo8(_display)
 386 00a2 90E0      		ldi r25,hi8(_display)
 387               	/* epilogue start */
 170:/Users/manueldeneu/Documents/projets/dev/Monu100/MicroController/MicMonu100/MicMonu100/main.c **** 
 171:/Users/manueldeneu/Documents/projets/dev/Monu100/MicroController/MicMonu100/MicMonu100/main.c ****     //display_write(&_display, text, textX-sep, textY, 1 , 1 /* ,-angle*/);
 172:/Users/manueldeneu/Documents/projets/dev/Monu100/MicroController/MicMonu100/MicMonu100/main.c ****     //display_write(&_display, text, textX+sep, textY, 1 , 2 /*,angle*/);
 173:/Users/manueldeneu/Documents/projets/dev/Monu100/MicroController/MicMonu100/MicMonu100/main.c **** /*
 174:/Users/manueldeneu/Documents/projets/dev/Monu100/MicroController/MicMonu100/MicMonu100/main.c ****  hory
 175:/Users/manueldeneu/Documents/projets/dev/Monu100/MicroController/MicMonu100/MicMonu100/main.c ****     display_write(&_display, text, textX-sep, textY, 0 , 1);
 176:/Users/manueldeneu/Documents/projets/dev/Monu100/MicroController/MicMonu100/MicMonu100/main.c ****     display_write(&_display, text, textX+sep, textY, 0 , 2);
 177:/Users/manueldeneu/Documents/projets/dev/Monu100/MicroController/MicMonu100/MicMonu100/main.c ****  */
 178:/Users/manueldeneu/Documents/projets/dev/Monu100/MicroController/MicMonu100/MicMonu100/main.c **** }
 389               	.LM32:
 390 00a4 0F91      		pop r16
 169:/Users/manueldeneu/Documents/projets/dev/Monu100/MicroController/MicMonu100/MicMonu100/main.c ****     display_setFillColor(&_display, 255);
 392               	.LM33:
 393 00a6 0C94 0000 		jmp display_setFillColor
 395               	.Lscope7:
 397               	.global	call
 399               	call:
 179:/Users/manueldeneu/Documents/projets/dev/Monu100/MicroController/MicMonu100/MicMonu100/main.c **** 
 180:/Users/manueldeneu/Documents/projets/dev/Monu100/MicroController/MicMonu100/MicMonu100/main.c **** void call(void)
 181:/Users/manueldeneu/Documents/projets/dev/Monu100/MicroController/MicMonu100/MicMonu100/main.c **** {
 401               	.LM34:
 402               	.LFBB8:
 403 00aa CF93      		push r28
 404 00ac DF93      		push r29
 405 00ae CDB7      		in r28,__SP_L__
 406 00b0 DEB7      		in r29,__SP_H__
 407 00b2 2C97      		sbiw r28,12
 408 00b4 0FB6      		in __tmp_reg__,__SREG__
 409 00b6 F894      		cli
 410 00b8 DEBF      		out __SP_H__,r29
 411 00ba 0FBE      		out __SREG__,__tmp_reg__
 412 00bc CDBF      		out __SP_L__,r28
 413               	/* prologue: function */
 414               	/* frame size = 12 */
 415               	/* stack size = 14 */
 416               	.L__stack_usage = 14
 182:/Users/manueldeneu/Documents/projets/dev/Monu100/MicroController/MicMonu100/MicMonu100/main.c **** 
 183:/Users/manueldeneu/Documents/projets/dev/Monu100/MicroController/MicMonu100/MicMonu100/main.c **** 
 184:/Users/manueldeneu/Documents/projets/dev/Monu100/MicroController/MicMonu100/MicMonu100/main.c ****     
 185:/Users/manueldeneu/Documents/projets/dev/Monu100/MicroController/MicMonu100/MicMonu100/main.c ****     
 186:/Users/manueldeneu/Documents/projets/dev/Monu100/MicroController/MicMonu100/MicMonu100/main.c **** 
 187:/Users/manueldeneu/Documents/projets/dev/Monu100/MicroController/MicMonu100/MicMonu100/main.c ****     CANMessage message;
 188:/Users/manueldeneu/Documents/projets/dev/Monu100/MicroController/MicMonu100/MicMonu100/main.c ****     message.id = CAN_BLOB_ID;
 418               	.LM35:
 419 00be 82E0      		ldi r24,lo8(2)
 420 00c0 90E0      		ldi r25,0
 421 00c2 9A83      		std Y+2,r25
 422 00c4 8983      		std Y+1,r24
 189:/Users/manueldeneu/Documents/projets/dev/Monu100/MicroController/MicMonu100/MicMonu100/main.c ****     message.rtr = 0;
 424               	.LM36:
 425 00c6 1B82      		std Y+3,__zero_reg__
 190:/Users/manueldeneu/Documents/projets/dev/Monu100/MicroController/MicMonu100/MicMonu100/main.c ****     message.length = 5;
 427               	.LM37:
 428 00c8 85E0      		ldi r24,lo8(5)
 429 00ca 8C83      		std Y+4,r24
 191:/Users/manueldeneu/Documents/projets/dev/Monu100/MicroController/MicMonu100/MicMonu100/main.c ****     message.data[0] = canID;
 431               	.LM38:
 432 00cc 8091 0000 		lds r24,canID
 433 00d0 8D83      		std Y+5,r24
 434               	.LBB42:
 435               	.LBB43:
 100:/Users/manueldeneu/Documents/projets/dev/Monu100/MicroController/MicMonu100/MicMonu100/main.c ****     return  x+offX;
 437               	.LM39:
 438 00d2 2091 0000 		lds r18,offX
 439 00d6 30E0      		ldi r19,0
 440 00d8 8091 0000 		lds r24,_sensors+163
 441 00dc A901      		movw r20,r18
 442 00de 480F      		add r20,r24
 443 00e0 511D      		adc r21,__zero_reg__
 444               	.LBE43:
 445               	.LBE42:
 192:/Users/manueldeneu/Documents/projets/dev/Monu100/MicroController/MicMonu100/MicMonu100/main.c ****     message.data[1] = getMainX( _sensors.shadowX );
 447               	.LM40:
 448 00e2 4E83      		std Y+6,r20
 449               	.LBB44:
 450               	.LBB45:
 105:/Users/manueldeneu/Documents/projets/dev/Monu100/MicroController/MicMonu100/MicMonu100/main.c ****     return  y+offY;
 452               	.LM41:
 453 00e4 8091 0000 		lds r24,offY
 454 00e8 90E0      		ldi r25,0
 455 00ea 4091 0000 		lds r20,_sensors+164
 456 00ee BC01      		movw r22,r24
 457 00f0 640F      		add r22,r20
 458 00f2 711D      		adc r23,__zero_reg__
 459               	.LBE45:
 460               	.LBE44:
 193:/Users/manueldeneu/Documents/projets/dev/Monu100/MicroController/MicMonu100/MicMonu100/main.c ****     message.data[2] = getMainY( _sensors.shadowY );
 462               	.LM42:
 463 00f4 6F83      		std Y+7,r22
 464               	.LBB46:
 465               	.LBB47:
 100:/Users/manueldeneu/Documents/projets/dev/Monu100/MicroController/MicMonu100/MicMonu100/main.c ****     return  x+offX;
 467               	.LM43:
 468 00f6 4091 0000 		lds r20,_sensors+166
 469 00fa 240F      		add r18,r20
 470 00fc 311D      		adc r19,__zero_reg__
 471               	.LBE47:
 472               	.LBE46:
 194:/Users/manueldeneu/Documents/projets/dev/Monu100/MicroController/MicMonu100/MicMonu100/main.c ****     message.data[3] = getMainX( _sensors.lightX  );
 474               	.LM44:
 475 00fe 2887      		std Y+8,r18
 476               	.LBB48:
 477               	.LBB49:
 105:/Users/manueldeneu/Documents/projets/dev/Monu100/MicroController/MicMonu100/MicMonu100/main.c ****     return  y+offY;
 479               	.LM45:
 480 0100 2091 0000 		lds r18,_sensors+167
 481 0104 820F      		add r24,r18
 482 0106 911D      		adc r25,__zero_reg__
 483               	.LBE49:
 484               	.LBE48:
 195:/Users/manueldeneu/Documents/projets/dev/Monu100/MicroController/MicMonu100/MicMonu100/main.c ****     message.data[4] = getMainY( _sensors.lightY  );
 486               	.LM46:
 487 0108 8987      		std Y+9,r24
 196:/Users/manueldeneu/Documents/projets/dev/Monu100/MicroController/MicMonu100/MicMonu100/main.c **** 
 197:/Users/manueldeneu/Documents/projets/dev/Monu100/MicroController/MicMonu100/MicMonu100/main.c ****     can_send_message(&message);
 489               	.LM47:
 490 010a CE01      		movw r24,r28
 491 010c 0196      		adiw r24,1
 492 010e 0E94 0000 		call can_send_message
 198:/Users/manueldeneu/Documents/projets/dev/Monu100/MicroController/MicMonu100/MicMonu100/main.c **** 
 199:/Users/manueldeneu/Documents/projets/dev/Monu100/MicroController/MicMonu100/MicMonu100/main.c **** //    display_setFillColor(&_display, 255);
 200:/Users/manueldeneu/Documents/projets/dev/Monu100/MicroController/MicMonu100/MicMonu100/main.c **** //    display_fillZone(&_display, _sensors.lightX, _sensors.lightY, 2, 2);
 201:/Users/manueldeneu/Documents/projets/dev/Monu100/MicroController/MicMonu100/MicMonu100/main.c **** 
 202:/Users/manueldeneu/Documents/projets/dev/Monu100/MicroController/MicMonu100/MicMonu100/main.c **** 
 203:/Users/manueldeneu/Documents/projets/dev/Monu100/MicroController/MicMonu100/MicMonu100/main.c ****     
 204:/Users/manueldeneu/Documents/projets/dev/Monu100/MicroController/MicMonu100/MicMonu100/main.c ****     updateScreen();
 494               	.LM48:
 495 0112 0E94 0000 		call updateScreen
 496               	/* epilogue start */
 205:/Users/manueldeneu/Documents/projets/dev/Monu100/MicroController/MicMonu100/MicMonu100/main.c **** }
 498               	.LM49:
 499 0116 2C96      		adiw r28,12
 500 0118 0FB6      		in __tmp_reg__,__SREG__
 501 011a F894      		cli
 502 011c DEBF      		out __SP_H__,r29
 503 011e 0FBE      		out __SREG__,__tmp_reg__
 504 0120 CDBF      		out __SP_L__,r28
 505 0122 DF91      		pop r29
 506 0124 CF91      		pop r28
 507 0126 0895      		ret
 512               	.Lscope8:
 513               		.section	.rodata.str1.1,"aMS",@progbits,1
 514               	.LC0:
 515 0000 6D61 7263 		.string	"marcel Dupont"
 515      656C 2044 
 515      7570 6F6E 
 515      7400 
 516               		.text
 518               	.global	serviceCall
 520               	serviceCall:
 206:/Users/manueldeneu/Documents/projets/dev/Monu100/MicroController/MicMonu100/MicMonu100/main.c **** 
 207:/Users/manueldeneu/Documents/projets/dev/Monu100/MicroController/MicMonu100/MicMonu100/main.c **** /* **** **** **** **** **** **** **** **** */
 208:/Users/manueldeneu/Documents/projets/dev/Monu100/MicroController/MicMonu100/MicMonu100/main.c **** 
 209:/Users/manueldeneu/Documents/projets/dev/Monu100/MicroController/MicMonu100/MicMonu100/main.c **** inline uint8_t checkMsgLength( CANMessage *msg, const uint8_t l )
 210:/Users/manueldeneu/Documents/projets/dev/Monu100/MicroController/MicMonu100/MicMonu100/main.c **** {
 211:/Users/manueldeneu/Documents/projets/dev/Monu100/MicroController/MicMonu100/MicMonu100/main.c ****     if (msg->length !=l)
 212:/Users/manueldeneu/Documents/projets/dev/Monu100/MicroController/MicMonu100/MicMonu100/main.c ****     {
 213:/Users/manueldeneu/Documents/projets/dev/Monu100/MicroController/MicMonu100/MicMonu100/main.c ****         errorCode = ERROR_LENGTH_MSG;
 214:/Users/manueldeneu/Documents/projets/dev/Monu100/MicroController/MicMonu100/MicMonu100/main.c ****         sendState();
 215:/Users/manueldeneu/Documents/projets/dev/Monu100/MicroController/MicMonu100/MicMonu100/main.c ****         return 0;
 216:/Users/manueldeneu/Documents/projets/dev/Monu100/MicroController/MicMonu100/MicMonu100/main.c ****     }
 217:/Users/manueldeneu/Documents/projets/dev/Monu100/MicroController/MicMonu100/MicMonu100/main.c ****     return 1;
 218:/Users/manueldeneu/Documents/projets/dev/Monu100/MicroController/MicMonu100/MicMonu100/main.c **** }
 219:/Users/manueldeneu/Documents/projets/dev/Monu100/MicroController/MicMonu100/MicMonu100/main.c **** 
 220:/Users/manueldeneu/Documents/projets/dev/Monu100/MicroController/MicMonu100/MicMonu100/main.c **** inline void sendError( const uint8_t err)
 221:/Users/manueldeneu/Documents/projets/dev/Monu100/MicroController/MicMonu100/MicMonu100/main.c **** {
 222:/Users/manueldeneu/Documents/projets/dev/Monu100/MicroController/MicMonu100/MicMonu100/main.c ****     errorCode = err;
 223:/Users/manueldeneu/Documents/projets/dev/Monu100/MicroController/MicMonu100/MicMonu100/main.c ****     sendState();
 224:/Users/manueldeneu/Documents/projets/dev/Monu100/MicroController/MicMonu100/MicMonu100/main.c **** }
 225:/Users/manueldeneu/Documents/projets/dev/Monu100/MicroController/MicMonu100/MicMonu100/main.c **** 
 226:/Users/manueldeneu/Documents/projets/dev/Monu100/MicroController/MicMonu100/MicMonu100/main.c **** inline void sendTest( const uint8_t val1 , const uint8_t val2)
 227:/Users/manueldeneu/Documents/projets/dev/Monu100/MicroController/MicMonu100/MicMonu100/main.c **** {
 228:/Users/manueldeneu/Documents/projets/dev/Monu100/MicroController/MicMonu100/MicMonu100/main.c ****     CANMessage m;
 229:/Users/manueldeneu/Documents/projets/dev/Monu100/MicroController/MicMonu100/MicMonu100/main.c ****     m.id = 30;
 230:/Users/manueldeneu/Documents/projets/dev/Monu100/MicroController/MicMonu100/MicMonu100/main.c ****     m.length = 3;
 231:/Users/manueldeneu/Documents/projets/dev/Monu100/MicroController/MicMonu100/MicMonu100/main.c ****     m.data[0] = canID;
 232:/Users/manueldeneu/Documents/projets/dev/Monu100/MicroController/MicMonu100/MicMonu100/main.c ****     m.data[1] = val1;
 233:/Users/manueldeneu/Documents/projets/dev/Monu100/MicroController/MicMonu100/MicMonu100/main.c ****     m.data[2] = val2;
 234:/Users/manueldeneu/Documents/projets/dev/Monu100/MicroController/MicMonu100/MicMonu100/main.c ****     can_send_message( &m);
 235:/Users/manueldeneu/Documents/projets/dev/Monu100/MicroController/MicMonu100/MicMonu100/main.c ****     
 236:/Users/manueldeneu/Documents/projets/dev/Monu100/MicroController/MicMonu100/MicMonu100/main.c **** }
 237:/Users/manueldeneu/Documents/projets/dev/Monu100/MicroController/MicMonu100/MicMonu100/main.c **** 
 238:/Users/manueldeneu/Documents/projets/dev/Monu100/MicroController/MicMonu100/MicMonu100/main.c **** void serviceCall(void)
 239:/Users/manueldeneu/Documents/projets/dev/Monu100/MicroController/MicMonu100/MicMonu100/main.c **** {
 522               	.LM50:
 523               	.LFBB9:
 524 0128 0F93      		push r16
 525 012a 1F93      		push r17
 526 012c CF93      		push r28
 527 012e DF93      		push r29
 528 0130 CDB7      		in r28,__SP_L__
 529 0132 DEB7      		in r29,__SP_H__
 530 0134 6897      		sbiw r28,24
 531 0136 0FB6      		in __tmp_reg__,__SREG__
 532 0138 F894      		cli
 533 013a DEBF      		out __SP_H__,r29
 534 013c 0FBE      		out __SREG__,__tmp_reg__
 535 013e CDBF      		out __SP_L__,r28
 536               	/* prologue: function */
 537               	/* frame size = 24 */
 538               	/* stack size = 28 */
 539               	.L__stack_usage = 28
 240:/Users/manueldeneu/Documents/projets/dev/Monu100/MicroController/MicMonu100/MicMonu100/main.c ****     
 241:/Users/manueldeneu/Documents/projets/dev/Monu100/MicroController/MicMonu100/MicMonu100/main.c ****     wdt_reset();
 541               	.LM51:
 542               	/* #APP */
 543               	 ;  241 "/Users/manueldeneu/Documents/projets/dev/Monu100/MicroController/MicMonu100/MicMonu100/mai
 544 0140 A895      		wdr
 545               	 ;  0 "" 2
 242:/Users/manueldeneu/Documents/projets/dev/Monu100/MicroController/MicMonu100/MicMonu100/main.c ****     
 243:/Users/manueldeneu/Documents/projets/dev/Monu100/MicroController/MicMonu100/MicMonu100/main.c ****     CANMessage m;
 244:/Users/manueldeneu/Documents/projets/dev/Monu100/MicroController/MicMonu100/MicMonu100/main.c ****     if (can_get_message(&m) )
 547               	.LM52:
 548               	/* #NOAPP */
 549 0142 CE01      		movw r24,r28
 550 0144 0D96      		adiw r24,13
 551 0146 0E94 0000 		call can_get_message
 552 014a 8823      		tst r24
 553 014c 01F4      		brne .+2
 554 014e 00C0      		rjmp .L13
 245:/Users/manueldeneu/Documents/projets/dev/Monu100/MicroController/MicMonu100/MicMonu100/main.c ****     {
 246:/Users/manueldeneu/Documents/projets/dev/Monu100/MicroController/MicMonu100/MicMonu100/main.c **** 
 247:/Users/manueldeneu/Documents/projets/dev/Monu100/MicroController/MicMonu100/MicMonu100/main.c ****         if (m.id == 0)
 556               	.LM53:
 557 0150 8D85      		ldd r24,Y+13
 558 0152 9E85      		ldd r25,Y+14
 559 0154 0097      		sbiw r24,0
 560 0156 01F0      		breq .L29
 248:/Users/manueldeneu/Documents/projets/dev/Monu100/MicroController/MicMonu100/MicMonu100/main.c ****             sendState();
 249:/Users/manueldeneu/Documents/projets/dev/Monu100/MicroController/MicMonu100/MicMonu100/main.c ****         
 250:/Users/manueldeneu/Documents/projets/dev/Monu100/MicroController/MicMonu100/MicMonu100/main.c ****         /**/
 251:/Users/manueldeneu/Documents/projets/dev/Monu100/MicroController/MicMonu100/MicMonu100/main.c ****         
 252:/Users/manueldeneu/Documents/projets/dev/Monu100/MicroController/MicMonu100/MicMonu100/main.c ****         else if (m.id == 4)
 562               	.LM54:
 563 0158 8430      		cpi r24,4
 564 015a 9105      		cpc r25,__zero_reg__
 565 015c 01F4      		brne .L16
 566               	.LBB50:
 567               	.LBB51:
 211:/Users/manueldeneu/Documents/projets/dev/Monu100/MicroController/MicMonu100/MicMonu100/main.c ****     if (msg->length !=l)
 569               	.LM55:
 570 015e 8889      		ldd r24,Y+16
 571 0160 8430      		cpi r24,lo8(4)
 572 0162 01F4      		brne .+2
 573 0164 00C0      		rjmp .L17
 213:/Users/manueldeneu/Documents/projets/dev/Monu100/MicroController/MicMonu100/MicMonu100/main.c ****         errorCode = ERROR_LENGTH_MSG;
 575               	.LM56:
 576 0166 81E0      		ldi r24,lo8(1)
 577 0168 8093 0000 		sts errorCode,r24
 578               	.L29:
 214:/Users/manueldeneu/Documents/projets/dev/Monu100/MicroController/MicMonu100/MicMonu100/main.c ****         sendState();
 580               	.LM57:
 581 016c 0E94 0000 		call sendState
 582 0170 00C0      		rjmp .L13
 583               	.L16:
 584               	.LBE51:
 585               	.LBE50:
 253:/Users/manueldeneu/Documents/projets/dev/Monu100/MicroController/MicMonu100/MicMonu100/main.c ****         {
 254:/Users/manueldeneu/Documents/projets/dev/Monu100/MicroController/MicMonu100/MicMonu100/main.c **** 
 255:/Users/manueldeneu/Documents/projets/dev/Monu100/MicroController/MicMonu100/MicMonu100/main.c ****             if (checkMsgLength( &m, 4) == 0)
 256:/Users/manueldeneu/Documents/projets/dev/Monu100/MicroController/MicMonu100/MicMonu100/main.c ****                 return;
 257:/Users/manueldeneu/Documents/projets/dev/Monu100/MicroController/MicMonu100/MicMonu100/main.c ****             
 258:/Users/manueldeneu/Documents/projets/dev/Monu100/MicroController/MicMonu100/MicMonu100/main.c ****             textX = getRealX( m.data[0]);
 259:/Users/manueldeneu/Documents/projets/dev/Monu100/MicroController/MicMonu100/MicMonu100/main.c ****             textY = getRealY( m.data[1]);
 260:/Users/manueldeneu/Documents/projets/dev/Monu100/MicroController/MicMonu100/MicMonu100/main.c ****             sep   = m.data[2];
 261:/Users/manueldeneu/Documents/projets/dev/Monu100/MicroController/MicMonu100/MicMonu100/main.c ****             angle = m.data[3];
 262:/Users/manueldeneu/Documents/projets/dev/Monu100/MicroController/MicMonu100/MicMonu100/main.c ****             updateScreen();
 263:/Users/manueldeneu/Documents/projets/dev/Monu100/MicroController/MicMonu100/MicMonu100/main.c ****         }
 264:/Users/manueldeneu/Documents/projets/dev/Monu100/MicroController/MicMonu100/MicMonu100/main.c ****         
 265:/Users/manueldeneu/Documents/projets/dev/Monu100/MicroController/MicMonu100/MicMonu100/main.c ****         
 266:/Users/manueldeneu/Documents/projets/dev/Monu100/MicroController/MicMonu100/MicMonu100/main.c ****         // change text
 267:/Users/manueldeneu/Documents/projets/dev/Monu100/MicroController/MicMonu100/MicMonu100/main.c ****         else if ( m.id == 5)
 587               	.LM58:
 588 0172 8530      		cpi r24,5
 589 0174 9105      		cpc r25,__zero_reg__
 590 0176 01F4      		brne .L19
 268:/Users/manueldeneu/Documents/projets/dev/Monu100/MicroController/MicMonu100/MicMonu100/main.c ****         {
 269:/Users/manueldeneu/Documents/projets/dev/Monu100/MicroController/MicMonu100/MicMonu100/main.c ****             
 270:/Users/manueldeneu/Documents/projets/dev/Monu100/MicroController/MicMonu100/MicMonu100/main.c ****             strcpy(text, DEFAULT_NAME);
 592               	.LM59:
 593 0178 60E0      		ldi r22,lo8(.LC0)
 594 017a 70E0      		ldi r23,hi8(.LC0)
 595 017c 80E0      		ldi r24,lo8(text)
 596 017e 90E0      		ldi r25,hi8(text)
 597 0180 0E94 0000 		call strcpy
 598 0184 00C0      		rjmp .L30
 599               	.L19:
 271:/Users/manueldeneu/Documents/projets/dev/Monu100/MicroController/MicMonu100/MicMonu100/main.c **** 
 272:/Users/manueldeneu/Documents/projets/dev/Monu100/MicroController/MicMonu100/MicMonu100/main.c ****             updateScreen();
 273:/Users/manueldeneu/Documents/projets/dev/Monu100/MicroController/MicMonu100/MicMonu100/main.c ****         }
 274:/Users/manueldeneu/Documents/projets/dev/Monu100/MicroController/MicMonu100/MicMonu100/main.c ****         // clear draw
 275:/Users/manueldeneu/Documents/projets/dev/Monu100/MicroController/MicMonu100/MicMonu100/main.c ****         else if (m.id == 6)
 601               	.LM60:
 602 0186 8630      		cpi r24,6
 603 0188 9105      		cpc r25,__zero_reg__
 604 018a 01F4      		brne .L20
 605               	.LBB52:
 606               	.LBB53:
 608               	.Ltext3:
 610               	.LM61:
 611 018c 04E1      		ldi r16,lo8(20)
 612 018e 2EE1      		ldi r18,lo8(30)
 613 0190 40E0      		ldi r20,0
 614 0192 60E0      		ldi r22,0
 615 0194 80E0      		ldi r24,lo8(_display)
 616 0196 90E0      		ldi r25,hi8(_display)
 617 0198 0E94 0000 		call display_clearZoneDraw
 618 019c 00C0      		rjmp .L30
 619               	.L20:
 620               	.LBE53:
 621               	.LBE52:
 623               	.Ltext4:
 276:/Users/manueldeneu/Documents/projets/dev/Monu100/MicroController/MicMonu100/MicMonu100/main.c ****         {
 277:/Users/manueldeneu/Documents/projets/dev/Monu100/MicroController/MicMonu100/MicMonu100/main.c ****             display_clearDraw( &_display);
 278:/Users/manueldeneu/Documents/projets/dev/Monu100/MicroController/MicMonu100/MicMonu100/main.c ****             updateScreen();
 279:/Users/manueldeneu/Documents/projets/dev/Monu100/MicroController/MicMonu100/MicMonu100/main.c ****         }
 280:/Users/manueldeneu/Documents/projets/dev/Monu100/MicroController/MicMonu100/MicMonu100/main.c ****         else if( m.id == 7)
 625               	.LM62:
 626 019e 8730      		cpi r24,7
 627 01a0 9105      		cpc r25,__zero_reg__
 628 01a2 01F4      		brne .+2
 629 01a4 00C0      		rjmp .L30
 281:/Users/manueldeneu/Documents/projets/dev/Monu100/MicroController/MicMonu100/MicMonu100/main.c ****         {
 282:/Users/manueldeneu/Documents/projets/dev/Monu100/MicroController/MicMonu100/MicMonu100/main.c **** /*
 283:/Users/manueldeneu/Documents/projets/dev/Monu100/MicroController/MicMonu100/MicMonu100/main.c ****             display_setFillColor(&_display, 255);
 284:/Users/manueldeneu/Documents/projets/dev/Monu100/MicroController/MicMonu100/MicMonu100/main.c ****             display_fillZone(&_display, getRealX( m.data[0])-2, getRealY( m.data[1])-2, 4, 4);
 285:/Users/manueldeneu/Documents/projets/dev/Monu100/MicroController/MicMonu100/MicMonu100/main.c ****  */
 286:/Users/manueldeneu/Documents/projets/dev/Monu100/MicroController/MicMonu100/MicMonu100/main.c ****             updateScreen();
 287:/Users/manueldeneu/Documents/projets/dev/Monu100/MicroController/MicMonu100/MicMonu100/main.c ****         }
 288:/Users/manueldeneu/Documents/projets/dev/Monu100/MicroController/MicMonu100/MicMonu100/main.c **** 
 289:/Users/manueldeneu/Documents/projets/dev/Monu100/MicroController/MicMonu100/MicMonu100/main.c ****         //Tresholds
 290:/Users/manueldeneu/Documents/projets/dev/Monu100/MicroController/MicMonu100/MicMonu100/main.c ****         else if (m.id == 8 )
 631               	.LM63:
 632 01a6 8830      		cpi r24,8
 633 01a8 9105      		cpc r25,__zero_reg__
 634 01aa 01F4      		brne .L22
 291:/Users/manueldeneu/Documents/projets/dev/Monu100/MicroController/MicMonu100/MicMonu100/main.c ****         {
 292:/Users/manueldeneu/Documents/projets/dev/Monu100/MicroController/MicMonu100/MicMonu100/main.c ****             _sensors.lowTreshold = m.data[0];
 636               	.LM64:
 637 01ac 8989      		ldd r24,Y+17
 638 01ae 8093 0000 		sts _sensors,r24
 293:/Users/manueldeneu/Documents/projets/dev/Monu100/MicroController/MicMonu100/MicMonu100/main.c ****             _sensors.highTreshold = m.data[1];
 640               	.LM65:
 641 01b2 8A89      		ldd r24,Y+18
 642 01b4 8093 0000 		sts _sensors+1,r24
 643 01b8 00C0      		rjmp .L13
 644               	.L22:
 294:/Users/manueldeneu/Documents/projets/dev/Monu100/MicroController/MicMonu100/MicMonu100/main.c ****         }
 295:/Users/manueldeneu/Documents/projets/dev/Monu100/MicroController/MicMonu100/MicMonu100/main.c ****         
 296:/Users/manueldeneu/Documents/projets/dev/Monu100/MicroController/MicMonu100/MicMonu100/main.c ****         /* TEXT CHANGE */
 297:/Users/manueldeneu/Documents/projets/dev/Monu100/MicroController/MicMonu100/MicMonu100/main.c **** 
 298:/Users/manueldeneu/Documents/projets/dev/Monu100/MicroController/MicMonu100/MicMonu100/main.c ****         else if (m.id == TEXT_CHANGE_START_ID)
 646               	.LM66:
 647 01ba 8930      		cpi r24,9
 648 01bc 9105      		cpc r25,__zero_reg__
 649 01be 01F4      		brne .L23
 299:/Users/manueldeneu/Documents/projets/dev/Monu100/MicroController/MicMonu100/MicMonu100/main.c ****         {
 300:/Users/manueldeneu/Documents/projets/dev/Monu100/MicroController/MicMonu100/MicMonu100/main.c ****             /*
 301:/Users/manueldeneu/Documents/projets/dev/Monu100/MicroController/MicMonu100/MicMonu100/main.c ****             if (checkMsgLength( &m, 1) == 0)
 302:/Users/manueldeneu/Documents/projets/dev/Monu100/MicroController/MicMonu100/MicMonu100/main.c ****                 return;
 303:/Users/manueldeneu/Documents/projets/dev/Monu100/MicroController/MicMonu100/MicMonu100/main.c ****             */
 304:/Users/manueldeneu/Documents/projets/dev/Monu100/MicroController/MicMonu100/MicMonu100/main.c ****             
 305:/Users/manueldeneu/Documents/projets/dev/Monu100/MicroController/MicMonu100/MicMonu100/main.c **** 
 306:/Users/manueldeneu/Documents/projets/dev/Monu100/MicroController/MicMonu100/MicMonu100/main.c ****             
 307:/Users/manueldeneu/Documents/projets/dev/Monu100/MicroController/MicMonu100/MicMonu100/main.c ****             textLength = m.data[0];
 651               	.LM67:
 652 01c0 8989      		ldd r24,Y+17
 653 01c2 8093 0000 		sts textLength,r24
 308:/Users/manueldeneu/Documents/projets/dev/Monu100/MicroController/MicMonu100/MicMonu100/main.c ****             sendTest(1 , textLength);
 655               	.LM68:
 656 01c6 2091 0000 		lds r18,textLength
 657               	.LBB54:
 658               	.LBB55:
 229:/Users/manueldeneu/Documents/projets/dev/Monu100/MicroController/MicMonu100/MicMonu100/main.c ****     m.id = 30;
 660               	.LM69:
 661 01ca 8EE1      		ldi r24,lo8(30)
 662 01cc 90E0      		ldi r25,0
 663 01ce 9A83      		std Y+2,r25
 664 01d0 8983      		std Y+1,r24
 230:/Users/manueldeneu/Documents/projets/dev/Monu100/MicroController/MicMonu100/MicMonu100/main.c ****     m.length = 3;
 666               	.LM70:
 667 01d2 83E0      		ldi r24,lo8(3)
 668 01d4 8C83      		std Y+4,r24
 231:/Users/manueldeneu/Documents/projets/dev/Monu100/MicroController/MicMonu100/MicMonu100/main.c ****     m.data[0] = canID;
 670               	.LM71:
 671 01d6 8091 0000 		lds r24,canID
 672 01da 8D83      		std Y+5,r24
 232:/Users/manueldeneu/Documents/projets/dev/Monu100/MicroController/MicMonu100/MicMonu100/main.c ****     m.data[1] = val1;
 674               	.LM72:
 675 01dc 11E0      		ldi r17,lo8(1)
 676 01de 1E83      		std Y+6,r17
 233:/Users/manueldeneu/Documents/projets/dev/Monu100/MicroController/MicMonu100/MicMonu100/main.c ****     m.data[2] = val2;
 678               	.LM73:
 679 01e0 2F83      		std Y+7,r18
 234:/Users/manueldeneu/Documents/projets/dev/Monu100/MicroController/MicMonu100/MicMonu100/main.c ****     can_send_message( &m);
 681               	.LM74:
 682 01e2 CE01      		movw r24,r28
 683 01e4 0196      		adiw r24,1
 684 01e6 0E94 0000 		call can_send_message
 685               	.LBE55:
 686               	.LBE54:
 309:/Users/manueldeneu/Documents/projets/dev/Monu100/MicroController/MicMonu100/MicMonu100/main.c ****             
 310:/Users/manueldeneu/Documents/projets/dev/Monu100/MicroController/MicMonu100/MicMonu100/main.c ****             textChanging =1;
 688               	.LM75:
 689 01ea 1093 0000 		sts textChanging,r17
 311:/Users/manueldeneu/Documents/projets/dev/Monu100/MicroController/MicMonu100/MicMonu100/main.c **** //            tempText[0] = '\0';
 312:/Users/manueldeneu/Documents/projets/dev/Monu100/MicroController/MicMonu100/MicMonu100/main.c ****             setLow(LED_PORT, LED_PIN);
 691               	.LM76:
 692 01ee 1098      		cbi 0x2,0
 693 01f0 00C0      		rjmp .L13
 694               	.L23:
 313:/Users/manueldeneu/Documents/projets/dev/Monu100/MicroController/MicMonu100/MicMonu100/main.c ****             
 314:/Users/manueldeneu/Documents/projets/dev/Monu100/MicroController/MicMonu100/MicMonu100/main.c ****             //sendTest(1 , textLength);
 315:/Users/manueldeneu/Documents/projets/dev/Monu100/MicroController/MicMonu100/MicMonu100/main.c ****         }
 316:/Users/manueldeneu/Documents/projets/dev/Monu100/MicroController/MicMonu100/MicMonu100/main.c ****         else if (m.id == TEXT_CHANGE_END_ID)
 696               	.LM77:
 697 01f2 8B30      		cpi r24,11
 698 01f4 9105      		cpc r25,__zero_reg__
 699 01f6 01F4      		brne .L24
 317:/Users/manueldeneu/Documents/projets/dev/Monu100/MicroController/MicMonu100/MicMonu100/main.c ****         {
 318:/Users/manueldeneu/Documents/projets/dev/Monu100/MicroController/MicMonu100/MicMonu100/main.c ****             /*
 319:/Users/manueldeneu/Documents/projets/dev/Monu100/MicroController/MicMonu100/MicMonu100/main.c ****             if (checkMsgLength( &m, 1) == 0)
 320:/Users/manueldeneu/Documents/projets/dev/Monu100/MicroController/MicMonu100/MicMonu100/main.c ****                 return;
 321:/Users/manueldeneu/Documents/projets/dev/Monu100/MicroController/MicMonu100/MicMonu100/main.c ****             */
 322:/Users/manueldeneu/Documents/projets/dev/Monu100/MicroController/MicMonu100/MicMonu100/main.c ****             sendTest(10 , textLength);
 701               	.LM78:
 702 01f8 2091 0000 		lds r18,textLength
 703               	.LBB56:
 704               	.LBB57:
 229:/Users/manueldeneu/Documents/projets/dev/Monu100/MicroController/MicMonu100/MicMonu100/main.c ****     m.id = 30;
 706               	.LM79:
 707 01fc 8EE1      		ldi r24,lo8(30)
 708 01fe 90E0      		ldi r25,0
 709 0200 9A83      		std Y+2,r25
 710 0202 8983      		std Y+1,r24
 230:/Users/manueldeneu/Documents/projets/dev/Monu100/MicroController/MicMonu100/MicMonu100/main.c ****     m.length = 3;
 712               	.LM80:
 713 0204 83E0      		ldi r24,lo8(3)
 714 0206 8C83      		std Y+4,r24
 231:/Users/manueldeneu/Documents/projets/dev/Monu100/MicroController/MicMonu100/MicMonu100/main.c ****     m.data[0] = canID;
 716               	.LM81:
 717 0208 8091 0000 		lds r24,canID
 718 020c 8D83      		std Y+5,r24
 232:/Users/manueldeneu/Documents/projets/dev/Monu100/MicroController/MicMonu100/MicMonu100/main.c ****     m.data[1] = val1;
 720               	.LM82:
 721 020e 8AE0      		ldi r24,lo8(10)
 722 0210 8E83      		std Y+6,r24
 233:/Users/manueldeneu/Documents/projets/dev/Monu100/MicroController/MicMonu100/MicMonu100/main.c ****     m.data[2] = val2;
 724               	.LM83:
 725 0212 2F83      		std Y+7,r18
 234:/Users/manueldeneu/Documents/projets/dev/Monu100/MicroController/MicMonu100/MicMonu100/main.c ****     can_send_message( &m);
 727               	.LM84:
 728 0214 CE01      		movw r24,r28
 729 0216 0196      		adiw r24,1
 730 0218 0E94 0000 		call can_send_message
 731               	.LBE57:
 732               	.LBE56:
 323:/Users/manueldeneu/Documents/projets/dev/Monu100/MicroController/MicMonu100/MicMonu100/main.c ****             textChanging =0;
 734               	.LM85:
 735 021c 1092 0000 		sts textChanging,__zero_reg__
 324:/Users/manueldeneu/Documents/projets/dev/Monu100/MicroController/MicMonu100/MicMonu100/main.c ****             //tempText[textLength] = '\0';
 325:/Users/manueldeneu/Documents/projets/dev/Monu100/MicroController/MicMonu100/MicMonu100/main.c ****             textLength = 0;
 737               	.LM86:
 738 0220 1092 0000 		sts textLength,__zero_reg__
 326:/Users/manueldeneu/Documents/projets/dev/Monu100/MicroController/MicMonu100/MicMonu100/main.c ****             //strcpy(text, tempText);
 327:/Users/manueldeneu/Documents/projets/dev/Monu100/MicroController/MicMonu100/MicMonu100/main.c ****             //sendTest(20 , textLength);
 328:/Users/manueldeneu/Documents/projets/dev/Monu100/MicroController/MicMonu100/MicMonu100/main.c ****             updateScreen();
 740               	.LM87:
 741 0224 0E94 0000 		call updateScreen
 329:/Users/manueldeneu/Documents/projets/dev/Monu100/MicroController/MicMonu100/MicMonu100/main.c ****             setHigh(LED_PORT, LED_PIN);
 743               	.LM88:
 744 0228 109A      		sbi 0x2,0
 745 022a 00C0      		rjmp .L13
 746               	.L24:
 330:/Users/manueldeneu/Documents/projets/dev/Monu100/MicroController/MicMonu100/MicMonu100/main.c ****         }
 331:/Users/manueldeneu/Documents/projets/dev/Monu100/MicroController/MicMonu100/MicMonu100/main.c ****         
 332:/Users/manueldeneu/Documents/projets/dev/Monu100/MicroController/MicMonu100/MicMonu100/main.c **** 
 333:/Users/manueldeneu/Documents/projets/dev/Monu100/MicroController/MicMonu100/MicMonu100/main.c ****         else if (m.id == TEXT_CHANGE_CHAR_ID)
 748               	.LM89:
 749 022c 8A30      		cpi r24,10
 750 022e 9105      		cpc r25,__zero_reg__
 751 0230 01F4      		brne .L25
 752               	.LBB58:
 334:/Users/manueldeneu/Documents/projets/dev/Monu100/MicroController/MicMonu100/MicMonu100/main.c ****         {
 335:/Users/manueldeneu/Documents/projets/dev/Monu100/MicroController/MicMonu100/MicMonu100/main.c ****             /*
 336:/Users/manueldeneu/Documents/projets/dev/Monu100/MicroController/MicMonu100/MicMonu100/main.c ****             if (checkMsgLength( &m, 3) == 0)
 337:/Users/manueldeneu/Documents/projets/dev/Monu100/MicroController/MicMonu100/MicMonu100/main.c ****                 return;
 338:/Users/manueldeneu/Documents/projets/dev/Monu100/MicroController/MicMonu100/MicMonu100/main.c ****             */
 339:/Users/manueldeneu/Documents/projets/dev/Monu100/MicroController/MicMonu100/MicMonu100/main.c ****             /*
 340:/Users/manueldeneu/Documents/projets/dev/Monu100/MicroController/MicMonu100/MicMonu100/main.c ****             toggle(LED_PORT, LED_PIN);
 341:/Users/manueldeneu/Documents/projets/dev/Monu100/MicroController/MicMonu100/MicMonu100/main.c ****             if( m.data[0] != textLength)
 342:/Users/manueldeneu/Documents/projets/dev/Monu100/MicroController/MicMonu100/MicMonu100/main.c ****                 sendError( ERROR_LENGTH_STR );
 343:/Users/manueldeneu/Documents/projets/dev/Monu100/MicroController/MicMonu100/MicMonu100/main.c ****             
 344:/Users/manueldeneu/Documents/projets/dev/Monu100/MicroController/MicMonu100/MicMonu100/main.c ****             if( m.data[1] >= textLength )
 345:/Users/manueldeneu/Documents/projets/dev/Monu100/MicroController/MicMonu100/MicMonu100/main.c ****                 sendError( ERROR_CHAR_POS);
 346:/Users/manueldeneu/Documents/projets/dev/Monu100/MicroController/MicMonu100/MicMonu100/main.c ****             
 347:/Users/manueldeneu/Documents/projets/dev/Monu100/MicroController/MicMonu100/MicMonu100/main.c **** 
 348:/Users/manueldeneu/Documents/projets/dev/Monu100/MicroController/MicMonu100/MicMonu100/main.c ****             sendTest(12 , m.data[1]);
 349:/Users/manueldeneu/Documents/projets/dev/Monu100/MicroController/MicMonu100/MicMonu100/main.c ****              */
 350:/Users/manueldeneu/Documents/projets/dev/Monu100/MicroController/MicMonu100/MicMonu100/main.c ****             const char c = m.data[2];
 351:/Users/manueldeneu/Documents/projets/dev/Monu100/MicroController/MicMonu100/MicMonu100/main.c ****             text[m.data[1] ] = c;
 754               	.LM90:
 755 0232 EA89      		ldd r30,Y+18
 756 0234 F0E0      		ldi r31,0
 757 0236 E050      		subi r30,lo8(-(text))
 758 0238 F040      		sbci r31,hi8(-(text))
 759 023a 8B89      		ldd r24,Y+19
 760 023c 8083      		st Z,r24
 761               	.LBE58:
 762 023e 00C0      		rjmp .L13
 763               	.L25:
 352:/Users/manueldeneu/Documents/projets/dev/Monu100/MicroController/MicMonu100/MicMonu100/main.c ****             
 353:/Users/manueldeneu/Documents/projets/dev/Monu100/MicroController/MicMonu100/MicMonu100/main.c **** 
 354:/Users/manueldeneu/Documents/projets/dev/Monu100/MicroController/MicMonu100/MicMonu100/main.c ****             
 355:/Users/manueldeneu/Documents/projets/dev/Monu100/MicroController/MicMonu100/MicMonu100/main.c ****         }
 356:/Users/manueldeneu/Documents/projets/dev/Monu100/MicroController/MicMonu100/MicMonu100/main.c ****         
 357:/Users/manueldeneu/Documents/projets/dev/Monu100/MicroController/MicMonu100/MicMonu100/main.c ****         else if( m.id == SET_PIX_ID)
 765               	.LM91:
 766 0240 4097      		sbiw r24,16
 767 0242 01F4      		brne .L13
 358:/Users/manueldeneu/Documents/projets/dev/Monu100/MicroController/MicMonu100/MicMonu100/main.c ****         {
 359:/Users/manueldeneu/Documents/projets/dev/Monu100/MicroController/MicMonu100/MicMonu100/main.c ****             display_setPixel(&_display , m.data[0] , m.data[1], m.data[2]);
 769               	.LM92:
 770 0244 2B89      		ldd r18,Y+19
 771 0246 4A89      		ldd r20,Y+18
 772 0248 6989      		ldd r22,Y+17
 773 024a 80E0      		ldi r24,lo8(_display)
 774 024c 90E0      		ldi r25,hi8(_display)
 775 024e 0E94 0000 		call display_setPixel
 776 0252 00C0      		rjmp .L13
 777               	.L17:
 778               	.LBB59:
 779               	.LBB60:
  90:/Users/manueldeneu/Documents/projets/dev/Monu100/MicroController/MicMonu100/MicMonu100/main.c ****     return x - offX;
 781               	.LM93:
 782 0254 8989      		ldd r24,Y+17
 783 0256 90E0      		ldi r25,0
 784 0258 2091 0000 		lds r18,offX
 785 025c 821B      		sub r24,r18
 786 025e 9109      		sbc r25,__zero_reg__
 787               	.LBE60:
 788               	.LBE59:
 258:/Users/manueldeneu/Documents/projets/dev/Monu100/MicroController/MicMonu100/MicMonu100/main.c ****             textX = getRealX( m.data[0]);
 790               	.LM94:
 791 0260 9093 0000 		sts textX+1,r25
 792 0264 8093 0000 		sts textX,r24
 793               	.LBB61:
 794               	.LBB62:
  95:/Users/manueldeneu/Documents/projets/dev/Monu100/MicroController/MicMonu100/MicMonu100/main.c ****     return y - offY;
 796               	.LM95:
 797 0268 8A89      		ldd r24,Y+18
 798 026a 90E0      		ldi r25,0
 799 026c 2091 0000 		lds r18,offY
 800 0270 821B      		sub r24,r18
 801 0272 9109      		sbc r25,__zero_reg__
 802               	.LBE62:
 803               	.LBE61:
 259:/Users/manueldeneu/Documents/projets/dev/Monu100/MicroController/MicMonu100/MicMonu100/main.c ****             textY = getRealY( m.data[1]);
 805               	.LM96:
 806 0274 9093 0000 		sts textY+1,r25
 807 0278 8093 0000 		sts textY,r24
 260:/Users/manueldeneu/Documents/projets/dev/Monu100/MicroController/MicMonu100/MicMonu100/main.c ****             sep   = m.data[2];
 809               	.LM97:
 810 027c 8B89      		ldd r24,Y+19
 811 027e 8093 0000 		sts sep,r24
 261:/Users/manueldeneu/Documents/projets/dev/Monu100/MicroController/MicMonu100/MicMonu100/main.c ****             angle = m.data[3];
 813               	.LM98:
 814 0282 8C89      		ldd r24,Y+20
 815 0284 8093 0000 		sts angle,r24
 816               	.L30:
 262:/Users/manueldeneu/Documents/projets/dev/Monu100/MicroController/MicMonu100/MicMonu100/main.c ****             updateScreen();
 818               	.LM99:
 819 0288 0E94 0000 		call updateScreen
 820               	.L13:
 821               	/* epilogue start */
 360:/Users/manueldeneu/Documents/projets/dev/Monu100/MicroController/MicMonu100/MicMonu100/main.c ****         }
 361:/Users/manueldeneu/Documents/projets/dev/Monu100/MicroController/MicMonu100/MicMonu100/main.c ****     }
 362:/Users/manueldeneu/Documents/projets/dev/Monu100/MicroController/MicMonu100/MicMonu100/main.c **** }
 823               	.LM100:
 824 028c 6896      		adiw r28,24
 825 028e 0FB6      		in __tmp_reg__,__SREG__
 826 0290 F894      		cli
 827 0292 DEBF      		out __SP_H__,r29
 828 0294 0FBE      		out __SREG__,__tmp_reg__
 829 0296 CDBF      		out __SP_L__,r28
 830 0298 DF91      		pop r29
 831 029a CF91      		pop r28
 832 029c 1F91      		pop r17
 833 029e 0F91      		pop r16
 834 02a0 0895      		ret
 845               	.Lscope9:
 846               		.section	.rodata.str1.1
 847               	.LC1:
 848 000e 2569 00   		.string	"%i"
 849               		.section	.text.startup,"ax",@progbits
 851               	.global	main
 853               	main:
 363:/Users/manueldeneu/Documents/projets/dev/Monu100/MicroController/MicMonu100/MicMonu100/main.c **** 
 364:/Users/manueldeneu/Documents/projets/dev/Monu100/MicroController/MicMonu100/MicMonu100/main.c **** /* **** **** **** **** **** **** **** **** */
 365:/Users/manueldeneu/Documents/projets/dev/Monu100/MicroController/MicMonu100/MicMonu100/main.c **** 
 366:/Users/manueldeneu/Documents/projets/dev/Monu100/MicroController/MicMonu100/MicMonu100/main.c **** int main( void )
 367:/Users/manueldeneu/Documents/projets/dev/Monu100/MicroController/MicMonu100/MicMonu100/main.c **** {
 855               	.LM101:
 856               	.LFBB10:
 857 0000 CF93      		push r28
 858 0002 DF93      		push r29
 859 0004 CDB7      		in r28,__SP_L__
 860 0006 DEB7      		in r29,__SP_H__
 861 0008 2797      		sbiw r28,7
 862 000a 0FB6      		in __tmp_reg__,__SREG__
 863 000c F894      		cli
 864 000e DEBF      		out __SP_H__,r29
 865 0010 0FBE      		out __SREG__,__tmp_reg__
 866 0012 CDBF      		out __SP_L__,r28
 867               	/* prologue: function */
 868               	/* frame size = 7 */
 869               	/* stack size = 9 */
 870               	.L__stack_usage = 9
 368:/Users/manueldeneu/Documents/projets/dev/Monu100/MicroController/MicMonu100/MicMonu100/main.c **** 
 369:/Users/manueldeneu/Documents/projets/dev/Monu100/MicroController/MicMonu100/MicMonu100/main.c ****     cli();
 872               	.LM102:
 873               	/* #APP */
 874               	 ;  369 "/Users/manueldeneu/Documents/projets/dev/Monu100/MicroController/MicMonu100/MicMonu100/mai
 875 0014 F894      		cli
 876               	 ;  0 "" 2
 370:/Users/manueldeneu/Documents/projets/dev/Monu100/MicroController/MicMonu100/MicMonu100/main.c **** //    wdt_enable(WDTO_8S);
 371:/Users/manueldeneu/Documents/projets/dev/Monu100/MicroController/MicMonu100/MicMonu100/main.c ****     
 372:/Users/manueldeneu/Documents/projets/dev/Monu100/MicroController/MicMonu100/MicMonu100/main.c ****     initDip();
 878               	.LM103:
 879               	/* #NOAPP */
 880 0016 0E94 0000 		call initDip
 373:/Users/manueldeneu/Documents/projets/dev/Monu100/MicroController/MicMonu100/MicMonu100/main.c ****     canID = readCanID();
 882               	.LM104:
 883 001a 0E94 0000 		call readCanID
 884 001e 8093 0000 		sts canID,r24
 374:/Users/manueldeneu/Documents/projets/dev/Monu100/MicroController/MicMonu100/MicMonu100/main.c ****     
 375:/Users/manueldeneu/Documents/projets/dev/Monu100/MicroController/MicMonu100/MicMonu100/main.c ****     computeGeometry();
 886               	.LM105:
 887 0022 0E94 0000 		call computeGeometry
 888 0026 E0E0      		ldi r30,lo8(text)
 889 0028 F0E0      		ldi r31,hi8(text)
 890 002a A0E0      		ldi r26,lo8(tempText)
 891 002c B0E0      		ldi r27,hi8(tempText)
 892               	.L33:
 893               	.LBB63:
 376:/Users/manueldeneu/Documents/projets/dev/Monu100/MicroController/MicMonu100/MicMonu100/main.c ****     
 377:/Users/manueldeneu/Documents/projets/dev/Monu100/MicroController/MicMonu100/MicMonu100/main.c ****     for( uint8_t i =0; i<TEXT_LENGTH_MAX ; i++)
 378:/Users/manueldeneu/Documents/projets/dev/Monu100/MicroController/MicMonu100/MicMonu100/main.c ****     {
 379:/Users/manueldeneu/Documents/projets/dev/Monu100/MicroController/MicMonu100/MicMonu100/main.c ****         text[i] = 0;
 895               	.LM106:
 896 002e 1192      		st Z+,__zero_reg__
 380:/Users/manueldeneu/Documents/projets/dev/Monu100/MicroController/MicMonu100/MicMonu100/main.c ****         tempText[i] = 0;
 898               	.LM107:
 899 0030 1D92      		st X+,__zero_reg__
 377:/Users/manueldeneu/Documents/projets/dev/Monu100/MicroController/MicMonu100/MicMonu100/main.c ****     for( uint8_t i =0; i<TEXT_LENGTH_MAX ; i++)
 901               	.LM108:
 902 0032 20E0      		ldi r18,hi8(text+32)
 903 0034 E030      		cpi r30,lo8(text+32)
 904 0036 F207      		cpc r31,r18
 905 0038 01F4      		brne .L33
 906               	.LBE63:
 381:/Users/manueldeneu/Documents/projets/dev/Monu100/MicroController/MicMonu100/MicMonu100/main.c ****     }
 382:/Users/manueldeneu/Documents/projets/dev/Monu100/MicroController/MicMonu100/MicMonu100/main.c ****     
 383:/Users/manueldeneu/Documents/projets/dev/Monu100/MicroController/MicMonu100/MicMonu100/main.c ****     sensors_init( &_sensors );
 908               	.LM109:
 909 003a 80E0      		ldi r24,lo8(_sensors)
 910 003c 90E0      		ldi r25,hi8(_sensors)
 911 003e 0E94 0000 		call sensors_init
 384:/Users/manueldeneu/Documents/projets/dev/Monu100/MicroController/MicMonu100/MicMonu100/main.c ****     _sensors.display = &_display;
 913               	.LM110:
 914 0042 80E0      		ldi r24,lo8(_display)
 915 0044 90E0      		ldi r25,hi8(_display)
 916 0046 9093 0000 		sts _sensors+10+1,r25
 917 004a 8093 0000 		sts _sensors+10,r24
 385:/Users/manueldeneu/Documents/projets/dev/Monu100/MicroController/MicMonu100/MicMonu100/main.c ****     
 386:/Users/manueldeneu/Documents/projets/dev/Monu100/MicroController/MicMonu100/MicMonu100/main.c ****     //display_init( &_display);
 387:/Users/manueldeneu/Documents/projets/dev/Monu100/MicroController/MicMonu100/MicMonu100/main.c **** 
 388:/Users/manueldeneu/Documents/projets/dev/Monu100/MicroController/MicMonu100/MicMonu100/main.c **** 
 389:/Users/manueldeneu/Documents/projets/dev/Monu100/MicroController/MicMonu100/MicMonu100/main.c **** 
 390:/Users/manueldeneu/Documents/projets/dev/Monu100/MicroController/MicMonu100/MicMonu100/main.c ****     setOutput(LED_DDR, LED_PIN);
 919               	.LM111:
 920 004e 089A      		sbi 0x1,0
 391:/Users/manueldeneu/Documents/projets/dev/Monu100/MicroController/MicMonu100/MicMonu100/main.c ****     setOutput( CAN_CS_DDR, CAN_CS_PIN );
 922               	.LM112:
 923 0050 389A      		sbi 0x7,0
 392:/Users/manueldeneu/Documents/projets/dev/Monu100/MicroController/MicMonu100/MicMonu100/main.c **** 
 393:/Users/manueldeneu/Documents/projets/dev/Monu100/MicroController/MicMonu100/MicMonu100/main.c ****     wdt_reset();
 925               	.LM113:
 926               	/* #APP */
 927               	 ;  393 "/Users/manueldeneu/Documents/projets/dev/Monu100/MicroController/MicMonu100/MicMonu100/mai
 928 0052 A895      		wdr
 929               	 ;  0 "" 2
 394:/Users/manueldeneu/Documents/projets/dev/Monu100/MicroController/MicMonu100/MicMonu100/main.c ****     
 395:/Users/manueldeneu/Documents/projets/dev/Monu100/MicroController/MicMonu100/MicMonu100/main.c ****     if(mcp2515_init())
 931               	.LM114:
 932               	/* #NOAPP */
 933 0054 0E94 0000 		call mcp2515_init
 934 0058 8823      		tst r24
 935 005a 01F0      		breq .L34
 396:/Users/manueldeneu/Documents/projets/dev/Monu100/MicroController/MicMonu100/MicMonu100/main.c ****         setHigh(LED_PORT, LED_PIN);
 937               	.LM115:
 938 005c 109A      		sbi 0x2,0
 939 005e 00C0      		rjmp .L35
 940               	.L34:
 397:/Users/manueldeneu/Documents/projets/dev/Monu100/MicroController/MicMonu100/MicMonu100/main.c ****     else
 398:/Users/manueldeneu/Documents/projets/dev/Monu100/MicroController/MicMonu100/MicMonu100/main.c ****         setLow(LED_PORT, LED_PIN);
 942               	.LM116:
 943 0060 1098      		cbi 0x2,0
 944               	.L35:
 945               	.LBB64:
 946               	.LBB65:
 948               	.Ltext5:
   1:/usr/local/CrossPack-AVR-20131216/avr/include/util/delay.h **** /* Copyright (c) 2002, Marek Michalkiewicz
   2:/usr/local/CrossPack-AVR-20131216/avr/include/util/delay.h ****    Copyright (c) 2004,2005,2007 Joerg Wunsch
   3:/usr/local/CrossPack-AVR-20131216/avr/include/util/delay.h ****    Copyright (c) 2007  Florin-Viorel Petrov
   4:/usr/local/CrossPack-AVR-20131216/avr/include/util/delay.h ****    All rights reserved.
   5:/usr/local/CrossPack-AVR-20131216/avr/include/util/delay.h **** 
   6:/usr/local/CrossPack-AVR-20131216/avr/include/util/delay.h ****    Redistribution and use in source and binary forms, with or without
   7:/usr/local/CrossPack-AVR-20131216/avr/include/util/delay.h ****    modification, are permitted provided that the following conditions are met:
   8:/usr/local/CrossPack-AVR-20131216/avr/include/util/delay.h **** 
   9:/usr/local/CrossPack-AVR-20131216/avr/include/util/delay.h ****    * Redistributions of source code must retain the above copyright
  10:/usr/local/CrossPack-AVR-20131216/avr/include/util/delay.h ****      notice, this list of conditions and the following disclaimer.
  11:/usr/local/CrossPack-AVR-20131216/avr/include/util/delay.h **** 
  12:/usr/local/CrossPack-AVR-20131216/avr/include/util/delay.h ****    * Redistributions in binary form must reproduce the above copyright
  13:/usr/local/CrossPack-AVR-20131216/avr/include/util/delay.h ****      notice, this list of conditions and the following disclaimer in
  14:/usr/local/CrossPack-AVR-20131216/avr/include/util/delay.h ****      the documentation and/or other materials provided with the
  15:/usr/local/CrossPack-AVR-20131216/avr/include/util/delay.h ****      distribution.
  16:/usr/local/CrossPack-AVR-20131216/avr/include/util/delay.h **** 
  17:/usr/local/CrossPack-AVR-20131216/avr/include/util/delay.h ****    * Neither the name of the copyright holders nor the names of
  18:/usr/local/CrossPack-AVR-20131216/avr/include/util/delay.h ****      contributors may be used to endorse or promote products derived
  19:/usr/local/CrossPack-AVR-20131216/avr/include/util/delay.h ****      from this software without specific prior written permission.
  20:/usr/local/CrossPack-AVR-20131216/avr/include/util/delay.h **** 
  21:/usr/local/CrossPack-AVR-20131216/avr/include/util/delay.h ****   THIS SOFTWARE IS PROVIDED BY THE COPYRIGHT HOLDERS AND CONTRIBUTORS "AS IS"
  22:/usr/local/CrossPack-AVR-20131216/avr/include/util/delay.h ****   AND ANY EXPRESS OR IMPLIED WARRANTIES, INCLUDING, BUT NOT LIMITED TO, THE
  23:/usr/local/CrossPack-AVR-20131216/avr/include/util/delay.h ****   IMPLIED WARRANTIES OF MERCHANTABILITY AND FITNESS FOR A PARTICULAR PURPOSE
  24:/usr/local/CrossPack-AVR-20131216/avr/include/util/delay.h ****   ARE DISCLAIMED. IN NO EVENT SHALL THE COPYRIGHT OWNER OR CONTRIBUTORS BE
  25:/usr/local/CrossPack-AVR-20131216/avr/include/util/delay.h ****   LIABLE FOR ANY DIRECT, INDIRECT, INCIDENTAL, SPECIAL, EXEMPLARY, OR
  26:/usr/local/CrossPack-AVR-20131216/avr/include/util/delay.h ****   CONSEQUENTIAL DAMAGES (INCLUDING, BUT NOT LIMITED TO, PROCUREMENT OF
  27:/usr/local/CrossPack-AVR-20131216/avr/include/util/delay.h ****   SUBSTITUTE GOODS OR SERVICES; LOSS OF USE, DATA, OR PROFITS; OR BUSINESS
  28:/usr/local/CrossPack-AVR-20131216/avr/include/util/delay.h ****   INTERRUPTION) HOWEVER CAUSED AND ON ANY THEORY OF LIABILITY, WHETHER IN
  29:/usr/local/CrossPack-AVR-20131216/avr/include/util/delay.h ****   CONTRACT, STRICT LIABILITY, OR TORT (INCLUDING NEGLIGENCE OR OTHERWISE)
  30:/usr/local/CrossPack-AVR-20131216/avr/include/util/delay.h ****   ARISING IN ANY WAY OUT OF THE USE OF THIS SOFTWARE, EVEN IF ADVISED OF THE
  31:/usr/local/CrossPack-AVR-20131216/avr/include/util/delay.h ****   POSSIBILITY OF SUCH DAMAGE. */
  32:/usr/local/CrossPack-AVR-20131216/avr/include/util/delay.h **** 
  33:/usr/local/CrossPack-AVR-20131216/avr/include/util/delay.h **** /* $Id$ */
  34:/usr/local/CrossPack-AVR-20131216/avr/include/util/delay.h **** 
  35:/usr/local/CrossPack-AVR-20131216/avr/include/util/delay.h **** #ifndef _UTIL_DELAY_H_
  36:/usr/local/CrossPack-AVR-20131216/avr/include/util/delay.h **** #define _UTIL_DELAY_H_ 1
  37:/usr/local/CrossPack-AVR-20131216/avr/include/util/delay.h **** 
  38:/usr/local/CrossPack-AVR-20131216/avr/include/util/delay.h **** #ifndef __HAS_DELAY_CYCLES
  39:/usr/local/CrossPack-AVR-20131216/avr/include/util/delay.h **** #define __HAS_DELAY_CYCLES 1
  40:/usr/local/CrossPack-AVR-20131216/avr/include/util/delay.h **** #endif
  41:/usr/local/CrossPack-AVR-20131216/avr/include/util/delay.h **** 
  42:/usr/local/CrossPack-AVR-20131216/avr/include/util/delay.h **** #include <inttypes.h>
  43:/usr/local/CrossPack-AVR-20131216/avr/include/util/delay.h **** #include <util/delay_basic.h>
  44:/usr/local/CrossPack-AVR-20131216/avr/include/util/delay.h **** #include <math.h>
  45:/usr/local/CrossPack-AVR-20131216/avr/include/util/delay.h **** 
  46:/usr/local/CrossPack-AVR-20131216/avr/include/util/delay.h **** /** \file */
  47:/usr/local/CrossPack-AVR-20131216/avr/include/util/delay.h **** /** \defgroup util_delay <util/delay.h>: Convenience functions for busy-wait delay loops
  48:/usr/local/CrossPack-AVR-20131216/avr/include/util/delay.h ****     \code
  49:/usr/local/CrossPack-AVR-20131216/avr/include/util/delay.h ****     #define F_CPU 1000000UL  // 1 MHz
  50:/usr/local/CrossPack-AVR-20131216/avr/include/util/delay.h ****     //#define F_CPU 14.7456E6
  51:/usr/local/CrossPack-AVR-20131216/avr/include/util/delay.h ****     #include <util/delay.h>
  52:/usr/local/CrossPack-AVR-20131216/avr/include/util/delay.h ****     \endcode
  53:/usr/local/CrossPack-AVR-20131216/avr/include/util/delay.h **** 
  54:/usr/local/CrossPack-AVR-20131216/avr/include/util/delay.h ****     \note As an alternative method, it is possible to pass the
  55:/usr/local/CrossPack-AVR-20131216/avr/include/util/delay.h ****     F_CPU macro down to the compiler from the Makefile.
  56:/usr/local/CrossPack-AVR-20131216/avr/include/util/delay.h ****     Obviously, in that case, no \c \#define statement should be
  57:/usr/local/CrossPack-AVR-20131216/avr/include/util/delay.h ****     used.
  58:/usr/local/CrossPack-AVR-20131216/avr/include/util/delay.h **** 
  59:/usr/local/CrossPack-AVR-20131216/avr/include/util/delay.h ****     The functions in this header file are wrappers around the basic
  60:/usr/local/CrossPack-AVR-20131216/avr/include/util/delay.h ****     busy-wait functions from <util/delay_basic.h>.  They are meant as
  61:/usr/local/CrossPack-AVR-20131216/avr/include/util/delay.h ****     convenience functions where actual time values can be specified
  62:/usr/local/CrossPack-AVR-20131216/avr/include/util/delay.h ****     rather than a number of cycles to wait for.  The idea behind is
  63:/usr/local/CrossPack-AVR-20131216/avr/include/util/delay.h ****     that compile-time constant expressions will be eliminated by
  64:/usr/local/CrossPack-AVR-20131216/avr/include/util/delay.h ****     compiler optimization so floating-point expressions can be used
  65:/usr/local/CrossPack-AVR-20131216/avr/include/util/delay.h ****     to calculate the number of delay cycles needed based on the CPU
  66:/usr/local/CrossPack-AVR-20131216/avr/include/util/delay.h ****     frequency passed by the macro F_CPU.
  67:/usr/local/CrossPack-AVR-20131216/avr/include/util/delay.h **** 
  68:/usr/local/CrossPack-AVR-20131216/avr/include/util/delay.h ****     \note In order for these functions to work as intended, compiler
  69:/usr/local/CrossPack-AVR-20131216/avr/include/util/delay.h ****     optimizations <em>must</em> be enabled, and the delay time
  70:/usr/local/CrossPack-AVR-20131216/avr/include/util/delay.h ****     <em>must</em> be an expression that is a known constant at
  71:/usr/local/CrossPack-AVR-20131216/avr/include/util/delay.h ****     compile-time.  If these requirements are not met, the resulting
  72:/usr/local/CrossPack-AVR-20131216/avr/include/util/delay.h ****     delay will be much longer (and basically unpredictable), and
  73:/usr/local/CrossPack-AVR-20131216/avr/include/util/delay.h ****     applications that otherwise do not use floating-point calculations
  74:/usr/local/CrossPack-AVR-20131216/avr/include/util/delay.h ****     will experience severe code bloat by the floating-point library
  75:/usr/local/CrossPack-AVR-20131216/avr/include/util/delay.h ****     routines linked into the application.
  76:/usr/local/CrossPack-AVR-20131216/avr/include/util/delay.h **** 
  77:/usr/local/CrossPack-AVR-20131216/avr/include/util/delay.h ****     The functions available allow the specification of microsecond, and
  78:/usr/local/CrossPack-AVR-20131216/avr/include/util/delay.h ****     millisecond delays directly, using the application-supplied macro
  79:/usr/local/CrossPack-AVR-20131216/avr/include/util/delay.h ****     F_CPU as the CPU clock frequency (in Hertz).
  80:/usr/local/CrossPack-AVR-20131216/avr/include/util/delay.h **** 
  81:/usr/local/CrossPack-AVR-20131216/avr/include/util/delay.h **** */
  82:/usr/local/CrossPack-AVR-20131216/avr/include/util/delay.h **** 
  83:/usr/local/CrossPack-AVR-20131216/avr/include/util/delay.h **** #if !defined(__DOXYGEN__)
  84:/usr/local/CrossPack-AVR-20131216/avr/include/util/delay.h **** static inline void _delay_us(double __us) __attribute__((always_inline));
  85:/usr/local/CrossPack-AVR-20131216/avr/include/util/delay.h **** static inline void _delay_ms(double __ms) __attribute__((always_inline));
  86:/usr/local/CrossPack-AVR-20131216/avr/include/util/delay.h **** #endif
  87:/usr/local/CrossPack-AVR-20131216/avr/include/util/delay.h **** 
  88:/usr/local/CrossPack-AVR-20131216/avr/include/util/delay.h **** #ifndef F_CPU
  89:/usr/local/CrossPack-AVR-20131216/avr/include/util/delay.h **** /* prevent compiler error by supplying a default */
  90:/usr/local/CrossPack-AVR-20131216/avr/include/util/delay.h **** # warning "F_CPU not defined for <util/delay.h>"
  91:/usr/local/CrossPack-AVR-20131216/avr/include/util/delay.h **** # define F_CPU 1000000UL
  92:/usr/local/CrossPack-AVR-20131216/avr/include/util/delay.h **** #endif
  93:/usr/local/CrossPack-AVR-20131216/avr/include/util/delay.h **** 
  94:/usr/local/CrossPack-AVR-20131216/avr/include/util/delay.h **** #ifndef __OPTIMIZE__
  95:/usr/local/CrossPack-AVR-20131216/avr/include/util/delay.h **** # warning "Compiler optimizations disabled; functions from <util/delay.h> won't work as designed"
  96:/usr/local/CrossPack-AVR-20131216/avr/include/util/delay.h **** #endif
  97:/usr/local/CrossPack-AVR-20131216/avr/include/util/delay.h **** 
  98:/usr/local/CrossPack-AVR-20131216/avr/include/util/delay.h **** #if __HAS_DELAY_CYCLES && defined(__OPTIMIZE__) && \
  99:/usr/local/CrossPack-AVR-20131216/avr/include/util/delay.h ****   !defined(__DELAY_BACKWARD_COMPATIBLE__) &&	   \
 100:/usr/local/CrossPack-AVR-20131216/avr/include/util/delay.h ****   __STDC_HOSTED__
 101:/usr/local/CrossPack-AVR-20131216/avr/include/util/delay.h **** #  include <math.h>
 102:/usr/local/CrossPack-AVR-20131216/avr/include/util/delay.h **** #endif
 103:/usr/local/CrossPack-AVR-20131216/avr/include/util/delay.h **** 
 104:/usr/local/CrossPack-AVR-20131216/avr/include/util/delay.h **** /**
 105:/usr/local/CrossPack-AVR-20131216/avr/include/util/delay.h ****    \ingroup util_delay
 106:/usr/local/CrossPack-AVR-20131216/avr/include/util/delay.h **** 
 107:/usr/local/CrossPack-AVR-20131216/avr/include/util/delay.h ****    Perform a delay of \c __ms milliseconds, using _delay_loop_2().
 108:/usr/local/CrossPack-AVR-20131216/avr/include/util/delay.h **** 
 109:/usr/local/CrossPack-AVR-20131216/avr/include/util/delay.h ****    The macro F_CPU is supposed to be defined to a
 110:/usr/local/CrossPack-AVR-20131216/avr/include/util/delay.h ****    constant defining the CPU clock frequency (in Hertz).
 111:/usr/local/CrossPack-AVR-20131216/avr/include/util/delay.h **** 
 112:/usr/local/CrossPack-AVR-20131216/avr/include/util/delay.h ****    The maximal possible delay is 262.14 ms / F_CPU in MHz.
 113:/usr/local/CrossPack-AVR-20131216/avr/include/util/delay.h **** 
 114:/usr/local/CrossPack-AVR-20131216/avr/include/util/delay.h ****    When the user request delay which exceed the maximum possible one,
 115:/usr/local/CrossPack-AVR-20131216/avr/include/util/delay.h ****    _delay_ms() provides a decreased resolution functionality. In this
 116:/usr/local/CrossPack-AVR-20131216/avr/include/util/delay.h ****    mode _delay_ms() will work with a resolution of 1/10 ms, providing
 117:/usr/local/CrossPack-AVR-20131216/avr/include/util/delay.h ****    delays up to 6.5535 seconds (independent from CPU frequency).  The
 118:/usr/local/CrossPack-AVR-20131216/avr/include/util/delay.h ****    user will not be informed about decreased resolution.
 119:/usr/local/CrossPack-AVR-20131216/avr/include/util/delay.h **** 
 120:/usr/local/CrossPack-AVR-20131216/avr/include/util/delay.h ****    If the avr-gcc toolchain has __builtin_avr_delay_cycles(unsigned long)
 121:/usr/local/CrossPack-AVR-20131216/avr/include/util/delay.h ****    support, maximal possible delay is 4294967.295 ms/ F_CPU in MHz. For
 122:/usr/local/CrossPack-AVR-20131216/avr/include/util/delay.h ****    values greater than the maximal possible delay, overflows results in
 123:/usr/local/CrossPack-AVR-20131216/avr/include/util/delay.h ****    no delay i.e., 0ms.
 124:/usr/local/CrossPack-AVR-20131216/avr/include/util/delay.h **** 
 125:/usr/local/CrossPack-AVR-20131216/avr/include/util/delay.h ****    Conversion of __us into clock cycles may not always result in integer.
 126:/usr/local/CrossPack-AVR-20131216/avr/include/util/delay.h ****    By default, the clock cycles rounded up to next integer. This ensures that
 127:/usr/local/CrossPack-AVR-20131216/avr/include/util/delay.h ****    the user gets atleast __us microseconds of delay.
 128:/usr/local/CrossPack-AVR-20131216/avr/include/util/delay.h **** 
 129:/usr/local/CrossPack-AVR-20131216/avr/include/util/delay.h ****    Alternatively, user can define __DELAY_ROUND_DOWN__ and __DELAY_ROUND_CLOSEST__
 130:/usr/local/CrossPack-AVR-20131216/avr/include/util/delay.h ****    to round down and round to closest integer.
 131:/usr/local/CrossPack-AVR-20131216/avr/include/util/delay.h **** 
 132:/usr/local/CrossPack-AVR-20131216/avr/include/util/delay.h ****    Note: The new implementation of _delay_ms(double __ms) with 
 133:/usr/local/CrossPack-AVR-20131216/avr/include/util/delay.h ****     __builtin_avr_delay_cycles(unsigned long) support is not backward compatible. 
 134:/usr/local/CrossPack-AVR-20131216/avr/include/util/delay.h ****    User can define __DELAY_BACKWARD_COMPATIBLE__ to get a backward compatible delay.
 135:/usr/local/CrossPack-AVR-20131216/avr/include/util/delay.h ****    Also, the backward compatible
 136:/usr/local/CrossPack-AVR-20131216/avr/include/util/delay.h ****    algorithm will be chosen if the code is compiled in a <em>freestanding
 137:/usr/local/CrossPack-AVR-20131216/avr/include/util/delay.h ****    environment</em> (GCC option \c -ffreestanding), as the math functions
 138:/usr/local/CrossPack-AVR-20131216/avr/include/util/delay.h ****    required for rounding are not available to the compiler then.
 139:/usr/local/CrossPack-AVR-20131216/avr/include/util/delay.h **** 
 140:/usr/local/CrossPack-AVR-20131216/avr/include/util/delay.h ****  */
 141:/usr/local/CrossPack-AVR-20131216/avr/include/util/delay.h **** void
 142:/usr/local/CrossPack-AVR-20131216/avr/include/util/delay.h **** _delay_ms(double __ms)
 143:/usr/local/CrossPack-AVR-20131216/avr/include/util/delay.h **** {
 144:/usr/local/CrossPack-AVR-20131216/avr/include/util/delay.h **** 	double __tmp ; 
 145:/usr/local/CrossPack-AVR-20131216/avr/include/util/delay.h **** #if __HAS_DELAY_CYCLES && defined(__OPTIMIZE__) && \
 146:/usr/local/CrossPack-AVR-20131216/avr/include/util/delay.h ****   !defined(__DELAY_BACKWARD_COMPATIBLE__) &&	   \
 147:/usr/local/CrossPack-AVR-20131216/avr/include/util/delay.h ****   __STDC_HOSTED__
 148:/usr/local/CrossPack-AVR-20131216/avr/include/util/delay.h **** 	uint32_t __ticks_dc;
 149:/usr/local/CrossPack-AVR-20131216/avr/include/util/delay.h **** 	extern void __builtin_avr_delay_cycles(unsigned long);
 150:/usr/local/CrossPack-AVR-20131216/avr/include/util/delay.h **** 	__tmp = ((F_CPU) / 1e3) * __ms;
 151:/usr/local/CrossPack-AVR-20131216/avr/include/util/delay.h **** 
 152:/usr/local/CrossPack-AVR-20131216/avr/include/util/delay.h **** 	#if defined(__DELAY_ROUND_DOWN__)
 153:/usr/local/CrossPack-AVR-20131216/avr/include/util/delay.h **** 		__ticks_dc = (uint32_t)fabs(__tmp);
 154:/usr/local/CrossPack-AVR-20131216/avr/include/util/delay.h **** 
 155:/usr/local/CrossPack-AVR-20131216/avr/include/util/delay.h **** 	#elif defined(__DELAY_ROUND_CLOSEST__)
 156:/usr/local/CrossPack-AVR-20131216/avr/include/util/delay.h **** 		__ticks_dc = (uint32_t)(fabs(__tmp)+0.5);
 157:/usr/local/CrossPack-AVR-20131216/avr/include/util/delay.h **** 
 158:/usr/local/CrossPack-AVR-20131216/avr/include/util/delay.h **** 	#else
 159:/usr/local/CrossPack-AVR-20131216/avr/include/util/delay.h **** 		//round up by default
 160:/usr/local/CrossPack-AVR-20131216/avr/include/util/delay.h **** 		__ticks_dc = (uint32_t)(ceil(fabs(__tmp)));
 161:/usr/local/CrossPack-AVR-20131216/avr/include/util/delay.h **** 	#endif
 162:/usr/local/CrossPack-AVR-20131216/avr/include/util/delay.h **** 
 163:/usr/local/CrossPack-AVR-20131216/avr/include/util/delay.h **** 	__builtin_avr_delay_cycles(__ticks_dc);
 950               	.LM117:
 951 0062 8FEF      		ldi r24,lo8(639999)
 952 0064 93EC      		ldi r25,hi8(639999)
 953 0066 29E0      		ldi r18,hlo8(639999)
 954 0068 8150      		1: subi r24,1
 955 006a 9040      		sbci r25,0
 956 006c 2040      		sbci r18,0
 957 006e 01F4      		brne 1b
 958 0070 00C0      		rjmp .
 959 0072 0000      		nop
 960               	.LBE65:
 961               	.LBE64:
 963               	.Ltext6:
 399:/Users/manueldeneu/Documents/projets/dev/Monu100/MicroController/MicMonu100/MicMonu100/main.c **** 
 400:/Users/manueldeneu/Documents/projets/dev/Monu100/MicroController/MicMonu100/MicMonu100/main.c ****     _delay_ms(200);
 401:/Users/manueldeneu/Documents/projets/dev/Monu100/MicroController/MicMonu100/MicMonu100/main.c ****     //sei();
 402:/Users/manueldeneu/Documents/projets/dev/Monu100/MicroController/MicMonu100/MicMonu100/main.c ****     
 403:/Users/manueldeneu/Documents/projets/dev/Monu100/MicroController/MicMonu100/MicMonu100/main.c ****     /* END OF INIT */
 404:/Users/manueldeneu/Documents/projets/dev/Monu100/MicroController/MicMonu100/MicMonu100/main.c ****     wdt_reset();
 965               	.LM118:
 966               	/* #APP */
 967               	 ;  404 "/Users/manueldeneu/Documents/projets/dev/Monu100/MicroController/MicMonu100/MicMonu100/mai
 968 0074 A895      		wdr
 969               	 ;  0 "" 2
 970               	/* #NOAPP */
 971               	.LBB66:
 972               	.LBB67:
 974               	.Ltext7:
  78:/Users/manueldeneu/Documents/projets/dev/Monu100/MicroController/MicMonu100/MicMonu100/Display.h ****     display_clearZoneDraw( display ,0,0 , X_TLC_MAX ,Y_MIC_MAX  );
 976               	.LM119:
 977 0076 04E1      		ldi r16,lo8(20)
 978 0078 2EE1      		ldi r18,lo8(30)
 979 007a 40E0      		ldi r20,0
 980 007c 60E0      		ldi r22,0
 981 007e 80E0      		ldi r24,lo8(_display)
 982 0080 90E0      		ldi r25,hi8(_display)
 983 0082 0E94 0000 		call display_clearZoneDraw
  79:/Users/manueldeneu/Documents/projets/dev/Monu100/MicroController/MicMonu100/MicMonu100/Display.h ****     display_clearZoneText( display ,0,0 , X_TLC_MAX ,Y_MIC_MAX  );
 985               	.LM120:
 986 0086 2EE1      		ldi r18,lo8(30)
 987 0088 40E0      		ldi r20,0
 988 008a 60E0      		ldi r22,0
 989 008c 80E0      		ldi r24,lo8(_display)
 990 008e 90E0      		ldi r25,hi8(_display)
 991 0090 0E94 0000 		call display_clearZoneText
 992               	.LBE67:
 993               	.LBE66:
 995               	.Ltext8:
 405:/Users/manueldeneu/Documents/projets/dev/Monu100/MicroController/MicMonu100/MicMonu100/main.c ****     
 406:/Users/manueldeneu/Documents/projets/dev/Monu100/MicroController/MicMonu100/MicMonu100/main.c ****     display_clearAll(&_display);
 407:/Users/manueldeneu/Documents/projets/dev/Monu100/MicroController/MicMonu100/MicMonu100/main.c ****     
 408:/Users/manueldeneu/Documents/projets/dev/Monu100/MicroController/MicMonu100/MicMonu100/main.c ****     char name[7] = "A";
 997               	.LM121:
 998 0094 81E4      		ldi r24,lo8(65)
 999 0096 90E0      		ldi r25,0
 1000 0098 A0E0      		ldi r26,0
 1001 009a B0E0      		ldi r27,0
 1002 009c 8983      		std Y+1,r24
 1003 009e 9A83      		std Y+2,r25
 1004 00a0 AB83      		std Y+3,r26
 1005 00a2 BC83      		std Y+4,r27
 1006 00a4 1D82      		std Y+5,__zero_reg__
 1007 00a6 1E82      		std Y+6,__zero_reg__
 1008 00a8 1F82      		std Y+7,__zero_reg__
 409:/Users/manueldeneu/Documents/projets/dev/Monu100/MicroController/MicMonu100/MicMonu100/main.c **** 
 410:/Users/manueldeneu/Documents/projets/dev/Monu100/MicroController/MicMonu100/MicMonu100/main.c ****     sprintf(name, "%i", (int)canID );
 1010               	.LM122:
 1011 00aa 8091 0000 		lds r24,canID
 1012 00ae 1F92      		push __zero_reg__
 1013 00b0 8F93      		push r24
 1014 00b2 80E0      		ldi r24,lo8(.LC1)
 1015 00b4 90E0      		ldi r25,hi8(.LC1)
 1016 00b6 9F93      		push r25
 1017 00b8 8F93      		push r24
 1018 00ba CE01      		movw r24,r28
 1019 00bc 0196      		adiw r24,1
 1020 00be 6C01      		movw r12,r24
 1021 00c0 DF92      		push r13
 1022 00c2 8F93      		push r24
 1023 00c4 0E94 0000 		call sprintf
 411:/Users/manueldeneu/Documents/projets/dev/Monu100/MicroController/MicMonu100/MicMonu100/main.c ****     display_write(&_display, name, 2, 10, 0 , 0);
 1025               	.LM123:
 1026 00c8 E12C      		mov r14,__zero_reg__
 1027 00ca 00E0      		ldi r16,0
 1028 00cc 2AE0      		ldi r18,lo8(10)
 1029 00ce 42E0      		ldi r20,lo8(2)
 1030 00d0 B601      		movw r22,r12
 1031 00d2 80E0      		ldi r24,lo8(_display)
 1032 00d4 90E0      		ldi r25,hi8(_display)
 1033 00d6 0E94 0000 		call display_write
 1034               	.LBB68:
 1035               	.LBB69:
 1037               	.Ltext9:
 1039               	.LM124:
 1040 00da 9FEF      		ldi r25,lo8(3199999)
 1041 00dc 23ED      		ldi r18,hi8(3199999)
 1042 00de 80E3      		ldi r24,hlo8(3199999)
 1043 00e0 9150      		1: subi r25,1
 1044 00e2 2040      		sbci r18,0
 1045 00e4 8040      		sbci r24,0
 1046 00e6 01F4      		brne 1b
 1047 00e8 00C0      		rjmp .
 1048 00ea 0000      		nop
 1049               	.LBE69:
 1050               	.LBE68:
 1052               	.Ltext10:
 412:/Users/manueldeneu/Documents/projets/dev/Monu100/MicroController/MicMonu100/MicMonu100/main.c **** 
 413:/Users/manueldeneu/Documents/projets/dev/Monu100/MicroController/MicMonu100/MicMonu100/main.c ****     _delay_ms(1000);
 414:/Users/manueldeneu/Documents/projets/dev/Monu100/MicroController/MicMonu100/MicMonu100/main.c ****     sendState();
 1054               	.LM125:
 1055 00ec 0E94 0000 		call sendState
 415:/Users/manueldeneu/Documents/projets/dev/Monu100/MicroController/MicMonu100/MicMonu100/main.c ****     
 416:/Users/manueldeneu/Documents/projets/dev/Monu100/MicroController/MicMonu100/MicMonu100/main.c ****     /* *** *** *** *** *** */
 417:/Users/manueldeneu/Documents/projets/dev/Monu100/MicroController/MicMonu100/MicMonu100/main.c **** 
 418:/Users/manueldeneu/Documents/projets/dev/Monu100/MicroController/MicMonu100/MicMonu100/main.c ****     wdt_reset();
 1057               	.LM126:
 1058               	/* #APP */
 1059               	 ;  418 "/Users/manueldeneu/Documents/projets/dev/Monu100/MicroController/MicMonu100/MicMonu100/mai
 1060 00f0 A895      		wdr
 1061               	 ;  0 "" 2
 419:/Users/manueldeneu/Documents/projets/dev/Monu100/MicroController/MicMonu100/MicMonu100/main.c **** 
 420:/Users/manueldeneu/Documents/projets/dev/Monu100/MicroController/MicMonu100/MicMonu100/main.c ****     strcpy(text, DEFAULT_NAME );
 1063               	.LM127:
 1064               	/* #NOAPP */
 1065 00f2 60E0      		ldi r22,lo8(.LC0)
 1066 00f4 70E0      		ldi r23,hi8(.LC0)
 1067 00f6 80E0      		ldi r24,lo8(text)
 1068 00f8 90E0      		ldi r25,hi8(text)
 1069 00fa 0E94 0000 		call strcpy
 1070               	.LBB70:
 1071               	.LBB71:
 1073               	.Ltext11:
  78:/Users/manueldeneu/Documents/projets/dev/Monu100/MicroController/MicMonu100/MicMonu100/Display.h ****     display_clearZoneDraw( display ,0,0 , X_TLC_MAX ,Y_MIC_MAX  );
 1075               	.LM128:
 1076 00fe 04E1      		ldi r16,lo8(20)
 1077 0100 2EE1      		ldi r18,lo8(30)
 1078 0102 40E0      		ldi r20,0
 1079 0104 60E0      		ldi r22,0
 1080 0106 80E0      		ldi r24,lo8(_display)
 1081 0108 90E0      		ldi r25,hi8(_display)
 1082 010a 0E94 0000 		call display_clearZoneDraw
  79:/Users/manueldeneu/Documents/projets/dev/Monu100/MicroController/MicMonu100/MicMonu100/Display.h ****     display_clearZoneText( display ,0,0 , X_TLC_MAX ,Y_MIC_MAX  );
 1084               	.LM129:
 1085 010e 2EE1      		ldi r18,lo8(30)
 1086 0110 40E0      		ldi r20,0
 1087 0112 60E0      		ldi r22,0
 1088 0114 80E0      		ldi r24,lo8(_display)
 1089 0116 90E0      		ldi r25,hi8(_display)
 1090 0118 0E94 0000 		call display_clearZoneText
 1091               	.LBE71:
 1092               	.LBE70:
 1094               	.Ltext12:
 421:/Users/manueldeneu/Documents/projets/dev/Monu100/MicroController/MicMonu100/MicMonu100/main.c **** 
 422:/Users/manueldeneu/Documents/projets/dev/Monu100/MicroController/MicMonu100/MicMonu100/main.c ****     
 423:/Users/manueldeneu/Documents/projets/dev/Monu100/MicroController/MicMonu100/MicMonu100/main.c ****     display_clearAll(&_display);
 424:/Users/manueldeneu/Documents/projets/dev/Monu100/MicroController/MicMonu100/MicMonu100/main.c **** 
 425:/Users/manueldeneu/Documents/projets/dev/Monu100/MicroController/MicMonu100/MicMonu100/main.c ****     updateScreen();
 1096               	.LM130:
 1097 011c 0E94 0000 		call updateScreen
 1098 0120 0F90      		pop __tmp_reg__
 1099 0122 0F90      		pop __tmp_reg__
 1100 0124 0F90      		pop __tmp_reg__
 1101 0126 0F90      		pop __tmp_reg__
 1102 0128 0F90      		pop __tmp_reg__
 1103 012a 0F90      		pop __tmp_reg__
 1104               	.L37:
 1105               	.LBB72:
 1106               	.LBB73:
 1108               	.Ltext13:
   1:/Users/manueldeneu/Documents/projets/dev/Monu100/MicroController/MicMonu100/MicMonu100/Sensors.h **** //
   2:/Users/manueldeneu/Documents/projets/dev/Monu100/MicroController/MicMonu100/MicMonu100/Sensors.h **** //  Sensors.h
   3:/Users/manueldeneu/Documents/projets/dev/Monu100/MicroController/MicMonu100/MicMonu100/Sensors.h **** //  MicMonu100
   4:/Users/manueldeneu/Documents/projets/dev/Monu100/MicroController/MicMonu100/MicMonu100/Sensors.h **** //
   5:/Users/manueldeneu/Documents/projets/dev/Monu100/MicroController/MicMonu100/MicMonu100/Sensors.h **** //  Created by Manuel Deneu on 01/03/15.
   6:/Users/manueldeneu/Documents/projets/dev/Monu100/MicroController/MicMonu100/MicMonu100/Sensors.h **** //  Copyright (c) 2015 Manuel Deneu. All rights reserved.
   7:/Users/manueldeneu/Documents/projets/dev/Monu100/MicroController/MicMonu100/MicMonu100/Sensors.h **** //
   8:/Users/manueldeneu/Documents/projets/dev/Monu100/MicroController/MicMonu100/MicMonu100/Sensors.h **** 
   9:/Users/manueldeneu/Documents/projets/dev/Monu100/MicroController/MicMonu100/MicMonu100/Sensors.h **** #include "Display.h"
  10:/Users/manueldeneu/Documents/projets/dev/Monu100/MicroController/MicMonu100/MicMonu100/Sensors.h **** 
  11:/Users/manueldeneu/Documents/projets/dev/Monu100/MicroController/MicMonu100/MicMonu100/Sensors.h **** #ifndef MicMonu100_Sensors_h
  12:/Users/manueldeneu/Documents/projets/dev/Monu100/MicroController/MicMonu100/MicMonu100/Sensors.h **** #define MicMonu100_Sensors_h
  13:/Users/manueldeneu/Documents/projets/dev/Monu100/MicroController/MicMonu100/MicMonu100/Sensors.h **** 
  14:/Users/manueldeneu/Documents/projets/dev/Monu100/MicroController/MicMonu100/MicMonu100/Sensors.h **** /* *** *** *** *** *** *** *** *** *** *** *** *** *** *** */
  15:/Users/manueldeneu/Documents/projets/dev/Monu100/MicroController/MicMonu100/MicMonu100/Sensors.h **** 
  16:/Users/manueldeneu/Documents/projets/dev/Monu100/MicroController/MicMonu100/MicMonu100/Sensors.h **** #define SENSOR_COUNT     15
  17:/Users/manueldeneu/Documents/projets/dev/Monu100/MicroController/MicMonu100/MicMonu100/Sensors.h **** #define MIC_SENSOR_COUNT 10
  18:/Users/manueldeneu/Documents/projets/dev/Monu100/MicroController/MicMonu100/MicMonu100/Sensors.h **** 
  19:/Users/manueldeneu/Documents/projets/dev/Monu100/MicroController/MicMonu100/MicMonu100/Sensors.h **** #define MIN_BLOB_SIZE 2
  20:/Users/manueldeneu/Documents/projets/dev/Monu100/MicroController/MicMonu100/MicMonu100/Sensors.h **** #define MAX_BLOB_SIZE 6
  21:/Users/manueldeneu/Documents/projets/dev/Monu100/MicroController/MicMonu100/MicMonu100/Sensors.h **** 
  22:/Users/manueldeneu/Documents/projets/dev/Monu100/MicroController/MicMonu100/MicMonu100/Sensors.h **** #define BLOB_MARGIN  3
  23:/Users/manueldeneu/Documents/projets/dev/Monu100/MicroController/MicMonu100/MicMonu100/Sensors.h **** 
  24:/Users/manueldeneu/Documents/projets/dev/Monu100/MicroController/MicMonu100/MicMonu100/Sensors.h **** #define BLOB_LIGHT   255
  25:/Users/manueldeneu/Documents/projets/dev/Monu100/MicroController/MicMonu100/MicMonu100/Sensors.h **** #define BLOB_SHADOW  0
  26:/Users/manueldeneu/Documents/projets/dev/Monu100/MicroController/MicMonu100/MicMonu100/Sensors.h **** 
  27:/Users/manueldeneu/Documents/projets/dev/Monu100/MicroController/MicMonu100/MicMonu100/Sensors.h **** #define SEUIL_LIGHT  254
  28:/Users/manueldeneu/Documents/projets/dev/Monu100/MicroController/MicMonu100/MicMonu100/Sensors.h **** #define SEUIL_SHADOW 50
  29:/Users/manueldeneu/Documents/projets/dev/Monu100/MicroController/MicMonu100/MicMonu100/Sensors.h **** 
  30:/Users/manueldeneu/Documents/projets/dev/Monu100/MicroController/MicMonu100/MicMonu100/Sensors.h **** /* *** *** *** *** *** *** *** *** *** *** *** *** *** *** */
  31:/Users/manueldeneu/Documents/projets/dev/Monu100/MicroController/MicMonu100/MicMonu100/Sensors.h **** 
  32:/Users/manueldeneu/Documents/projets/dev/Monu100/MicroController/MicMonu100/MicMonu100/Sensors.h **** struct _Sensors
  33:/Users/manueldeneu/Documents/projets/dev/Monu100/MicroController/MicMonu100/MicMonu100/Sensors.h **** {
  34:/Users/manueldeneu/Documents/projets/dev/Monu100/MicroController/MicMonu100/MicMonu100/Sensors.h **** //    uint16_t calibValues[ SENSOR_COUNT ][ MIC_SENSOR_COUNT ];
  35:/Users/manueldeneu/Documents/projets/dev/Monu100/MicroController/MicMonu100/MicMonu100/Sensors.h ****     
  36:/Users/manueldeneu/Documents/projets/dev/Monu100/MicroController/MicMonu100/MicMonu100/Sensors.h ****     
  37:/Users/manueldeneu/Documents/projets/dev/Monu100/MicroController/MicMonu100/MicMonu100/Sensors.h ****     uint8_t lowTreshold;
  38:/Users/manueldeneu/Documents/projets/dev/Monu100/MicroController/MicMonu100/MicMonu100/Sensors.h ****     uint8_t highTreshold;
  39:/Users/manueldeneu/Documents/projets/dev/Monu100/MicroController/MicMonu100/MicMonu100/Sensors.h ****     float moyenne;
  40:/Users/manueldeneu/Documents/projets/dev/Monu100/MicroController/MicMonu100/MicMonu100/Sensors.h ****     float prevMoyenne;
  41:/Users/manueldeneu/Documents/projets/dev/Monu100/MicroController/MicMonu100/MicMonu100/Sensors.h ****     
  42:/Users/manueldeneu/Documents/projets/dev/Monu100/MicroController/MicMonu100/MicMonu100/Sensors.h ****     Display* display;
  43:/Users/manueldeneu/Documents/projets/dev/Monu100/MicroController/MicMonu100/MicMonu100/Sensors.h ****     
  44:/Users/manueldeneu/Documents/projets/dev/Monu100/MicroController/MicMonu100/MicMonu100/Sensors.h ****     uint8_t currentRow;
  45:/Users/manueldeneu/Documents/projets/dev/Monu100/MicroController/MicMonu100/MicMonu100/Sensors.h ****     
  46:/Users/manueldeneu/Documents/projets/dev/Monu100/MicroController/MicMonu100/MicMonu100/Sensors.h ****     uint8_t values    [ SENSOR_COUNT ][ MIC_SENSOR_COUNT ];
  47:/Users/manueldeneu/Documents/projets/dev/Monu100/MicroController/MicMonu100/MicMonu100/Sensors.h **** 
  48:/Users/manueldeneu/Documents/projets/dev/Monu100/MicroController/MicMonu100/MicMonu100/Sensors.h ****     
  49:/Users/manueldeneu/Documents/projets/dev/Monu100/MicroController/MicMonu100/MicMonu100/Sensors.h ****     uint8_t shadowX;
  50:/Users/manueldeneu/Documents/projets/dev/Monu100/MicroController/MicMonu100/MicMonu100/Sensors.h ****     uint8_t shadowY;
  51:/Users/manueldeneu/Documents/projets/dev/Monu100/MicroController/MicMonu100/MicMonu100/Sensors.h ****     uint8_t shadowSize;
  52:/Users/manueldeneu/Documents/projets/dev/Monu100/MicroController/MicMonu100/MicMonu100/Sensors.h ****     
  53:/Users/manueldeneu/Documents/projets/dev/Monu100/MicroController/MicMonu100/MicMonu100/Sensors.h ****     uint8_t lightX;
  54:/Users/manueldeneu/Documents/projets/dev/Monu100/MicroController/MicMonu100/MicMonu100/Sensors.h ****     uint8_t lightY;
  55:/Users/manueldeneu/Documents/projets/dev/Monu100/MicroController/MicMonu100/MicMonu100/Sensors.h ****     uint8_t lightSize;
  56:/Users/manueldeneu/Documents/projets/dev/Monu100/MicroController/MicMonu100/MicMonu100/Sensors.h **** };
  57:/Users/manueldeneu/Documents/projets/dev/Monu100/MicroController/MicMonu100/MicMonu100/Sensors.h **** typedef struct _Sensors Sensors;
  58:/Users/manueldeneu/Documents/projets/dev/Monu100/MicroController/MicMonu100/MicMonu100/Sensors.h **** 
  59:/Users/manueldeneu/Documents/projets/dev/Monu100/MicroController/MicMonu100/MicMonu100/Sensors.h **** inline uint8_t mapXFromSensors( const uint8_t i )
  60:/Users/manueldeneu/Documents/projets/dev/Monu100/MicroController/MicMonu100/MicMonu100/Sensors.h **** {
  61:/Users/manueldeneu/Documents/projets/dev/Monu100/MicroController/MicMonu100/MicMonu100/Sensors.h ****     return (i*2);
  62:/Users/manueldeneu/Documents/projets/dev/Monu100/MicroController/MicMonu100/MicMonu100/Sensors.h **** }
  63:/Users/manueldeneu/Documents/projets/dev/Monu100/MicroController/MicMonu100/MicMonu100/Sensors.h **** 
  64:/Users/manueldeneu/Documents/projets/dev/Monu100/MicroController/MicMonu100/MicMonu100/Sensors.h **** inline uint8_t mapYFromSensors( const uint8_t j )
  65:/Users/manueldeneu/Documents/projets/dev/Monu100/MicroController/MicMonu100/MicMonu100/Sensors.h **** {
  66:/Users/manueldeneu/Documents/projets/dev/Monu100/MicroController/MicMonu100/MicMonu100/Sensors.h ****     return (14-j)*2;
  67:/Users/manueldeneu/Documents/projets/dev/Monu100/MicroController/MicMonu100/MicMonu100/Sensors.h **** }
  68:/Users/manueldeneu/Documents/projets/dev/Monu100/MicroController/MicMonu100/MicMonu100/Sensors.h **** 
  69:/Users/manueldeneu/Documents/projets/dev/Monu100/MicroController/MicMonu100/MicMonu100/Sensors.h **** 
  70:/Users/manueldeneu/Documents/projets/dev/Monu100/MicroController/MicMonu100/MicMonu100/Sensors.h **** void readRow( Sensors *sensors , uint8_t *buffer);
  71:/Users/manueldeneu/Documents/projets/dev/Monu100/MicroController/MicMonu100/MicMonu100/Sensors.h **** 
  72:/Users/manueldeneu/Documents/projets/dev/Monu100/MicroController/MicMonu100/MicMonu100/Sensors.h **** inline uint8_t readOne( Sensors* sensors)
  73:/Users/manueldeneu/Documents/projets/dev/Monu100/MicroController/MicMonu100/MicMonu100/Sensors.h **** {
  74:/Users/manueldeneu/Documents/projets/dev/Monu100/MicroController/MicMonu100/MicMonu100/Sensors.h ****     uint8_t ret = 0;
  75:/Users/manueldeneu/Documents/projets/dev/Monu100/MicroController/MicMonu100/MicMonu100/Sensors.h ****     if ( sensors->currentRow == MIC_SENSOR_COUNT)
 1110               	.LM131:
 1111 012c 8091 0000 		lds r24,_sensors+12
 1112 0130 8A30      		cpi r24,lo8(10)
 1113 0132 01F4      		brne .L36
  76:/Users/manueldeneu/Documents/projets/dev/Monu100/MicroController/MicMonu100/MicMonu100/Sensors.h ****     {
  77:/Users/manueldeneu/Documents/projets/dev/Monu100/MicroController/MicMonu100/MicMonu100/Sensors.h ****         ret = 1;
  78:/Users/manueldeneu/Documents/projets/dev/Monu100/MicroController/MicMonu100/MicMonu100/Sensors.h ****         sensors->currentRow = 0;
 1115               	.LM132:
 1116 0134 1092 0000 		sts _sensors+12,__zero_reg__
 1117               	.L36:
  79:/Users/manueldeneu/Documents/projets/dev/Monu100/MicroController/MicMonu100/MicMonu100/Sensors.h ****     }
  80:/Users/manueldeneu/Documents/projets/dev/Monu100/MicroController/MicMonu100/MicMonu100/Sensors.h ****     
  81:/Users/manueldeneu/Documents/projets/dev/Monu100/MicroController/MicMonu100/MicMonu100/Sensors.h ****     readRow(sensors, NULL);
 1119               	.LM133:
 1120 0138 60E0      		ldi r22,0
 1121 013a 70E0      		ldi r23,0
 1122 013c 80E0      		ldi r24,lo8(_sensors)
 1123 013e 90E0      		ldi r25,hi8(_sensors)
 1124 0140 0E94 0000 		call readRow
  82:/Users/manueldeneu/Documents/projets/dev/Monu100/MicroController/MicMonu100/MicMonu100/Sensors.h ****     sensors->currentRow++;
 1126               	.LM134:
 1127 0144 8091 0000 		lds r24,_sensors+12
 1128 0148 8F5F      		subi r24,lo8(-(1))
 1129 014a 8093 0000 		sts _sensors+12,r24
 1130               	.LBE73:
 1131               	.LBE72:
 1133               	.Ltext14:
 426:/Users/manueldeneu/Documents/projets/dev/Monu100/MicroController/MicMonu100/MicMonu100/main.c ****     
 427:/Users/manueldeneu/Documents/projets/dev/Monu100/MicroController/MicMonu100/MicMonu100/main.c ****     
 428:/Users/manueldeneu/Documents/projets/dev/Monu100/MicroController/MicMonu100/MicMonu100/main.c ****     //readFrame( &_sensors );
 429:/Users/manueldeneu/Documents/projets/dev/Monu100/MicroController/MicMonu100/MicMonu100/main.c ****     
 430:/Users/manueldeneu/Documents/projets/dev/Monu100/MicroController/MicMonu100/MicMonu100/main.c ****     uint8_t xx = 0;
 431:/Users/manueldeneu/Documents/projets/dev/Monu100/MicroController/MicMonu100/MicMonu100/main.c ****     uint8_t yy = 0;
 432:/Users/manueldeneu/Documents/projets/dev/Monu100/MicroController/MicMonu100/MicMonu100/main.c ****     uint8_t val  = 0;
 433:/Users/manueldeneu/Documents/projets/dev/Monu100/MicroController/MicMonu100/MicMonu100/main.c ****     
 434:/Users/manueldeneu/Documents/projets/dev/Monu100/MicroController/MicMonu100/MicMonu100/main.c ****     uint8_t a = 0;
 435:/Users/manueldeneu/Documents/projets/dev/Monu100/MicroController/MicMonu100/MicMonu100/main.c ****     while (1)
 436:/Users/manueldeneu/Documents/projets/dev/Monu100/MicroController/MicMonu100/MicMonu100/main.c ****     {
 437:/Users/manueldeneu/Documents/projets/dev/Monu100/MicroController/MicMonu100/MicMonu100/main.c ****         //serviceCall();
 438:/Users/manueldeneu/Documents/projets/dev/Monu100/MicroController/MicMonu100/MicMonu100/main.c ****         
 439:/Users/manueldeneu/Documents/projets/dev/Monu100/MicroController/MicMonu100/MicMonu100/main.c **** /*
 440:/Users/manueldeneu/Documents/projets/dev/Monu100/MicroController/MicMonu100/MicMonu100/main.c ****         for (int i = 0; i < 40; i++ )
 441:/Users/manueldeneu/Documents/projets/dev/Monu100/MicroController/MicMonu100/MicMonu100/main.c ****         {
 442:/Users/manueldeneu/Documents/projets/dev/Monu100/MicroController/MicMonu100/MicMonu100/main.c ****             for (int j = 0 ; j < 30; j++)
 443:/Users/manueldeneu/Documents/projets/dev/Monu100/MicroController/MicMonu100/MicMonu100/main.c ****             {
 444:/Users/manueldeneu/Documents/projets/dev/Monu100/MicroController/MicMonu100/MicMonu100/main.c ****                 display_setPixel(&_display ,i, j, 255);
 445:/Users/manueldeneu/Documents/projets/dev/Monu100/MicroController/MicMonu100/MicMonu100/main.c ****                 _delay_ms(10);
 446:/Users/manueldeneu/Documents/projets/dev/Monu100/MicroController/MicMonu100/MicMonu100/main.c ****                 
 447:/Users/manueldeneu/Documents/projets/dev/Monu100/MicroController/MicMonu100/MicMonu100/main.c ****                 display_setPixel(&_display ,i, j, 0);
 448:/Users/manueldeneu/Documents/projets/dev/Monu100/MicroController/MicMonu100/MicMonu100/main.c ****                 _delay_ms(10);
 449:/Users/manueldeneu/Documents/projets/dev/Monu100/MicroController/MicMonu100/MicMonu100/main.c ****             }
 450:/Users/manueldeneu/Documents/projets/dev/Monu100/MicroController/MicMonu100/MicMonu100/main.c ****         }
 451:/Users/manueldeneu/Documents/projets/dev/Monu100/MicroController/MicMonu100/MicMonu100/main.c **** */
 452:/Users/manueldeneu/Documents/projets/dev/Monu100/MicroController/MicMonu100/MicMonu100/main.c **** 
 453:/Users/manueldeneu/Documents/projets/dev/Monu100/MicroController/MicMonu100/MicMonu100/main.c **** //        display_setPixel(&_display, xx, yy, val);
 454:/Users/manueldeneu/Documents/projets/dev/Monu100/MicroController/MicMonu100/MicMonu100/main.c ****         
 455:/Users/manueldeneu/Documents/projets/dev/Monu100/MicroController/MicMonu100/MicMonu100/main.c ****         if(readOne( &_sensors) == 1)
 456:/Users/manueldeneu/Documents/projets/dev/Monu100/MicroController/MicMonu100/MicMonu100/main.c ****         {
 457:/Users/manueldeneu/Documents/projets/dev/Monu100/MicroController/MicMonu100/MicMonu100/main.c **** /*
 458:/Users/manueldeneu/Documents/projets/dev/Monu100/MicroController/MicMonu100/MicMonu100/main.c ****             if (a++ >2)
 459:/Users/manueldeneu/Documents/projets/dev/Monu100/MicroController/MicMonu100/MicMonu100/main.c ****             {
 460:/Users/manueldeneu/Documents/projets/dev/Monu100/MicroController/MicMonu100/MicMonu100/main.c ****                 for (uint8_t x = 0; x<X_TLC_MAX; x++)
 461:/Users/manueldeneu/Documents/projets/dev/Monu100/MicroController/MicMonu100/MicMonu100/main.c ****                 {
 462:/Users/manueldeneu/Documents/projets/dev/Monu100/MicroController/MicMonu100/MicMonu100/main.c ****                     //y = 1 passe en y = 0
 463:/Users/manueldeneu/Documents/projets/dev/Monu100/MicroController/MicMonu100/MicMonu100/main.c ****                     // y = 2 -> y =1
 464:/Users/manueldeneu/Documents/projets/dev/Monu100/MicroController/MicMonu100/MicMonu100/main.c ****                     for (uint8_t y = 0; y<Y_MIC_MAX; y++)
 465:/Users/manueldeneu/Documents/projets/dev/Monu100/MicroController/MicMonu100/MicMonu100/main.c ****                     {
 466:/Users/manueldeneu/Documents/projets/dev/Monu100/MicroController/MicMonu100/MicMonu100/main.c **** 
 467:/Users/manueldeneu/Documents/projets/dev/Monu100/MicroController/MicMonu100/MicMonu100/main.c ****                             int c =_display.buff_draw[x+1][y]-10;
 468:/Users/manueldeneu/Documents/projets/dev/Monu100/MicroController/MicMonu100/MicMonu100/main.c ****                             
 469:/Users/manueldeneu/Documents/projets/dev/Monu100/MicroController/MicMonu100/MicMonu100/main.c ****                             if (c <0)
 470:/Users/manueldeneu/Documents/projets/dev/Monu100/MicroController/MicMonu100/MicMonu100/main.c ****                                 c = 0;
 471:/Users/manueldeneu/Documents/projets/dev/Monu100/MicroController/MicMonu100/MicMonu100/main.c ****                             _display.buff_draw[x][y] = c;
 472:/Users/manueldeneu/Documents/projets/dev/Monu100/MicroController/MicMonu100/MicMonu100/main.c **** 
 473:/Users/manueldeneu/Documents/projets/dev/Monu100/MicroController/MicMonu100/MicMonu100/main.c ****                     }
 474:/Users/manueldeneu/Documents/projets/dev/Monu100/MicroController/MicMonu100/MicMonu100/main.c ****                 }
 475:/Users/manueldeneu/Documents/projets/dev/Monu100/MicroController/MicMonu100/MicMonu100/main.c ****                 a =0;
 476:/Users/manueldeneu/Documents/projets/dev/Monu100/MicroController/MicMonu100/MicMonu100/main.c ****             }
 477:/Users/manueldeneu/Documents/projets/dev/Monu100/MicroController/MicMonu100/MicMonu100/main.c ****  */
 478:/Users/manueldeneu/Documents/projets/dev/Monu100/MicroController/MicMonu100/MicMonu100/main.c ****         }
 479:/Users/manueldeneu/Documents/projets/dev/Monu100/MicroController/MicMonu100/MicMonu100/main.c **** 
 480:/Users/manueldeneu/Documents/projets/dev/Monu100/MicroController/MicMonu100/MicMonu100/main.c **** 
 481:/Users/manueldeneu/Documents/projets/dev/Monu100/MicroController/MicMonu100/MicMonu100/main.c ****     }
 1135               	.LM135:
 1136 014e 00C0      		rjmp .L37
 1141               	.Lscope10:
 1142               	.global	textLength
 1143               		.section .bss
 1146               	textLength:
 1147 0000 00        		.zero	1
 1148               	.global	textChanging
 1151               	textChanging:
 1152 0001 00        		.zero	1
 1153               		.comm	tempText,32,1
 1154               		.comm	text,32,1
 1155               	.global	angle
 1158               	angle:
 1159 0002 00        		.zero	1
 1160               	.global	sep
 1163               	sep:
 1164 0003 00        		.zero	1
 1165               	.global	textY
 1168               	textY:
 1169 0004 0000      		.zero	2
 1170               	.global	textX
 1173               	textX:
 1174 0006 0000      		.zero	2
 1175               		.comm	_sensors,169,1
 1176               		.comm	_display,1205,1
 1177               	.global	mcusr_mirror
 1178               		.section	.noinit,"aw",@nobits
 1181               	mcusr_mirror:
 1182 0000 00        		.zero	1
 1183               	.global	errorCode
 1184               		.section .bss
 1187               	errorCode:
 1188 0008 00        		.zero	1
 1189               	.global	offY
 1192               	offY:
 1193 0009 00        		.zero	1
 1194               	.global	offX
 1197               	offX:
 1198 000a 00        		.zero	1
 1199               	.global	canID
 1202               	canID:
 1203 000b 00        		.zero	1
 1219               		.text
 1221               	.Letext0:
 1222               		.ident	"GCC: (GNU) 4.8.1"
 1223               	.global __do_copy_data
 1224               	.global __do_clear_bss
DEFINED SYMBOLS
                            *ABS*:00000000 main.c
/var/folders/yp/wn04j3ms5mn9jhx6j8jq8l4c0000gn/T//ccj991Gf.s:2      *ABS*:0000003e __SP_H__
/var/folders/yp/wn04j3ms5mn9jhx6j8jq8l4c0000gn/T//ccj991Gf.s:3      *ABS*:0000003d __SP_L__
/var/folders/yp/wn04j3ms5mn9jhx6j8jq8l4c0000gn/T//ccj991Gf.s:4      *ABS*:0000003f __SREG__
/var/folders/yp/wn04j3ms5mn9jhx6j8jq8l4c0000gn/T//ccj991Gf.s:5      *ABS*:0000003b __RAMPZ__
/var/folders/yp/wn04j3ms5mn9jhx6j8jq8l4c0000gn/T//ccj991Gf.s:6      *ABS*:00000000 __tmp_reg__
/var/folders/yp/wn04j3ms5mn9jhx6j8jq8l4c0000gn/T//ccj991Gf.s:7      *ABS*:00000001 __zero_reg__
/var/folders/yp/wn04j3ms5mn9jhx6j8jq8l4c0000gn/T//ccj991Gf.s:144    .init3:00000000 get_mcusr
/var/folders/yp/wn04j3ms5mn9jhx6j8jq8l4c0000gn/T//ccj991Gf.s:1181   .noinit:00000000 mcusr_mirror
/var/folders/yp/wn04j3ms5mn9jhx6j8jq8l4c0000gn/T//ccj991Gf.s:181    .text:00000000 initDip
/var/folders/yp/wn04j3ms5mn9jhx6j8jq8l4c0000gn/T//ccj991Gf.s:202    .text:00000008 readCanID
/var/folders/yp/wn04j3ms5mn9jhx6j8jq8l4c0000gn/T//ccj991Gf.s:223    .text:00000010 computeGeometry
/var/folders/yp/wn04j3ms5mn9jhx6j8jq8l4c0000gn/T//ccj991Gf.s:1202   .bss:0000000b canID
/var/folders/yp/wn04j3ms5mn9jhx6j8jq8l4c0000gn/T//ccj991Gf.s:1197   .bss:0000000a offX
/var/folders/yp/wn04j3ms5mn9jhx6j8jq8l4c0000gn/T//ccj991Gf.s:1192   .bss:00000009 offY
/var/folders/yp/wn04j3ms5mn9jhx6j8jq8l4c0000gn/T//ccj991Gf.s:260    .text:0000002e sendState
/var/folders/yp/wn04j3ms5mn9jhx6j8jq8l4c0000gn/T//ccj991Gf.s:1187   .bss:00000008 errorCode
/var/folders/yp/wn04j3ms5mn9jhx6j8jq8l4c0000gn/T//ccj991Gf.s:328    .text:0000007c checkErrors
/var/folders/yp/wn04j3ms5mn9jhx6j8jq8l4c0000gn/T//ccj991Gf.s:342    .text:0000007e updateScreen
                            *COM*:000004b5 _display
/var/folders/yp/wn04j3ms5mn9jhx6j8jq8l4c0000gn/T//ccj991Gf.s:399    .text:000000aa call
                            *COM*:000000a9 _sensors
/var/folders/yp/wn04j3ms5mn9jhx6j8jq8l4c0000gn/T//ccj991Gf.s:520    .text:00000128 serviceCall
                            *COM*:00000020 text
/var/folders/yp/wn04j3ms5mn9jhx6j8jq8l4c0000gn/T//ccj991Gf.s:1146   .bss:00000000 textLength
/var/folders/yp/wn04j3ms5mn9jhx6j8jq8l4c0000gn/T//ccj991Gf.s:1151   .bss:00000001 textChanging
/var/folders/yp/wn04j3ms5mn9jhx6j8jq8l4c0000gn/T//ccj991Gf.s:1173   .bss:00000006 textX
/var/folders/yp/wn04j3ms5mn9jhx6j8jq8l4c0000gn/T//ccj991Gf.s:1168   .bss:00000004 textY
/var/folders/yp/wn04j3ms5mn9jhx6j8jq8l4c0000gn/T//ccj991Gf.s:1163   .bss:00000003 sep
/var/folders/yp/wn04j3ms5mn9jhx6j8jq8l4c0000gn/T//ccj991Gf.s:1158   .bss:00000002 angle
/var/folders/yp/wn04j3ms5mn9jhx6j8jq8l4c0000gn/T//ccj991Gf.s:853    .text.startup:00000000 main
                            *COM*:00000020 tempText

UNDEFINED SYMBOLS
can_send_message
display_clearZoneDraw
display_clearZoneText
display_setFillColor
can_get_message
strcpy
display_setPixel
sensors_init
mcp2515_init
sprintf
display_write
readRow
__do_copy_data
__do_clear_bss
