   1               		.file	"Sensors.c"
   2               	__SP_H__ = 0x3e
   3               	__SP_L__ = 0x3d
   4               	__SREG__ = 0x3f
   5               	__RAMPZ__ = 0x3b
   6               	__tmp_reg__ = 0
   7               	__zero_reg__ = 1
   9               		.text
  10               	.Ltext0:
 131               	.global	adc_init
 133               	adc_init:
   1:/Users/manueldeneu/Documents/projets/dev/Monu100/MicroController/MicMonu100/MicMonu100/Sensors.c **** //
   2:/Users/manueldeneu/Documents/projets/dev/Monu100/MicroController/MicMonu100/MicMonu100/Sensors.c **** //  Sensors.c
   3:/Users/manueldeneu/Documents/projets/dev/Monu100/MicroController/MicMonu100/MicMonu100/Sensors.c **** //  MicMonu100
   4:/Users/manueldeneu/Documents/projets/dev/Monu100/MicroController/MicMonu100/MicMonu100/Sensors.c **** //
   5:/Users/manueldeneu/Documents/projets/dev/Monu100/MicroController/MicMonu100/MicMonu100/Sensors.c **** //  Created by Manuel Deneu on 01/03/15.
   6:/Users/manueldeneu/Documents/projets/dev/Monu100/MicroController/MicMonu100/MicMonu100/Sensors.c **** //  Copyright (c) 2015 Manuel Deneu. All rights reserved.
   7:/Users/manueldeneu/Documents/projets/dev/Monu100/MicroController/MicMonu100/MicMonu100/Sensors.c **** //
   8:/Users/manueldeneu/Documents/projets/dev/Monu100/MicroController/MicMonu100/MicMonu100/Sensors.c **** 
   9:/Users/manueldeneu/Documents/projets/dev/Monu100/MicroController/MicMonu100/MicMonu100/Sensors.c **** #include <stdio.h>
  10:/Users/manueldeneu/Documents/projets/dev/Monu100/MicroController/MicMonu100/MicMonu100/Sensors.c **** #include <avr/io.h>
  11:/Users/manueldeneu/Documents/projets/dev/Monu100/MicroController/MicMonu100/MicMonu100/Sensors.c **** #include <util/delay.h>
  12:/Users/manueldeneu/Documents/projets/dev/Monu100/MicroController/MicMonu100/MicMonu100/Sensors.c **** 
  13:/Users/manueldeneu/Documents/projets/dev/Monu100/MicroController/MicMonu100/MicMonu100/Sensors.c **** #include "Sensors.h"
  14:/Users/manueldeneu/Documents/projets/dev/Monu100/MicroController/MicMonu100/MicMonu100/Sensors.c **** 
  15:/Users/manueldeneu/Documents/projets/dev/Monu100/MicroController/MicMonu100/MicMonu100/Sensors.c **** #include "PinsConfig.h"
  16:/Users/manueldeneu/Documents/projets/dev/Monu100/MicroController/MicMonu100/MicMonu100/Sensors.c **** #include "quickblob.h"
  17:/Users/manueldeneu/Documents/projets/dev/Monu100/MicroController/MicMonu100/MicMonu100/Sensors.c **** 
  18:/Users/manueldeneu/Documents/projets/dev/Monu100/MicroController/MicMonu100/MicMonu100/Sensors.c **** #include "Coms.h"
  19:/Users/manueldeneu/Documents/projets/dev/Monu100/MicroController/MicMonu100/MicMonu100/Sensors.c **** 
  20:/Users/manueldeneu/Documents/projets/dev/Monu100/MicroController/MicMonu100/MicMonu100/Sensors.c **** 
  21:/Users/manueldeneu/Documents/projets/dev/Monu100/MicroController/MicMonu100/MicMonu100/Sensors.c **** uint8_t analyze(Sensors *sensors);
  22:/Users/manueldeneu/Documents/projets/dev/Monu100/MicroController/MicMonu100/MicMonu100/Sensors.c **** 
  23:/Users/manueldeneu/Documents/projets/dev/Monu100/MicroController/MicMonu100/MicMonu100/Sensors.c **** /* **** **** **** **** **** **** **** **** **** **** **** **** **** **** **** **** **** */
  24:/Users/manueldeneu/Documents/projets/dev/Monu100/MicroController/MicMonu100/MicMonu100/Sensors.c **** 
  25:/Users/manueldeneu/Documents/projets/dev/Monu100/MicroController/MicMonu100/MicMonu100/Sensors.c **** void adc_init(void)
  26:/Users/manueldeneu/Documents/projets/dev/Monu100/MicroController/MicMonu100/MicMonu100/Sensors.c **** {
 135               	.LM0:
 136               	.LFBB1:
 137               	/* prologue: function */
 138               	/* frame size = 0 */
 139               	/* stack size = 0 */
 140               	.L__stack_usage = 0
  27:/Users/manueldeneu/Documents/projets/dev/Monu100/MicroController/MicMonu100/MicMonu100/Sensors.c ****     // MICs LDR
  28:/Users/manueldeneu/Documents/projets/dev/Monu100/MicroController/MicMonu100/MicMonu100/Sensors.c ****     
  29:/Users/manueldeneu/Documents/projets/dev/Monu100/MicroController/MicMonu100/MicMonu100/Sensors.c ****     setOutput( LDR_DATA_DDR       , LDR_DATA_PIN ); // data
 142               	.LM1:
 143 0000 579A      		sbi 0xa,7
  30:/Users/manueldeneu/Documents/projets/dev/Monu100/MicroController/MicMonu100/MicMonu100/Sensors.c ****     setOutput( LDR_STROBE_DDR     , LDR_STROBE_PIN ); // strobe
 145               	.LM2:
 146 0002 6C9A      		sbi 0xd,4
  31:/Users/manueldeneu/Documents/projets/dev/Monu100/MicroController/MicMonu100/MicMonu100/Sensors.c ****     setOutput( LDR_OUT_ENABLE_DDR , LDR_OUT_ENABLE_PIN ); // out enable
 148               	.LM3:
 149 0004 6B9A      		sbi 0xd,3
  32:/Users/manueldeneu/Documents/projets/dev/Monu100/MicroController/MicMonu100/MicMonu100/Sensors.c ****     setOutput( LDR_CLOCK_DDR      , LDR_CLOCK_PIN ); // clock
 151               	.LM4:
 152 0006 539A      		sbi 0xa,3
  33:/Users/manueldeneu/Documents/projets/dev/Monu100/MicroController/MicMonu100/MicMonu100/Sensors.c **** 
  34:/Users/manueldeneu/Documents/projets/dev/Monu100/MicroController/MicMonu100/MicMonu100/Sensors.c ****     
  35:/Users/manueldeneu/Documents/projets/dev/Monu100/MicroController/MicMonu100/MicMonu100/Sensors.c ****     /* *** */
  36:/Users/manueldeneu/Documents/projets/dev/Monu100/MicroController/MicMonu100/MicMonu100/Sensors.c ****     
  37:/Users/manueldeneu/Documents/projets/dev/Monu100/MicroController/MicMonu100/MicMonu100/Sensors.c ****     
  38:/Users/manueldeneu/Documents/projets/dev/Monu100/MicroController/MicMonu100/MicMonu100/Sensors.c ****     setLow(LDR_STROBE_PORT , LDR_STROBE_PIN ); // strobe mic LDR
 154               	.LM5:
 155 0008 7498      		cbi 0xe,4
  39:/Users/manueldeneu/Documents/projets/dev/Monu100/MicroController/MicMonu100/MicMonu100/Sensors.c ****     
  40:/Users/manueldeneu/Documents/projets/dev/Monu100/MicroController/MicMonu100/MicMonu100/Sensors.c ****     setLow( LDR_CLOCK_PORT , LDR_CLOCK_PIN);
 157               	.LM6:
 158 000a 5B98      		cbi 0xb,3
  41:/Users/manueldeneu/Documents/projets/dev/Monu100/MicroController/MicMonu100/MicMonu100/Sensors.c ****     
  42:/Users/manueldeneu/Documents/projets/dev/Monu100/MicroController/MicMonu100/MicMonu100/Sensors.c ****     setLow( LDR_OUT_ENABLE_PORT , LDR_OUT_ENABLE_PIN );
 160               	.LM7:
 161 000c 7398      		cbi 0xe,3
  43:/Users/manueldeneu/Documents/projets/dev/Monu100/MicroController/MicMonu100/MicMonu100/Sensors.c ****     
  44:/Users/manueldeneu/Documents/projets/dev/Monu100/MicroController/MicMonu100/MicMonu100/Sensors.c ****     //
  45:/Users/manueldeneu/Documents/projets/dev/Monu100/MicroController/MicMonu100/MicMonu100/Sensors.c ****     
  46:/Users/manueldeneu/Documents/projets/dev/Monu100/MicroController/MicMonu100/MicMonu100/Sensors.c ****     setLow( LDR_DATA_PORT , LDR_DATA_PIN );
 163               	.LM8:
 164 000e 5F98      		cbi 0xb,7
 165 0010 80E1      		ldi r24,lo8(16)
 166 0012 90E0      		ldi r25,0
 167               	.L3:
 168               	.LBB11:
  47:/Users/manueldeneu/Documents/projets/dev/Monu100/MicroController/MicMonu100/MicMonu100/Sensors.c ****     
  48:/Users/manueldeneu/Documents/projets/dev/Monu100/MicroController/MicMonu100/MicMonu100/Sensors.c ****     for (int i=0; i<16; i++)
  49:/Users/manueldeneu/Documents/projets/dev/Monu100/MicroController/MicMonu100/MicMonu100/Sensors.c ****         pulse( LDR_CLOCK_PORT , LDR_CLOCK_PIN);
 170               	.LM9:
 171 0014 5B9A      		sbi 0xb,3
 172 0016 5B98      		cbi 0xb,3
 173 0018 0197      		sbiw r24,1
  48:/Users/manueldeneu/Documents/projets/dev/Monu100/MicroController/MicMonu100/MicMonu100/Sensors.c ****     for (int i=0; i<16; i++)
 175               	.LM10:
 176 001a 0097      		sbiw r24,0
 177 001c 01F4      		brne .L3
 178               	.LBE11:
  50:/Users/manueldeneu/Documents/projets/dev/Monu100/MicroController/MicMonu100/MicMonu100/Sensors.c ****     
  51:/Users/manueldeneu/Documents/projets/dev/Monu100/MicroController/MicMonu100/MicMonu100/Sensors.c ****     
  52:/Users/manueldeneu/Documents/projets/dev/Monu100/MicroController/MicMonu100/MicMonu100/Sensors.c ****     /*
  53:/Users/manueldeneu/Documents/projets/dev/Monu100/MicroController/MicMonu100/MicMonu100/Sensors.c ****      setHigh( LDR_DATA_PORT , LDR_DATA_PIN );
  54:/Users/manueldeneu/Documents/projets/dev/Monu100/MicroController/MicMonu100/MicMonu100/Sensors.c ****      
  55:/Users/manueldeneu/Documents/projets/dev/Monu100/MicroController/MicMonu100/MicMonu100/Sensors.c ****      pulse( LDR_CLOCK_PORT , LDR_CLOCK_PIN);
  56:/Users/manueldeneu/Documents/projets/dev/Monu100/MicroController/MicMonu100/MicMonu100/Sensors.c ****      */
  57:/Users/manueldeneu/Documents/projets/dev/Monu100/MicroController/MicMonu100/MicMonu100/Sensors.c ****     
  58:/Users/manueldeneu/Documents/projets/dev/Monu100/MicroController/MicMonu100/MicMonu100/Sensors.c ****     
  59:/Users/manueldeneu/Documents/projets/dev/Monu100/MicroController/MicMonu100/MicMonu100/Sensors.c ****     pulse(LDR_STROBE_PORT, LDR_STROBE_PIN);
 180               	.LM11:
 181 001e 749A      		sbi 0xe,4
 182 0020 7498      		cbi 0xe,4
  60:/Users/manueldeneu/Documents/projets/dev/Monu100/MicroController/MicMonu100/MicMonu100/Sensors.c **** 
  61:/Users/manueldeneu/Documents/projets/dev/Monu100/MicroController/MicMonu100/MicMonu100/Sensors.c ****     
  62:/Users/manueldeneu/Documents/projets/dev/Monu100/MicroController/MicMonu100/MicMonu100/Sensors.c ****     /* *** */
  63:/Users/manueldeneu/Documents/projets/dev/Monu100/MicroController/MicMonu100/MicMonu100/Sensors.c ****     
  64:/Users/manueldeneu/Documents/projets/dev/Monu100/MicroController/MicMonu100/MicMonu100/Sensors.c ****     ADCSRA |= ((1<<ADPS2)|(1<<ADPS1)|(1<<ADPS0));
 184               	.LM12:
 185 0022 8091 7A00 		lds r24,122
 186 0026 8760      		ori r24,lo8(7)
 187 0028 8093 7A00 		sts 122,r24
  65:/Users/manueldeneu/Documents/projets/dev/Monu100/MicroController/MicMonu100/MicMonu100/Sensors.c ****     
  66:/Users/manueldeneu/Documents/projets/dev/Monu100/MicroController/MicMonu100/MicMonu100/Sensors.c ****     ADMUX |= (1<<REFS0);       //Set Voltage reference to Avcc (5v)
 189               	.LM13:
 190 002c 8091 7C00 		lds r24,124
 191 0030 8064      		ori r24,lo8(64)
 192 0032 8093 7C00 		sts 124,r24
  67:/Users/manueldeneu/Documents/projets/dev/Monu100/MicroController/MicMonu100/MicMonu100/Sensors.c ****     
  68:/Users/manueldeneu/Documents/projets/dev/Monu100/MicroController/MicMonu100/MicMonu100/Sensors.c ****     ADCSRA |= (1<<ADEN);       //Turn on ADC
 194               	.LM14:
 195 0036 8091 7A00 		lds r24,122
 196 003a 8068      		ori r24,lo8(-128)
 197 003c 8093 7A00 		sts 122,r24
  69:/Users/manueldeneu/Documents/projets/dev/Monu100/MicroController/MicMonu100/MicMonu100/Sensors.c ****     
  70:/Users/manueldeneu/Documents/projets/dev/Monu100/MicroController/MicMonu100/MicMonu100/Sensors.c ****     ADCSRA |= (1<<ADSC);
 199               	.LM15:
 200 0040 8091 7A00 		lds r24,122
 201 0044 8064      		ori r24,lo8(64)
 202 0046 8093 7A00 		sts 122,r24
 203 004a 0895      		ret
 205               	.Lscope1:
 208               	.global	sensors_resetCalibration
 210               	sensors_resetCalibration:
  71:/Users/manueldeneu/Documents/projets/dev/Monu100/MicroController/MicMonu100/MicMonu100/Sensors.c **** }
  72:/Users/manueldeneu/Documents/projets/dev/Monu100/MicroController/MicMonu100/MicMonu100/Sensors.c **** 
  73:/Users/manueldeneu/Documents/projets/dev/Monu100/MicroController/MicMonu100/MicMonu100/Sensors.c **** /* **** **** **** **** **** **** **** **** **** **** **** **** **** **** **** **** **** */
  74:/Users/manueldeneu/Documents/projets/dev/Monu100/MicroController/MicMonu100/MicMonu100/Sensors.c **** 
  75:/Users/manueldeneu/Documents/projets/dev/Monu100/MicroController/MicMonu100/MicMonu100/Sensors.c **** inline uint16_t adc_read(uint8_t channel)
  76:/Users/manueldeneu/Documents/projets/dev/Monu100/MicroController/MicMonu100/MicMonu100/Sensors.c **** {
  77:/Users/manueldeneu/Documents/projets/dev/Monu100/MicroController/MicMonu100/MicMonu100/Sensors.c ****     
  78:/Users/manueldeneu/Documents/projets/dev/Monu100/MicroController/MicMonu100/MicMonu100/Sensors.c ****     ADMUX &= 0xE0;           //Clear bits MUX0-4
  79:/Users/manueldeneu/Documents/projets/dev/Monu100/MicroController/MicMonu100/MicMonu100/Sensors.c ****     ADMUX |= channel&0x07;   //Defines the new ADC channel to be read by setting bits MUX0-2
  80:/Users/manueldeneu/Documents/projets/dev/Monu100/MicroController/MicMonu100/MicMonu100/Sensors.c ****     ADCSRB = channel&(1<<3); //Set MUX5
  81:/Users/manueldeneu/Documents/projets/dev/Monu100/MicroController/MicMonu100/MicMonu100/Sensors.c ****     ADCSRA |= (1<<ADSC);      //Starts a new conversion
  82:/Users/manueldeneu/Documents/projets/dev/Monu100/MicroController/MicMonu100/MicMonu100/Sensors.c ****     
  83:/Users/manueldeneu/Documents/projets/dev/Monu100/MicroController/MicMonu100/MicMonu100/Sensors.c ****     while( ADCSRA & (1<<ADSC) );  //Wait until the conversion is done
  84:/Users/manueldeneu/Documents/projets/dev/Monu100/MicroController/MicMonu100/MicMonu100/Sensors.c ****     
  85:/Users/manueldeneu/Documents/projets/dev/Monu100/MicroController/MicMonu100/MicMonu100/Sensors.c ****     return ADCW;
  86:/Users/manueldeneu/Documents/projets/dev/Monu100/MicroController/MicMonu100/MicMonu100/Sensors.c **** }
  87:/Users/manueldeneu/Documents/projets/dev/Monu100/MicroController/MicMonu100/MicMonu100/Sensors.c **** 
  88:/Users/manueldeneu/Documents/projets/dev/Monu100/MicroController/MicMonu100/MicMonu100/Sensors.c **** /* **** **** **** **** **** **** **** **** **** **** **** **** **** **** **** **** **** */
  89:/Users/manueldeneu/Documents/projets/dev/Monu100/MicroController/MicMonu100/MicMonu100/Sensors.c **** /* **** **** **** **** **** **** **** **** **** **** **** **** **** **** **** **** **** */
  90:/Users/manueldeneu/Documents/projets/dev/Monu100/MicroController/MicMonu100/MicMonu100/Sensors.c **** 
  91:/Users/manueldeneu/Documents/projets/dev/Monu100/MicroController/MicMonu100/MicMonu100/Sensors.c **** void sensors_init( Sensors *sensors)
  92:/Users/manueldeneu/Documents/projets/dev/Monu100/MicroController/MicMonu100/MicMonu100/Sensors.c **** {
  93:/Users/manueldeneu/Documents/projets/dev/Monu100/MicroController/MicMonu100/MicMonu100/Sensors.c ****     adc_init();    
  94:/Users/manueldeneu/Documents/projets/dev/Monu100/MicroController/MicMonu100/MicMonu100/Sensors.c ****     sensors_resetCalibration( sensors );
  95:/Users/manueldeneu/Documents/projets/dev/Monu100/MicroController/MicMonu100/MicMonu100/Sensors.c ****     
  96:/Users/manueldeneu/Documents/projets/dev/Monu100/MicroController/MicMonu100/MicMonu100/Sensors.c ****     sensors->thresholdHigh = 0;
  97:/Users/manueldeneu/Documents/projets/dev/Monu100/MicroController/MicMonu100/MicMonu100/Sensors.c ****     
  98:/Users/manueldeneu/Documents/projets/dev/Monu100/MicroController/MicMonu100/MicMonu100/Sensors.c ****     sensors->thresholdLow  = 0;
  99:/Users/manueldeneu/Documents/projets/dev/Monu100/MicroController/MicMonu100/MicMonu100/Sensors.c ****     
 100:/Users/manueldeneu/Documents/projets/dev/Monu100/MicroController/MicMonu100/MicMonu100/Sensors.c ****     for (int j = 0; j<MIC_SENSOR_COUNT ; j++) // mics
 101:/Users/manueldeneu/Documents/projets/dev/Monu100/MicroController/MicMonu100/MicMonu100/Sensors.c ****     {
 102:/Users/manueldeneu/Documents/projets/dev/Monu100/MicroController/MicMonu100/MicMonu100/Sensors.c ****         
 103:/Users/manueldeneu/Documents/projets/dev/Monu100/MicroController/MicMonu100/MicMonu100/Sensors.c ****         for (int i = 0; i < MIC_SENSOR_COUNT ; i++)
 104:/Users/manueldeneu/Documents/projets/dev/Monu100/MicroController/MicMonu100/MicMonu100/Sensors.c ****         {
 105:/Users/manueldeneu/Documents/projets/dev/Monu100/MicroController/MicMonu100/MicMonu100/Sensors.c ****             sensors->values[i][j] = 0;
 106:/Users/manueldeneu/Documents/projets/dev/Monu100/MicroController/MicMonu100/MicMonu100/Sensors.c ****         }
 107:/Users/manueldeneu/Documents/projets/dev/Monu100/MicroController/MicMonu100/MicMonu100/Sensors.c ****     }
 108:/Users/manueldeneu/Documents/projets/dev/Monu100/MicroController/MicMonu100/MicMonu100/Sensors.c ****     
 109:/Users/manueldeneu/Documents/projets/dev/Monu100/MicroController/MicMonu100/MicMonu100/Sensors.c ****     sensors->moyenne     = 1000.0f;
 110:/Users/manueldeneu/Documents/projets/dev/Monu100/MicroController/MicMonu100/MicMonu100/Sensors.c ****     sensors->prevMoyenne = 1000.0f;
 111:/Users/manueldeneu/Documents/projets/dev/Monu100/MicroController/MicMonu100/MicMonu100/Sensors.c ****     
 112:/Users/manueldeneu/Documents/projets/dev/Monu100/MicroController/MicMonu100/MicMonu100/Sensors.c **** }
 113:/Users/manueldeneu/Documents/projets/dev/Monu100/MicroController/MicMonu100/MicMonu100/Sensors.c **** 
 114:/Users/manueldeneu/Documents/projets/dev/Monu100/MicroController/MicMonu100/MicMonu100/Sensors.c **** /* **** **** **** **** **** **** **** **** **** **** **** **** **** **** **** **** **** */
 115:/Users/manueldeneu/Documents/projets/dev/Monu100/MicroController/MicMonu100/MicMonu100/Sensors.c **** 
 116:/Users/manueldeneu/Documents/projets/dev/Monu100/MicroController/MicMonu100/MicMonu100/Sensors.c **** void sensors_resetCalibration( Sensors *sensors )
 117:/Users/manueldeneu/Documents/projets/dev/Monu100/MicroController/MicMonu100/MicMonu100/Sensors.c **** {
 212               	.LM16:
 213               	.LFBB2:
 214               	/* prologue: function */
 215               	/* frame size = 0 */
 216               	/* stack size = 0 */
 217               	.L__stack_usage = 0
 219               	.LM17:
 220 004c 20E0      		ldi r18,0
 221 004e 30E0      		ldi r19,0
 222               	.L6:
 224               	.LM18:
 225 0050 40E0      		ldi r20,0
 226 0052 50E0      		ldi r21,0
 227 0054 BC01      		movw r22,r24
 228 0056 620F      		add r22,r18
 229 0058 731F      		adc r23,r19
 230               	.L9:
 231 005a FB01      		movw r30,r22
 232 005c E40F      		add r30,r20
 233 005e F51F      		adc r31,r21
 234               	.LBB12:
 235               	.LBB13:
 118:/Users/manueldeneu/Documents/projets/dev/Monu100/MicroController/MicMonu100/MicMonu100/Sensors.c ****     for (int j = 0; j<MIC_SENSOR_COUNT ; j++) // mics
 119:/Users/manueldeneu/Documents/projets/dev/Monu100/MicroController/MicMonu100/MicMonu100/Sensors.c ****     {
 120:/Users/manueldeneu/Documents/projets/dev/Monu100/MicroController/MicMonu100/MicMonu100/Sensors.c ****         
 121:/Users/manueldeneu/Documents/projets/dev/Monu100/MicroController/MicMonu100/MicMonu100/Sensors.c ****         for (int i = 0; i < MIC_SENSOR_COUNT ; i++)
 122:/Users/manueldeneu/Documents/projets/dev/Monu100/MicroController/MicMonu100/MicMonu100/Sensors.c ****         {
 123:/Users/manueldeneu/Documents/projets/dev/Monu100/MicroController/MicMonu100/MicMonu100/Sensors.c ****             sensors->calibValues[i][j] = 0;
 237               	.LM19:
 238 0060 1182      		std Z+1,__zero_reg__
 239 0062 1082      		st Z,__zero_reg__
 240 0064 425E      		subi r20,-30
 241 0066 5F4F      		sbci r21,-1
 121:/Users/manueldeneu/Documents/projets/dev/Monu100/MicroController/MicMonu100/MicMonu100/Sensors.c ****         for (int i = 0; i < MIC_SENSOR_COUNT ; i++)
 243               	.LM20:
 244 0068 423C      		cpi r20,-62
 245 006a E1E0      		ldi r30,1
 246 006c 5E07      		cpc r21,r30
 247 006e 01F4      		brne .L9
 248 0070 2E5F      		subi r18,-2
 249 0072 3F4F      		sbci r19,-1
 250               	.LBE13:
 118:/Users/manueldeneu/Documents/projets/dev/Monu100/MicroController/MicMonu100/MicMonu100/Sensors.c ****     for (int j = 0; j<MIC_SENSOR_COUNT ; j++) // mics
 252               	.LM21:
 253 0074 2E31      		cpi r18,30
 254 0076 3105      		cpc r19,__zero_reg__
 255 0078 01F4      		brne .L6
 256 007a 0895      		ret
 257               	.LBE12:
 259               	.Lscope2:
 262               	.global	sensors_init
 264               	sensors_init:
  92:/Users/manueldeneu/Documents/projets/dev/Monu100/MicroController/MicMonu100/MicMonu100/Sensors.c **** {
 266               	.LM22:
 267               	.LFBB3:
 268 007c CF93      		push r28
 269 007e DF93      		push r29
 270               	/* prologue: function */
 271               	/* frame size = 0 */
 272               	/* stack size = 2 */
 273               	.L__stack_usage = 2
 274 0080 EC01      		movw r28,r24
  93:/Users/manueldeneu/Documents/projets/dev/Monu100/MicroController/MicMonu100/MicMonu100/Sensors.c ****     adc_init();    
 276               	.LM23:
 277 0082 0E94 0000 		call adc_init
  94:/Users/manueldeneu/Documents/projets/dev/Monu100/MicroController/MicMonu100/MicMonu100/Sensors.c ****     sensors_resetCalibration( sensors );
 279               	.LM24:
 280 0086 CE01      		movw r24,r28
 281 0088 0E94 0000 		call sensors_resetCalibration
  96:/Users/manueldeneu/Documents/projets/dev/Monu100/MicroController/MicMonu100/MicMonu100/Sensors.c ****     sensors->thresholdHigh = 0;
 283               	.LM25:
 284 008c FE01      		movw r30,r28
 285 008e EE53      		subi r30,62
 286 0090 FE4F      		sbci r31,-2
 287 0092 1182      		std Z+1,__zero_reg__
 288 0094 1082      		st Z,__zero_reg__
  98:/Users/manueldeneu/Documents/projets/dev/Monu100/MicroController/MicMonu100/MicMonu100/Sensors.c ****     sensors->thresholdLow  = 0;
 290               	.LM26:
 291 0096 3296      		adiw r30,2
 292 0098 1182      		std Z+1,__zero_reg__
 293 009a 1082      		st Z,__zero_reg__
 294               	.LBB14:
 100:/Users/manueldeneu/Documents/projets/dev/Monu100/MicroController/MicMonu100/MicMonu100/Sensors.c ****     for (int j = 0; j<MIC_SENSOR_COUNT ; j++) // mics
 296               	.LM27:
 297 009c 80E0      		ldi r24,0
 298 009e 90E0      		ldi r25,0
 299               	.L11:
 300               	.LBE14:
  92:/Users/manueldeneu/Documents/projets/dev/Monu100/MicroController/MicMonu100/MicMonu100/Sensors.c **** {
 302               	.LM28:
 303 00a0 20E0      		ldi r18,0
 304 00a2 30E0      		ldi r19,0
 305 00a4 AE01      		movw r20,r28
 306 00a6 480F      		add r20,r24
 307 00a8 591F      		adc r21,r25
 308               	.L14:
 309 00aa FA01      		movw r30,r20
 310 00ac E20F      		add r30,r18
 311 00ae F31F      		adc r31,r19
 312 00b0 EF52      		subi r30,47
 313 00b2 FE4F      		sbci r31,-2
 314               	.LBB16:
 315               	.LBB15:
 105:/Users/manueldeneu/Documents/projets/dev/Monu100/MicroController/MicMonu100/MicMonu100/Sensors.c ****             sensors->values[i][j] = 0;
 317               	.LM29:
 318 00b4 1082      		st Z,__zero_reg__
 319 00b6 215F      		subi r18,-15
 320 00b8 3F4F      		sbci r19,-1
 103:/Users/manueldeneu/Documents/projets/dev/Monu100/MicroController/MicMonu100/MicMonu100/Sensors.c ****         for (int i = 0; i < MIC_SENSOR_COUNT ; i++)
 322               	.LM30:
 323 00ba 213E      		cpi r18,-31
 324 00bc 3105      		cpc r19,__zero_reg__
 325 00be 01F4      		brne .L14
 326               	.LBE15:
 100:/Users/manueldeneu/Documents/projets/dev/Monu100/MicroController/MicMonu100/MicMonu100/Sensors.c ****     for (int j = 0; j<MIC_SENSOR_COUNT ; j++) // mics
 328               	.LM31:
 329 00c0 0196      		adiw r24,1
 330 00c2 8F30      		cpi r24,15
 331 00c4 9105      		cpc r25,__zero_reg__
 332 00c6 01F4      		brne .L11
 333               	.LBE16:
 109:/Users/manueldeneu/Documents/projets/dev/Monu100/MicroController/MicMonu100/MicMonu100/Sensors.c ****     sensors->moyenne     = 1000.0f;
 335               	.LM32:
 336 00c8 FE01      		movw r30,r28
 337 00ca EA53      		subi r30,58
 338 00cc FE4F      		sbci r31,-2
 339 00ce 40E0      		ldi r20,0
 340 00d0 50E0      		ldi r21,0
 341 00d2 6AE7      		ldi r22,lo8(122)
 342 00d4 74E4      		ldi r23,lo8(68)
 343 00d6 4083      		st Z,r20
 344 00d8 5183      		std Z+1,r21
 345 00da 6283      		std Z+2,r22
 346 00dc 7383      		std Z+3,r23
 110:/Users/manueldeneu/Documents/projets/dev/Monu100/MicroController/MicMonu100/MicMonu100/Sensors.c ****     sensors->prevMoyenne = 1000.0f;
 348               	.LM33:
 349 00de C653      		subi r28,54
 350 00e0 DE4F      		sbci r29,-2
 351 00e2 4883      		st Y,r20
 352 00e4 5983      		std Y+1,r21
 353 00e6 6A83      		std Y+2,r22
 354 00e8 7B83      		std Y+3,r23
 355               	/* epilogue start */
 112:/Users/manueldeneu/Documents/projets/dev/Monu100/MicroController/MicMonu100/MicMonu100/Sensors.c **** }
 357               	.LM34:
 358 00ea DF91      		pop r29
 359 00ec CF91      		pop r28
 360 00ee 0895      		ret
 368               	.Lscope3:
 369               	.global	__floatunsisf
 370               	.global	__addsf3
 371               	.global	__floatsisf
 372               	.global	__divsf3
 373               	.global	__fixunssfsi
 376               	.global	sensors_calibration
 378               	sensors_calibration:
 124:/Users/manueldeneu/Documents/projets/dev/Monu100/MicroController/MicMonu100/MicMonu100/Sensors.c ****         }
 125:/Users/manueldeneu/Documents/projets/dev/Monu100/MicroController/MicMonu100/MicMonu100/Sensors.c ****     }
 126:/Users/manueldeneu/Documents/projets/dev/Monu100/MicroController/MicMonu100/MicMonu100/Sensors.c ****     
 127:/Users/manueldeneu/Documents/projets/dev/Monu100/MicroController/MicMonu100/MicMonu100/Sensors.c **** }
 128:/Users/manueldeneu/Documents/projets/dev/Monu100/MicroController/MicMonu100/MicMonu100/Sensors.c **** 
 129:/Users/manueldeneu/Documents/projets/dev/Monu100/MicroController/MicMonu100/MicMonu100/Sensors.c **** /* **** **** **** **** **** **** **** **** **** **** **** **** **** **** **** **** **** */
 130:/Users/manueldeneu/Documents/projets/dev/Monu100/MicroController/MicMonu100/MicMonu100/Sensors.c **** 
 131:/Users/manueldeneu/Documents/projets/dev/Monu100/MicroController/MicMonu100/MicMonu100/Sensors.c **** void sensors_calibration( Sensors *sensors , uint8_t count)
 132:/Users/manueldeneu/Documents/projets/dev/Monu100/MicroController/MicMonu100/MicMonu100/Sensors.c **** {
 380               	.LM35:
 381               	.LFBB4:
 382 00f0 2F92      		push r2
 383 00f2 3F92      		push r3
 384 00f4 4F92      		push r4
 385 00f6 5F92      		push r5
 386 00f8 6F92      		push r6
 387 00fa 7F92      		push r7
 388 00fc 8F92      		push r8
 389 00fe 9F92      		push r9
 390 0100 AF92      		push r10
 391 0102 BF92      		push r11
 392 0104 CF92      		push r12
 393 0106 DF92      		push r13
 394 0108 EF92      		push r14
 395 010a FF92      		push r15
 396 010c 0F93      		push r16
 397 010e 1F93      		push r17
 398 0110 CF93      		push r28
 399 0112 DF93      		push r29
 400 0114 CDB7      		in r28,__SP_L__
 401 0116 DEB7      		in r29,__SP_H__
 402 0118 C159      		subi r28,-111
 403 011a D340      		sbci r29,3
 404 011c 0FB6      		in __tmp_reg__,__SREG__
 405 011e F894      		cli
 406 0120 DEBF      		out __SP_H__,r29
 407 0122 0FBE      		out __SREG__,__tmp_reg__
 408 0124 CDBF      		out __SP_L__,r28
 409               	/* prologue: function */
 410               	/* frame size = 913 */
 411               	/* stack size = 931 */
 412               	.L__stack_usage = 931
 413 0126 C857      		subi r28,lo8(-904)
 414 0128 DC4F      		sbci r29,hi8(-904)
 415 012a 8883      		st Y,r24
 416 012c C858      		subi r28,lo8(904)
 417 012e D340      		sbci r29,hi8(904)
 418 0130 C757      		subi r28,lo8(-905)
 419 0132 DC4F      		sbci r29,hi8(-905)
 420 0134 9883      		st Y,r25
 421 0136 C958      		subi r28,lo8(905)
 422 0138 D340      		sbci r29,hi8(905)
 423 013a C957      		subi r28,lo8(-903)
 424 013c DC4F      		sbci r29,hi8(-903)
 425 013e 6883      		st Y,r22
 426 0140 C758      		subi r28,lo8(903)
 427 0142 D340      		sbci r29,hi8(903)
 133:/Users/manueldeneu/Documents/projets/dev/Monu100/MicroController/MicMonu100/MicMonu100/Sensors.c ****     sensors_resetCalibration( sensors );
 429               	.LM36:
 430 0144 0E94 0000 		call sensors_resetCalibration
 431               	.LBB17:
 134:/Users/manueldeneu/Documents/projets/dev/Monu100/MicroController/MicMonu100/MicMonu100/Sensors.c ****     
 135:/Users/manueldeneu/Documents/projets/dev/Monu100/MicroController/MicMonu100/MicMonu100/Sensors.c ****     float temp[ SENSOR_COUNT ][ MIC_SENSOR_COUNT ];
 136:/Users/manueldeneu/Documents/projets/dev/Monu100/MicroController/MicMonu100/MicMonu100/Sensors.c ****     
 137:/Users/manueldeneu/Documents/projets/dev/Monu100/MicroController/MicMonu100/MicMonu100/Sensors.c ****     
 138:/Users/manueldeneu/Documents/projets/dev/Monu100/MicroController/MicMonu100/MicMonu100/Sensors.c ****     for ( uint8_t iter = 0; iter < count ; iter++)
 433               	.LM37:
 434 0148 712C      		mov r7,__zero_reg__
 435               	.LBB18:
 436               	.LBB19:
 139:/Users/manueldeneu/Documents/projets/dev/Monu100/MicroController/MicMonu100/MicMonu100/Sensors.c ****     {
 140:/Users/manueldeneu/Documents/projets/dev/Monu100/MicroController/MicMonu100/MicMonu100/Sensors.c ****         for (int j = 0; j<MIC_SENSOR_COUNT ; j++) // mics
 141:/Users/manueldeneu/Documents/projets/dev/Monu100/MicroController/MicMonu100/MicMonu100/Sensors.c ****         {
 142:/Users/manueldeneu/Documents/projets/dev/Monu100/MicroController/MicMonu100/MicMonu100/Sensors.c ****             
 143:/Users/manueldeneu/Documents/projets/dev/Monu100/MicroController/MicMonu100/MicMonu100/Sensors.c ****             for (int i = 0; i < MIC_SENSOR_COUNT ; i++)
 144:/Users/manueldeneu/Documents/projets/dev/Monu100/MicroController/MicMonu100/MicMonu100/Sensors.c ****             {
 145:/Users/manueldeneu/Documents/projets/dev/Monu100/MicroController/MicMonu100/MicMonu100/Sensors.c **** 
 146:/Users/manueldeneu/Documents/projets/dev/Monu100/MicroController/MicMonu100/MicMonu100/Sensors.c ****                 
 147:/Users/manueldeneu/Documents/projets/dev/Monu100/MicroController/MicMonu100/MicMonu100/Sensors.c ****                 if (iter == 0)
 148:/Users/manueldeneu/Documents/projets/dev/Monu100/MicroController/MicMonu100/MicMonu100/Sensors.c ****                     temp[i][j] = 0;
 149:/Users/manueldeneu/Documents/projets/dev/Monu100/MicroController/MicMonu100/MicMonu100/Sensors.c ****                 
 150:/Users/manueldeneu/Documents/projets/dev/Monu100/MicroController/MicMonu100/MicMonu100/Sensors.c ****                 temp[i][j] += (float) adc_read( i );// >> ADC_SHIFT_MULT;
 151:/Users/manueldeneu/Documents/projets/dev/Monu100/MicroController/MicMonu100/MicMonu100/Sensors.c ****                 
 152:/Users/manueldeneu/Documents/projets/dev/Monu100/MicroController/MicMonu100/MicMonu100/Sensors.c ****                 if( iter == count-1)
 438               	.LM38:
 439 014a C957      		subi r28,lo8(-903)
 440 014c DC4F      		sbci r29,hi8(-903)
 441 014e 2881      		ld r18,Y
 442 0150 C758      		subi r28,lo8(903)
 443 0152 D340      		sbci r29,hi8(903)
 444 0154 822F      		mov r24,r18
 445 0156 90E0      		ldi r25,0
 446 0158 AC01      		movw r20,r24
 447 015a 4150      		subi r20,1
 448 015c 5109      		sbc r21,__zero_reg__
 449 015e C457      		subi r28,lo8(-908)
 450 0160 DC4F      		sbci r29,hi8(-908)
 451 0162 5983      		std Y+1,r21
 452 0164 4883      		st Y,r20
 453 0166 CC58      		subi r28,lo8(908)
 454 0168 D340      		sbci r29,hi8(908)
 153:/Users/manueldeneu/Documents/projets/dev/Monu100/MicroController/MicMonu100/MicMonu100/Sensors.c ****                 {
 154:/Users/manueldeneu/Documents/projets/dev/Monu100/MicroController/MicMonu100/MicMonu100/Sensors.c ****                     temp[i][j] /= count;
 456               	.LM39:
 457 016a 9C01      		movw r18,r24
 458 016c 4427      		clr r20
 459 016e 37FD      		sbrc r19,7
 460 0170 4095      		com r20
 461 0172 542F      		mov r21,r20
 462 0174 C257      		subi r28,lo8(-910)
 463 0176 DC4F      		sbci r29,hi8(-910)
 464 0178 2883      		st Y,r18
 465 017a 3983      		std Y+1,r19
 466 017c 4A83      		std Y+2,r20
 467 017e 5B83      		std Y+3,r21
 468 0180 CE58      		subi r28,lo8(910)
 469 0182 D340      		sbci r29,hi8(910)
 470               	.L16:
 471               	.LBE19:
 472               	.LBE18:
 138:/Users/manueldeneu/Documents/projets/dev/Monu100/MicroController/MicMonu100/MicMonu100/Sensors.c ****     for ( uint8_t iter = 0; iter < count ; iter++)
 474               	.LM40:
 475 0184 C957      		subi r28,lo8(-903)
 476 0186 DC4F      		sbci r29,hi8(-903)
 477 0188 8881      		ld r24,Y
 478 018a C758      		subi r28,lo8(903)
 479 018c D340      		sbci r29,hi8(903)
 480 018e 7816      		cp r7,r24
 481 0190 01F4      		brne .+2
 482 0192 00C0      		rjmp .L15
 483 0194 FE01      		movw r30,r28
 484 0196 3196      		adiw r30,1
 485 0198 2F01      		movw r4,r30
 486 019a C857      		subi r28,lo8(-904)
 487 019c DC4F      		sbci r29,hi8(-904)
 488 019e 2880      		ld r2,Y
 489 01a0 C858      		subi r28,lo8(904)
 490 01a2 D340      		sbci r29,hi8(904)
 491 01a4 C757      		subi r28,lo8(-905)
 492 01a6 DC4F      		sbci r29,hi8(-905)
 493 01a8 3880      		ld r3,Y
 494 01aa C958      		subi r28,lo8(905)
 495 01ac D340      		sbci r29,hi8(905)
 138:/Users/manueldeneu/Documents/projets/dev/Monu100/MicroController/MicMonu100/MicMonu100/Sensors.c ****     for ( uint8_t iter = 0; iter < count ; iter++)
 497               	.LM41:
 498 01ae 00E0      		ldi r16,0
 499 01b0 10E0      		ldi r17,0
 500               	.LBB24:
 501               	.LBB22:
 152:/Users/manueldeneu/Documents/projets/dev/Monu100/MicroController/MicMonu100/MicMonu100/Sensors.c ****                 if( iter == count-1)
 503               	.LM42:
 504 01b2 272D      		mov r18,r7
 505 01b4 30E0      		ldi r19,0
 506 01b6 C657      		subi r28,lo8(-906)
 507 01b8 DC4F      		sbci r29,hi8(-906)
 508 01ba 3983      		std Y+1,r19
 509 01bc 2883      		st Y,r18
 510 01be CA58      		subi r28,lo8(906)
 511 01c0 D340      		sbci r29,hi8(906)
 512               	.L28:
 513               	.LBE22:
 514               	.LBE24:
 515               	.LBE17:
 132:/Users/manueldeneu/Documents/projets/dev/Monu100/MicroController/MicMonu100/MicMonu100/Sensors.c **** {
 517               	.LM43:
 518 01c2 612C      		mov r6,__zero_reg__
 519 01c4 812C      		mov r8,__zero_reg__
 520 01c6 912C      		mov r9,__zero_reg__
 521 01c8 A12C      		mov r10,__zero_reg__
 522 01ca B12C      		mov r11,__zero_reg__
 523               	.L26:
 524 01cc A201      		movw r20,r4
 525 01ce 4A0D      		add r20,r10
 526 01d0 5B1D      		adc r21,r11
 527 01d2 CB57      		subi r28,lo8(-901)
 528 01d4 DC4F      		sbci r29,hi8(-901)
 529 01d6 5983      		std Y+1,r21
 530 01d8 4883      		st Y,r20
 531 01da C558      		subi r28,lo8(901)
 532 01dc D340      		sbci r29,hi8(901)
 533               	.LBB26:
 534               	.LBB25:
 535               	.LBB23:
 147:/Users/manueldeneu/Documents/projets/dev/Monu100/MicroController/MicMonu100/MicMonu100/Sensors.c ****                 if (iter == 0)
 537               	.LM44:
 538 01de 7110      		cpse r7,__zero_reg__
 539 01e0 00C0      		rjmp .L17
 148:/Users/manueldeneu/Documents/projets/dev/Monu100/MicroController/MicMonu100/MicMonu100/Sensors.c ****                     temp[i][j] = 0;
 541               	.LM45:
 542 01e2 FA01      		movw r30,r20
 543 01e4 1082      		st Z,__zero_reg__
 544 01e6 1182      		std Z+1,__zero_reg__
 545 01e8 1282      		std Z+2,__zero_reg__
 546 01ea 1382      		std Z+3,__zero_reg__
 547               	.L17:
 150:/Users/manueldeneu/Documents/projets/dev/Monu100/MicroController/MicMonu100/MicMonu100/Sensors.c ****                 temp[i][j] += (float) adc_read( i );// >> ADC_SHIFT_MULT;
 549               	.LM46:
 550 01ec CB57      		subi r28,lo8(-901)
 551 01ee DC4F      		sbci r29,hi8(-901)
 552 01f0 E881      		ld r30,Y
 553 01f2 F981      		ldd r31,Y+1
 554 01f4 C558      		subi r28,lo8(901)
 555 01f6 D340      		sbci r29,hi8(901)
 556 01f8 C080      		ld r12,Z
 557 01fa D180      		ldd r13,Z+1
 558 01fc E280      		ldd r14,Z+2
 559 01fe F380      		ldd r15,Z+3
 560               	.LBB20:
 561               	.LBB21:
  78:/Users/manueldeneu/Documents/projets/dev/Monu100/MicroController/MicMonu100/MicMonu100/Sensors.c ****     ADMUX &= 0xE0;           //Clear bits MUX0-4
 563               	.LM47:
 564 0200 8091 7C00 		lds r24,124
 565 0204 807E      		andi r24,lo8(-32)
 566 0206 8093 7C00 		sts 124,r24
  79:/Users/manueldeneu/Documents/projets/dev/Monu100/MicroController/MicMonu100/MicMonu100/Sensors.c ****     ADMUX |= channel&0x07;   //Defines the new ADC channel to be read by setting bits MUX0-2
 568               	.LM48:
 569 020a 9091 7C00 		lds r25,124
 570 020e 862D      		mov r24,r6
 571 0210 8770      		andi r24,lo8(7)
 572 0212 892B      		or r24,r25
 573 0214 8093 7C00 		sts 124,r24
  80:/Users/manueldeneu/Documents/projets/dev/Monu100/MicroController/MicMonu100/MicMonu100/Sensors.c ****     ADCSRB = channel&(1<<3); //Set MUX5
 575               	.LM49:
 576 0218 862D      		mov r24,r6
 577 021a 8870      		andi r24,lo8(8)
 578 021c 8093 7B00 		sts 123,r24
  81:/Users/manueldeneu/Documents/projets/dev/Monu100/MicroController/MicMonu100/MicMonu100/Sensors.c ****     ADCSRA |= (1<<ADSC);      //Starts a new conversion
 580               	.LM50:
 581 0220 8091 7A00 		lds r24,122
 582 0224 8064      		ori r24,lo8(64)
 583 0226 8093 7A00 		sts 122,r24
 584               	.L19:
  83:/Users/manueldeneu/Documents/projets/dev/Monu100/MicroController/MicMonu100/MicMonu100/Sensors.c ****     while( ADCSRA & (1<<ADSC) );  //Wait until the conversion is done
 586               	.LM51:
 587 022a 8091 7A00 		lds r24,122
 588 022e 86FD      		sbrc r24,6
 589 0230 00C0      		rjmp .L19
  85:/Users/manueldeneu/Documents/projets/dev/Monu100/MicroController/MicMonu100/MicMonu100/Sensors.c ****     return ADCW;
 591               	.LM52:
 592 0232 6091 7800 		lds r22,120
 593 0236 7091 7900 		lds r23,120+1
 594               	.LBE21:
 595               	.LBE20:
 150:/Users/manueldeneu/Documents/projets/dev/Monu100/MicroController/MicMonu100/MicMonu100/Sensors.c ****                 temp[i][j] += (float) adc_read( i );// >> ADC_SHIFT_MULT;
 597               	.LM53:
 598 023a 80E0      		ldi r24,0
 599 023c 90E0      		ldi r25,0
 600 023e 0E94 0000 		call __floatunsisf
 601 0242 9B01      		movw r18,r22
 602 0244 AC01      		movw r20,r24
 603 0246 C701      		movw r24,r14
 604 0248 B601      		movw r22,r12
 605 024a 0E94 0000 		call __addsf3
 606 024e 6B01      		movw r12,r22
 607 0250 7C01      		movw r14,r24
 152:/Users/manueldeneu/Documents/projets/dev/Monu100/MicroController/MicMonu100/MicMonu100/Sensors.c ****                 if( iter == count-1)
 609               	.LM54:
 610 0252 C657      		subi r28,lo8(-906)
 611 0254 DC4F      		sbci r29,hi8(-906)
 612 0256 2881      		ld r18,Y
 613 0258 3981      		ldd r19,Y+1
 614 025a CA58      		subi r28,lo8(906)
 615 025c D340      		sbci r29,hi8(906)
 616 025e C457      		subi r28,lo8(-908)
 617 0260 DC4F      		sbci r29,hi8(-908)
 618 0262 4881      		ld r20,Y
 619 0264 5981      		ldd r21,Y+1
 620 0266 CC58      		subi r28,lo8(908)
 621 0268 D340      		sbci r29,hi8(908)
 622 026a 2417      		cp r18,r20
 623 026c 3507      		cpc r19,r21
 624 026e 01F0      		breq .L20
 150:/Users/manueldeneu/Documents/projets/dev/Monu100/MicroController/MicMonu100/MicMonu100/Sensors.c ****                 temp[i][j] += (float) adc_read( i );// >> ADC_SHIFT_MULT;
 626               	.LM55:
 627 0270 CB57      		subi r28,lo8(-901)
 628 0272 DC4F      		sbci r29,hi8(-901)
 629 0274 E881      		ld r30,Y
 630 0276 F981      		ldd r31,Y+1
 631 0278 C558      		subi r28,lo8(901)
 632 027a D340      		sbci r29,hi8(901)
 633 027c 6083      		st Z,r22
 634 027e 7183      		std Z+1,r23
 635 0280 8283      		std Z+2,r24
 636 0282 9383      		std Z+3,r25
 637 0284 00C0      		rjmp .L21
 638               	.L20:
 640               	.LM56:
 641 0286 C257      		subi r28,lo8(-910)
 642 0288 DC4F      		sbci r29,hi8(-910)
 643 028a 6881      		ld r22,Y
 644 028c 7981      		ldd r23,Y+1
 645 028e 8A81      		ldd r24,Y+2
 646 0290 9B81      		ldd r25,Y+3
 647 0292 CE58      		subi r28,lo8(910)
 648 0294 D340      		sbci r29,hi8(910)
 649 0296 0E94 0000 		call __floatsisf
 650 029a 9B01      		movw r18,r22
 651 029c AC01      		movw r20,r24
 652 029e C701      		movw r24,r14
 653 02a0 B601      		movw r22,r12
 654 02a2 0E94 0000 		call __divsf3
 655 02a6 CB57      		subi r28,lo8(-901)
 656 02a8 DC4F      		sbci r29,hi8(-901)
 657 02aa E881      		ld r30,Y
 658 02ac F981      		ldd r31,Y+1
 659 02ae C558      		subi r28,lo8(901)
 660 02b0 D340      		sbci r29,hi8(901)
 661 02b2 6083      		st Z,r22
 662 02b4 7183      		std Z+1,r23
 663 02b6 8283      		std Z+2,r24
 664 02b8 9383      		std Z+3,r25
 155:/Users/manueldeneu/Documents/projets/dev/Monu100/MicroController/MicMonu100/MicMonu100/Sensors.c ****                     sensors->calibValues[i][j] =  (uint16_t)temp[i][j];
 666               	.LM57:
 667 02ba 0E94 0000 		call __fixunssfsi
 668 02be F101      		movw r30,r2
 669 02c0 E80D      		add r30,r8
 670 02c2 F91D      		adc r31,r9
 671 02c4 7183      		std Z+1,r23
 672 02c6 6083      		st Z,r22
 673               	.L21:
 674 02c8 FCE3      		ldi r31,60
 675 02ca AF0E      		add r10,r31
 676 02cc B11C      		adc r11,__zero_reg__
 677 02ce 2EE1      		ldi r18,30
 678 02d0 820E      		add r8,r18
 679 02d2 911C      		adc r9,__zero_reg__
 680 02d4 6394      		inc r6
 143:/Users/manueldeneu/Documents/projets/dev/Monu100/MicroController/MicMonu100/MicMonu100/Sensors.c ****             for (int i = 0; i < MIC_SENSOR_COUNT ; i++)
 682               	.LM58:
 683 02d6 3FE0      		ldi r19,lo8(15)
 684 02d8 6312      		cpse r6,r19
 685 02da 00C0      		rjmp .L26
 686               	.LBE23:
 156:/Users/manueldeneu/Documents/projets/dev/Monu100/MicroController/MicMonu100/MicMonu100/Sensors.c ****                 }
 157:/Users/manueldeneu/Documents/projets/dev/Monu100/MicroController/MicMonu100/MicMonu100/Sensors.c ****             }
 158:/Users/manueldeneu/Documents/projets/dev/Monu100/MicroController/MicMonu100/MicMonu100/Sensors.c ****             
 159:/Users/manueldeneu/Documents/projets/dev/Monu100/MicroController/MicMonu100/MicMonu100/Sensors.c ****             
 160:/Users/manueldeneu/Documents/projets/dev/Monu100/MicroController/MicMonu100/MicMonu100/Sensors.c ****             if (j== (MIC_SENSOR_COUNT-1) )
 688               	.LM59:
 689 02dc 0E30      		cpi r16,14
 690 02de 1105      		cpc r17,__zero_reg__
 691 02e0 01F4      		brne .L23
 161:/Users/manueldeneu/Documents/projets/dev/Monu100/MicroController/MicMonu100/MicMonu100/Sensors.c ****             {
 162:/Users/manueldeneu/Documents/projets/dev/Monu100/MicroController/MicMonu100/MicMonu100/Sensors.c ****                 setHigh( LDR_DATA_PORT , LDR_DATA_PIN );
 693               	.LM60:
 694 02e2 5F9A      		sbi 0xb,7
 695 02e4 00C0      		rjmp .L24
 696               	.L23:
 163:/Users/manueldeneu/Documents/projets/dev/Monu100/MicroController/MicMonu100/MicMonu100/Sensors.c ****             }
 164:/Users/manueldeneu/Documents/projets/dev/Monu100/MicroController/MicMonu100/MicMonu100/Sensors.c ****             else
 165:/Users/manueldeneu/Documents/projets/dev/Monu100/MicroController/MicMonu100/MicMonu100/Sensors.c ****             {
 166:/Users/manueldeneu/Documents/projets/dev/Monu100/MicroController/MicMonu100/MicMonu100/Sensors.c ****                 setLow( LDR_DATA_PORT , LDR_DATA_PIN );
 698               	.LM61:
 699 02e6 5F98      		cbi 0xb,7
 700               	.L24:
 167:/Users/manueldeneu/Documents/projets/dev/Monu100/MicroController/MicMonu100/MicMonu100/Sensors.c ****             }
 168:/Users/manueldeneu/Documents/projets/dev/Monu100/MicroController/MicMonu100/MicMonu100/Sensors.c ****             
 169:/Users/manueldeneu/Documents/projets/dev/Monu100/MicroController/MicMonu100/MicMonu100/Sensors.c ****             pulse( LDR_CLOCK_PORT , LDR_CLOCK_PIN);
 702               	.LM62:
 703 02e8 5B9A      		sbi 0xb,3
 704 02ea 5B98      		cbi 0xb,3
 170:/Users/manueldeneu/Documents/projets/dev/Monu100/MicroController/MicMonu100/MicMonu100/Sensors.c ****             
 171:/Users/manueldeneu/Documents/projets/dev/Monu100/MicroController/MicMonu100/MicMonu100/Sensors.c ****             pulse( LDR_STROBE_PORT, LDR_STROBE_PIN);
 706               	.LM63:
 707 02ec 749A      		sbi 0xe,4
 708 02ee 7498      		cbi 0xe,4
 140:/Users/manueldeneu/Documents/projets/dev/Monu100/MicroController/MicMonu100/MicMonu100/Sensors.c ****         for (int j = 0; j<MIC_SENSOR_COUNT ; j++) // mics
 710               	.LM64:
 711 02f0 0F5F      		subi r16,-1
 712 02f2 1F4F      		sbci r17,-1
 713 02f4 44E0      		ldi r20,4
 714 02f6 440E      		add r4,r20
 715 02f8 511C      		adc r5,__zero_reg__
 716 02fa 52E0      		ldi r21,2
 717 02fc 250E      		add r2,r21
 718 02fe 311C      		adc r3,__zero_reg__
 719 0300 0F30      		cpi r16,15
 720 0302 1105      		cpc r17,__zero_reg__
 721 0304 01F0      		breq .+2
 722 0306 00C0      		rjmp .L28
 723               	.LBE25:
 138:/Users/manueldeneu/Documents/projets/dev/Monu100/MicroController/MicMonu100/MicMonu100/Sensors.c ****     for ( uint8_t iter = 0; iter < count ; iter++)
 725               	.LM65:
 726 0308 7394      		inc r7
 727 030a 00C0      		rjmp .L16
 728               	.L15:
 729               	/* epilogue start */
 730               	.LBE26:
 172:/Users/manueldeneu/Documents/projets/dev/Monu100/MicroController/MicMonu100/MicMonu100/Sensors.c ****             
 173:/Users/manueldeneu/Documents/projets/dev/Monu100/MicroController/MicMonu100/MicMonu100/Sensors.c ****         }
 174:/Users/manueldeneu/Documents/projets/dev/Monu100/MicroController/MicMonu100/MicMonu100/Sensors.c ****         
 175:/Users/manueldeneu/Documents/projets/dev/Monu100/MicroController/MicMonu100/MicMonu100/Sensors.c ****     }
 176:/Users/manueldeneu/Documents/projets/dev/Monu100/MicroController/MicMonu100/MicMonu100/Sensors.c ****     
 177:/Users/manueldeneu/Documents/projets/dev/Monu100/MicroController/MicMonu100/MicMonu100/Sensors.c **** }
 732               	.LM66:
 733 030c CF56      		subi r28,111
 734 030e DC4F      		sbci r29,-4
 735 0310 0FB6      		in __tmp_reg__,__SREG__
 736 0312 F894      		cli
 737 0314 DEBF      		out __SP_H__,r29
 738 0316 0FBE      		out __SREG__,__tmp_reg__
 739 0318 CDBF      		out __SP_L__,r28
 740 031a DF91      		pop r29
 741 031c CF91      		pop r28
 742 031e 1F91      		pop r17
 743 0320 0F91      		pop r16
 744 0322 FF90      		pop r15
 745 0324 EF90      		pop r14
 746 0326 DF90      		pop r13
 747 0328 CF90      		pop r12
 748 032a BF90      		pop r11
 749 032c AF90      		pop r10
 750 032e 9F90      		pop r9
 751 0330 8F90      		pop r8
 752 0332 7F90      		pop r7
 753 0334 6F90      		pop r6
 754 0336 5F90      		pop r5
 755 0338 4F90      		pop r4
 756 033a 3F90      		pop r3
 757 033c 2F90      		pop r2
 758 033e 0895      		ret
 778               	.Lscope4:
 781               	.global	readFrame
 783               	readFrame:
 178:/Users/manueldeneu/Documents/projets/dev/Monu100/MicroController/MicMonu100/MicMonu100/Sensors.c **** 
 179:/Users/manueldeneu/Documents/projets/dev/Monu100/MicroController/MicMonu100/MicMonu100/Sensors.c **** /* **** **** **** **** **** **** **** **** **** **** **** **** **** **** **** **** **** */
 180:/Users/manueldeneu/Documents/projets/dev/Monu100/MicroController/MicMonu100/MicMonu100/Sensors.c **** 
 181:/Users/manueldeneu/Documents/projets/dev/Monu100/MicroController/MicMonu100/MicMonu100/Sensors.c **** void readFrame(Sensors *sensors)
 182:/Users/manueldeneu/Documents/projets/dev/Monu100/MicroController/MicMonu100/MicMonu100/Sensors.c **** {
 785               	.LM67:
 786               	.LFBB5:
 787               	/* prologue: function */
 788               	/* frame size = 0 */
 789               	/* stack size = 0 */
 790               	.L__stack_usage = 0
 183:/Users/manueldeneu/Documents/projets/dev/Monu100/MicroController/MicMonu100/MicMonu100/Sensors.c ****     extract_image( sensors );
 792               	.LM68:
 793 0340 0C94 0000 		jmp extract_image
 795               	.Lscope5:
 796               	.global	__fixsfsi
 797               	.global	__mulsf3
 801               	.global	readRow
 803               	readRow:
 184:/Users/manueldeneu/Documents/projets/dev/Monu100/MicroController/MicMonu100/MicMonu100/Sensors.c **** }
 185:/Users/manueldeneu/Documents/projets/dev/Monu100/MicroController/MicMonu100/MicMonu100/Sensors.c **** 
 186:/Users/manueldeneu/Documents/projets/dev/Monu100/MicroController/MicMonu100/MicMonu100/Sensors.c **** /* **** **** **** **** **** **** **** **** **** **** **** **** **** **** **** **** **** */
 187:/Users/manueldeneu/Documents/projets/dev/Monu100/MicroController/MicMonu100/MicMonu100/Sensors.c **** 
 188:/Users/manueldeneu/Documents/projets/dev/Monu100/MicroController/MicMonu100/MicMonu100/Sensors.c **** void readRow( Sensors *sensors , uint8_t *buffer)
 189:/Users/manueldeneu/Documents/projets/dev/Monu100/MicroController/MicMonu100/MicMonu100/Sensors.c **** {
 805               	.LM69:
 806               	.LFBB6:
 807 0344 2F92      		push r2
 808 0346 3F92      		push r3
 809 0348 4F92      		push r4
 810 034a 5F92      		push r5
 811 034c 6F92      		push r6
 812 034e 7F92      		push r7
 813 0350 8F92      		push r8
 814 0352 9F92      		push r9
 815 0354 AF92      		push r10
 816 0356 BF92      		push r11
 817 0358 CF92      		push r12
 818 035a DF92      		push r13
 819 035c EF92      		push r14
 820 035e FF92      		push r15
 821 0360 0F93      		push r16
 822 0362 1F93      		push r17
 823 0364 CF93      		push r28
 824 0366 DF93      		push r29
 825               	/* prologue: function */
 826               	/* frame size = 0 */
 827               	/* stack size = 18 */
 828               	.L__stack_usage = 18
 190:/Users/manueldeneu/Documents/projets/dev/Monu100/MicroController/MicMonu100/MicMonu100/Sensors.c ****     const uint8_t j = sensors->currentRow;
 830               	.LM70:
 831 0368 FC01      		movw r30,r24
 832 036a E053      		subi r30,48
 833 036c FE4F      		sbci r31,-2
 834 036e 2081      		ld r18,Z
 191:/Users/manueldeneu/Documents/projets/dev/Monu100/MicroController/MicMonu100/MicMonu100/Sensors.c ****     
 192:/Users/manueldeneu/Documents/projets/dev/Monu100/MicroController/MicMonu100/MicMonu100/Sensors.c ****     if (sensors->currentRow == 0 )
 836               	.LM71:
 837 0370 2111      		cpse r18,__zero_reg__
 838 0372 00C0      		rjmp .L31
 193:/Users/manueldeneu/Documents/projets/dev/Monu100/MicroController/MicMonu100/MicMonu100/Sensors.c ****     {
 194:/Users/manueldeneu/Documents/projets/dev/Monu100/MicroController/MicMonu100/MicMonu100/Sensors.c ****         setHigh( LDR_DATA_PORT , LDR_DATA_PIN );
 840               	.LM72:
 841 0374 5F9A      		sbi 0xb,7
 842 0376 00C0      		rjmp .L32
 843               	.L31:
 195:/Users/manueldeneu/Documents/projets/dev/Monu100/MicroController/MicMonu100/MicMonu100/Sensors.c **** 
 196:/Users/manueldeneu/Documents/projets/dev/Monu100/MicroController/MicMonu100/MicMonu100/Sensors.c ****     }
 197:/Users/manueldeneu/Documents/projets/dev/Monu100/MicroController/MicMonu100/MicMonu100/Sensors.c ****     else
 198:/Users/manueldeneu/Documents/projets/dev/Monu100/MicroController/MicMonu100/MicMonu100/Sensors.c ****     {
 199:/Users/manueldeneu/Documents/projets/dev/Monu100/MicroController/MicMonu100/MicMonu100/Sensors.c ****         setLow( LDR_DATA_PORT , LDR_DATA_PIN );
 845               	.LM73:
 846 0378 5F98      		cbi 0xb,7
 847               	.L32:
 200:/Users/manueldeneu/Documents/projets/dev/Monu100/MicroController/MicMonu100/MicMonu100/Sensors.c ****     }
 201:/Users/manueldeneu/Documents/projets/dev/Monu100/MicroController/MicMonu100/MicMonu100/Sensors.c ****     
 202:/Users/manueldeneu/Documents/projets/dev/Monu100/MicroController/MicMonu100/MicMonu100/Sensors.c ****     pulse( LDR_CLOCK_PORT , LDR_CLOCK_PIN);
 849               	.LM74:
 850 037a 5B9A      		sbi 0xb,3
 851 037c 5B98      		cbi 0xb,3
 203:/Users/manueldeneu/Documents/projets/dev/Monu100/MicroController/MicMonu100/MicMonu100/Sensors.c ****     pulse( LDR_STROBE_PORT, LDR_STROBE_PIN);
 853               	.LM75:
 854 037e 749A      		sbi 0xe,4
 855 0380 7498      		cbi 0xe,4
 856               	.LBB27:
 857               	.LBB28:
 204:/Users/manueldeneu/Documents/projets/dev/Monu100/MicroController/MicMonu100/MicMonu100/Sensors.c ****     /*
 205:/Users/manueldeneu/Documents/projets/dev/Monu100/MicroController/MicMonu100/MicMonu100/Sensors.c ****     if ( (rowIndex == 15) ||
 206:/Users/manueldeneu/Documents/projets/dev/Monu100/MicroController/MicMonu100/MicMonu100/Sensors.c ****         (rowIndex == 22)
 207:/Users/manueldeneu/Documents/projets/dev/Monu100/MicroController/MicMonu100/MicMonu100/Sensors.c ****         )
 208:/Users/manueldeneu/Documents/projets/dev/Monu100/MicroController/MicMonu100/MicMonu100/Sensors.c ****     {
 209:/Users/manueldeneu/Documents/projets/dev/Monu100/MicroController/MicMonu100/MicMonu100/Sensors.c ****         setLow( DATA0_PORT , DATA0_PIN);
 210:/Users/manueldeneu/Documents/projets/dev/Monu100/MicroController/MicMonu100/MicMonu100/Sensors.c ****         setLow( DATA1_PORT , DATA1_PIN);
 211:/Users/manueldeneu/Documents/projets/dev/Monu100/MicroController/MicMonu100/MicMonu100/Sensors.c ****         
 212:/Users/manueldeneu/Documents/projets/dev/Monu100/MicroController/MicMonu100/MicMonu100/Sensors.c ****         pulse( MIC_CLOCK_PORT , MIC_CLOCK_PIN );
 213:/Users/manueldeneu/Documents/projets/dev/Monu100/MicroController/MicMonu100/MicMonu100/Sensors.c ****     }
 214:/Users/manueldeneu/Documents/projets/dev/Monu100/MicroController/MicMonu100/MicMonu100/Sensors.c ****     */
 215:/Users/manueldeneu/Documents/projets/dev/Monu100/MicroController/MicMonu100/MicMonu100/Sensors.c **** 
 216:/Users/manueldeneu/Documents/projets/dev/Monu100/MicroController/MicMonu100/MicMonu100/Sensors.c **** 
 217:/Users/manueldeneu/Documents/projets/dev/Monu100/MicroController/MicMonu100/MicMonu100/Sensors.c **** //    _delay_us( 1600 );    // 1500
 218:/Users/manueldeneu/Documents/projets/dev/Monu100/MicroController/MicMonu100/MicMonu100/Sensors.c ****     
 219:/Users/manueldeneu/Documents/projets/dev/Monu100/MicroController/MicMonu100/MicMonu100/Sensors.c ****     for (int i = 0; i < MIC_SENSOR_COUNT ; i++)
 220:/Users/manueldeneu/Documents/projets/dev/Monu100/MicroController/MicMonu100/MicMonu100/Sensors.c **** //      for (int i = 14; i >= 0 ; i--)
 221:/Users/manueldeneu/Documents/projets/dev/Monu100/MicroController/MicMonu100/MicMonu100/Sensors.c ****     {
 222:/Users/manueldeneu/Documents/projets/dev/Monu100/MicroController/MicMonu100/MicMonu100/Sensors.c **** 
 223:/Users/manueldeneu/Documents/projets/dev/Monu100/MicroController/MicMonu100/MicMonu100/Sensors.c ****         const int read = adc_read( i-1 );
 224:/Users/manueldeneu/Documents/projets/dev/Monu100/MicroController/MicMonu100/MicMonu100/Sensors.c ****         const int diffLow  = ( int ) ( sensors->prevMoyenne*0.65f ); // 0.65
 225:/Users/manueldeneu/Documents/projets/dev/Monu100/MicroController/MicMonu100/MicMonu100/Sensors.c ****         const int diffHigh = ( int ) ( sensors->prevMoyenne*2.0f );
 226:/Users/manueldeneu/Documents/projets/dev/Monu100/MicroController/MicMonu100/MicMonu100/Sensors.c ****         
 227:/Users/manueldeneu/Documents/projets/dev/Monu100/MicroController/MicMonu100/MicMonu100/Sensors.c ****         int val = read;
 228:/Users/manueldeneu/Documents/projets/dev/Monu100/MicroController/MicMonu100/MicMonu100/Sensors.c **** 
 229:/Users/manueldeneu/Documents/projets/dev/Monu100/MicroController/MicMonu100/MicMonu100/Sensors.c **** 
 230:/Users/manueldeneu/Documents/projets/dev/Monu100/MicroController/MicMonu100/MicMonu100/Sensors.c ****         if ( read<diffHigh )
 231:/Users/manueldeneu/Documents/projets/dev/Monu100/MicroController/MicMonu100/MicMonu100/Sensors.c ****         {
 232:/Users/manueldeneu/Documents/projets/dev/Monu100/MicroController/MicMonu100/MicMonu100/Sensors.c ****             sensors->moyenne+= read;
 233:/Users/manueldeneu/Documents/projets/dev/Monu100/MicroController/MicMonu100/MicMonu100/Sensors.c ****         }
 234:/Users/manueldeneu/Documents/projets/dev/Monu100/MicroController/MicMonu100/MicMonu100/Sensors.c ****         
 235:/Users/manueldeneu/Documents/projets/dev/Monu100/MicroController/MicMonu100/MicMonu100/Sensors.c **** 
 236:/Users/manueldeneu/Documents/projets/dev/Monu100/MicroController/MicMonu100/MicMonu100/Sensors.c ****         
 237:/Users/manueldeneu/Documents/projets/dev/Monu100/MicroController/MicMonu100/MicMonu100/Sensors.c ****         
 238:/Users/manueldeneu/Documents/projets/dev/Monu100/MicroController/MicMonu100/MicMonu100/Sensors.c ****         // light
 239:/Users/manueldeneu/Documents/projets/dev/Monu100/MicroController/MicMonu100/MicMonu100/Sensors.c ****         if ( read>=diffHigh)
 240:/Users/manueldeneu/Documents/projets/dev/Monu100/MicroController/MicMonu100/MicMonu100/Sensors.c ****         {
 241:/Users/manueldeneu/Documents/projets/dev/Monu100/MicroController/MicMonu100/MicMonu100/Sensors.c ****             val = BLOB_LIGHT;
 242:/Users/manueldeneu/Documents/projets/dev/Monu100/MicroController/MicMonu100/MicMonu100/Sensors.c ****         }
 243:/Users/manueldeneu/Documents/projets/dev/Monu100/MicroController/MicMonu100/MicMonu100/Sensors.c ****         
 244:/Users/manueldeneu/Documents/projets/dev/Monu100/MicroController/MicMonu100/MicMonu100/Sensors.c ****         // Shadow
 245:/Users/manueldeneu/Documents/projets/dev/Monu100/MicroController/MicMonu100/MicMonu100/Sensors.c ****         else if ( val < diffLow )
 246:/Users/manueldeneu/Documents/projets/dev/Monu100/MicroController/MicMonu100/MicMonu100/Sensors.c ****             val = BLOB_SHADOW;
 247:/Users/manueldeneu/Documents/projets/dev/Monu100/MicroController/MicMonu100/MicMonu100/Sensors.c **** 
 248:/Users/manueldeneu/Documents/projets/dev/Monu100/MicroController/MicMonu100/MicMonu100/Sensors.c ****         else
 249:/Users/manueldeneu/Documents/projets/dev/Monu100/MicroController/MicMonu100/MicMonu100/Sensors.c ****         {
 250:/Users/manueldeneu/Documents/projets/dev/Monu100/MicroController/MicMonu100/MicMonu100/Sensors.c **** 
 251:/Users/manueldeneu/Documents/projets/dev/Monu100/MicroController/MicMonu100/MicMonu100/Sensors.c ****             val = 0;
 252:/Users/manueldeneu/Documents/projets/dev/Monu100/MicroController/MicMonu100/MicMonu100/Sensors.c ****         }
 253:/Users/manueldeneu/Documents/projets/dev/Monu100/MicroController/MicMonu100/MicMonu100/Sensors.c **** 
 254:/Users/manueldeneu/Documents/projets/dev/Monu100/MicroController/MicMonu100/MicMonu100/Sensors.c **** 
 255:/Users/manueldeneu/Documents/projets/dev/Monu100/MicroController/MicMonu100/MicMonu100/Sensors.c **** /*
 256:/Users/manueldeneu/Documents/projets/dev/Monu100/MicroController/MicMonu100/MicMonu100/Sensors.c ****         if ( buffer != NULL)
 257:/Users/manueldeneu/Documents/projets/dev/Monu100/MicroController/MicMonu100/MicMonu100/Sensors.c ****             buffer[i] =(uint8_t) val ;
 258:/Users/manueldeneu/Documents/projets/dev/Monu100/MicroController/MicMonu100/MicMonu100/Sensors.c **** */
 259:/Users/manueldeneu/Documents/projets/dev/Monu100/MicroController/MicMonu100/MicMonu100/Sensors.c ****         
 260:/Users/manueldeneu/Documents/projets/dev/Monu100/MicroController/MicMonu100/MicMonu100/Sensors.c ****         // temp : ignore edges
 261:/Users/manueldeneu/Documents/projets/dev/Monu100/MicroController/MicMonu100/MicMonu100/Sensors.c **** //        if( (i!= 0) && ( i!= SENSOR_COUNT-1 ) && ( j!= 0) && ( j!= SENSOR_COUNT-1 ))
 262:/Users/manueldeneu/Documents/projets/dev/Monu100/MicroController/MicMonu100/MicMonu100/Sensors.c ****             sensors->values[i][ j ] = val;
 263:/Users/manueldeneu/Documents/projets/dev/Monu100/MicroController/MicMonu100/MicMonu100/Sensors.c ****         
 264:/Users/manueldeneu/Documents/projets/dev/Monu100/MicroController/MicMonu100/MicMonu100/Sensors.c ****         
 265:/Users/manueldeneu/Documents/projets/dev/Monu100/MicroController/MicMonu100/MicMonu100/Sensors.c ****         const uint8_t x = j*2;
 859               	.LM76:
 860 0382 222E      		mov r2,r18
 861 0384 220C      		lsl r2
 862 0386 C0E0      		ldi r28,0
 863 0388 D0E0      		ldi r29,0
 864 038a 3324      		clr r3
 865 038c 3A94      		dec r3
 224:/Users/manueldeneu/Documents/projets/dev/Monu100/MicroController/MicMonu100/MicMonu100/Sensors.c ****         const int diffLow  = ( int ) ( sensors->prevMoyenne*0.65f ); // 0.65
 867               	.LM77:
 868 038e 5C01      		movw r10,r24
 869 0390 36E3      		ldi r19,54
 870 0392 A31A      		sub r10,r19
 871 0394 3EEF      		ldi r19,-2
 872 0396 B30A      		sbc r11,r19
 232:/Users/manueldeneu/Documents/projets/dev/Monu100/MicroController/MicMonu100/MicMonu100/Sensors.c ****             sensors->moyenne+= read;
 874               	.LM78:
 875 0398 6C01      		movw r12,r24
 876 039a EAE3      		ldi r30,58
 877 039c CE1A      		sub r12,r30
 878 039e EEEF      		ldi r30,-2
 879 03a0 DE0A      		sbc r13,r30
 880 03a2 4C01      		movw r8,r24
 881 03a4 820E      		add r8,r18
 882 03a6 911C      		adc r9,__zero_reg__
 266:/Users/manueldeneu/Documents/projets/dev/Monu100/MicroController/MicMonu100/MicMonu100/Sensors.c ****         const uint8_t y = (14-i)*2;
 267:/Users/manueldeneu/Documents/projets/dev/Monu100/MicroController/MicMonu100/MicMonu100/Sensors.c **** 
 268:/Users/manueldeneu/Documents/projets/dev/Monu100/MicroController/MicMonu100/MicMonu100/Sensors.c **** 
 269:/Users/manueldeneu/Documents/projets/dev/Monu100/MicroController/MicMonu100/MicMonu100/Sensors.c ****         display_setFillColor( sensors->display, val );
 884               	.LM79:
 885 03a8 7C01      		movw r14,r24
 886 03aa F2E3      		ldi r31,50
 887 03ac EF1A      		sub r14,r31
 888 03ae FEEF      		ldi r31,-2
 889 03b0 FF0A      		sbc r15,r31
 890               	.L39:
 891               	.LBB29:
 892               	.LBB30:
  78:/Users/manueldeneu/Documents/projets/dev/Monu100/MicroController/MicMonu100/MicMonu100/Sensors.c ****     ADMUX &= 0xE0;           //Clear bits MUX0-4
 894               	.LM80:
 895 03b2 8091 7C00 		lds r24,124
 896 03b6 807E      		andi r24,lo8(-32)
 897 03b8 8093 7C00 		sts 124,r24
  79:/Users/manueldeneu/Documents/projets/dev/Monu100/MicroController/MicMonu100/MicMonu100/Sensors.c ****     ADMUX |= channel&0x07;   //Defines the new ADC channel to be read by setting bits MUX0-2
 899               	.LM81:
 900 03bc 9091 7C00 		lds r25,124
 901 03c0 832D      		mov r24,r3
 902 03c2 8770      		andi r24,lo8(7)
 903 03c4 892B      		or r24,r25
 904 03c6 8093 7C00 		sts 124,r24
  80:/Users/manueldeneu/Documents/projets/dev/Monu100/MicroController/MicMonu100/MicMonu100/Sensors.c ****     ADCSRB = channel&(1<<3); //Set MUX5
 906               	.LM82:
 907 03ca 832D      		mov r24,r3
 908 03cc 8870      		andi r24,lo8(8)
 909 03ce 8093 7B00 		sts 123,r24
  81:/Users/manueldeneu/Documents/projets/dev/Monu100/MicroController/MicMonu100/MicMonu100/Sensors.c ****     ADCSRA |= (1<<ADSC);      //Starts a new conversion
 911               	.LM83:
 912 03d2 8091 7A00 		lds r24,122
 913 03d6 8064      		ori r24,lo8(64)
 914 03d8 8093 7A00 		sts 122,r24
 915               	.L34:
  83:/Users/manueldeneu/Documents/projets/dev/Monu100/MicroController/MicMonu100/MicMonu100/Sensors.c ****     while( ADCSRA & (1<<ADSC) );  //Wait until the conversion is done
 917               	.LM84:
 918 03dc 8091 7A00 		lds r24,122
 919 03e0 86FD      		sbrc r24,6
 920 03e2 00C0      		rjmp .L34
  85:/Users/manueldeneu/Documents/projets/dev/Monu100/MicroController/MicMonu100/MicMonu100/Sensors.c ****     return ADCW;
 922               	.LM85:
 923 03e4 0091 7800 		lds r16,120
 924 03e8 1091 7900 		lds r17,120+1
 925               	.LBE30:
 926               	.LBE29:
 224:/Users/manueldeneu/Documents/projets/dev/Monu100/MicroController/MicMonu100/MicMonu100/Sensors.c ****         const int diffLow  = ( int ) ( sensors->prevMoyenne*0.65f ); // 0.65
 928               	.LM86:
 929 03ec F501      		movw r30,r10
 930 03ee 4080      		ld r4,Z
 931 03f0 5180      		ldd r5,Z+1
 932 03f2 6280      		ldd r6,Z+2
 933 03f4 7380      		ldd r7,Z+3
 225:/Users/manueldeneu/Documents/projets/dev/Monu100/MicroController/MicMonu100/MicMonu100/Sensors.c ****         const int diffHigh = ( int ) ( sensors->prevMoyenne*2.0f );
 935               	.LM87:
 936 03f6 A301      		movw r20,r6
 937 03f8 9201      		movw r18,r4
 938 03fa C301      		movw r24,r6
 939 03fc B201      		movw r22,r4
 940 03fe 0E94 0000 		call __addsf3
 941 0402 0E94 0000 		call __fixsfsi
 230:/Users/manueldeneu/Documents/projets/dev/Monu100/MicroController/MicMonu100/MicMonu100/Sensors.c ****         if ( read<diffHigh )
 943               	.LM88:
 944 0406 0617      		cp r16,r22
 945 0408 1707      		cpc r17,r23
 946 040a 04F0      		brlt .L35
 947               	.L37:
 241:/Users/manueldeneu/Documents/projets/dev/Monu100/MicroController/MicMonu100/MicMonu100/Sensors.c ****             val = BLOB_LIGHT;
 949               	.LM89:
 950 040c 6FEF      		ldi r22,lo8(-1)
 951 040e 00C0      		rjmp .L36
 952               	.L35:
 232:/Users/manueldeneu/Documents/projets/dev/Monu100/MicroController/MicMonu100/MicMonu100/Sensors.c ****             sensors->moyenne+= read;
 954               	.LM90:
 955 0410 B801      		movw r22,r16
 956 0412 8827      		clr r24
 957 0414 77FD      		sbrc r23,7
 958 0416 8095      		com r24
 959 0418 982F      		mov r25,r24
 960 041a 0E94 0000 		call __floatsisf
 961 041e 9B01      		movw r18,r22
 962 0420 AC01      		movw r20,r24
 963 0422 F601      		movw r30,r12
 964 0424 6081      		ld r22,Z
 965 0426 7181      		ldd r23,Z+1
 966 0428 8281      		ldd r24,Z+2
 967 042a 9381      		ldd r25,Z+3
 968 042c 0E94 0000 		call __addsf3
 969 0430 F601      		movw r30,r12
 970 0432 6083      		st Z,r22
 971 0434 7183      		std Z+1,r23
 972 0436 8283      		std Z+2,r24
 973 0438 9383      		std Z+3,r25
 224:/Users/manueldeneu/Documents/projets/dev/Monu100/MicroController/MicMonu100/MicMonu100/Sensors.c ****         const int diffLow  = ( int ) ( sensors->prevMoyenne*0.65f ); // 0.65
 975               	.LM91:
 976 043a 26E6      		ldi r18,lo8(102)
 977 043c 36E6      		ldi r19,lo8(102)
 978 043e 46E2      		ldi r20,lo8(38)
 979 0440 5FE3      		ldi r21,lo8(63)
 980 0442 C301      		movw r24,r6
 981 0444 B201      		movw r22,r4
 982 0446 0E94 0000 		call __mulsf3
 983 044a 0E94 0000 		call __fixsfsi
 245:/Users/manueldeneu/Documents/projets/dev/Monu100/MicroController/MicMonu100/MicMonu100/Sensors.c ****         else if ( val < diffLow )
 985               	.LM92:
 986 044e 0617      		cp r16,r22
 987 0450 1707      		cpc r17,r23
 988 0452 04F0      		brlt .L37
 251:/Users/manueldeneu/Documents/projets/dev/Monu100/MicroController/MicMonu100/MicMonu100/Sensors.c ****             val = 0;
 990               	.LM93:
 991 0454 60E0      		ldi r22,0
 992               	.L36:
 993 0456 F401      		movw r30,r8
 994 0458 EC0F      		add r30,r28
 995 045a FD1F      		adc r31,r29
 996 045c EF52      		subi r30,47
 997 045e FE4F      		sbci r31,-2
 262:/Users/manueldeneu/Documents/projets/dev/Monu100/MicroController/MicMonu100/MicMonu100/Sensors.c ****             sensors->values[i][ j ] = val;
 999               	.LM94:
 1000 0460 6083      		st Z,r22
 1002               	.LM95:
 1003 0462 F701      		movw r30,r14
 1004 0464 8081      		ld r24,Z
 1005 0466 9181      		ldd r25,Z+1
 1006 0468 0E94 0000 		call display_setFillColor
 1007 046c 432D      		mov r20,r3
 1008 046e 4195      		neg r20
 1009 0470 440F      		lsl r20
 1010 0472 465E      		subi r20,lo8(-(26))
 270:/Users/manueldeneu/Documents/projets/dev/Monu100/MicroController/MicMonu100/MicMonu100/Sensors.c ****         
 271:/Users/manueldeneu/Documents/projets/dev/Monu100/MicroController/MicMonu100/MicMonu100/Sensors.c ****         display_fillZone( sensors->display , x , y  , 2, 2 );
 1012               	.LM96:
 1013 0474 02E0      		ldi r16,lo8(2)
 1014 0476 22E0      		ldi r18,lo8(2)
 1015 0478 622D      		mov r22,r2
 1016 047a F701      		movw r30,r14
 1017 047c 8081      		ld r24,Z
 1018 047e 9181      		ldd r25,Z+1
 1019 0480 0E94 0000 		call display_fillZone
 1020 0484 3394      		inc r3
 1021 0486 2F96      		adiw r28,15
 1022               	.LBE28:
 219:/Users/manueldeneu/Documents/projets/dev/Monu100/MicroController/MicMonu100/MicMonu100/Sensors.c ****     for (int i = 0; i < MIC_SENSOR_COUNT ; i++)
 1024               	.LM97:
 1025 0488 FEE0      		ldi r31,lo8(14)
 1026 048a 3F12      		cpse r3,r31
 1027 048c 00C0      		rjmp .L39
 1028               	/* epilogue start */
 1029               	.LBE27:
 272:/Users/manueldeneu/Documents/projets/dev/Monu100/MicroController/MicMonu100/MicMonu100/Sensors.c ****     }
 273:/Users/manueldeneu/Documents/projets/dev/Monu100/MicroController/MicMonu100/MicMonu100/Sensors.c **** 
 274:/Users/manueldeneu/Documents/projets/dev/Monu100/MicroController/MicMonu100/MicMonu100/Sensors.c **** 
 275:/Users/manueldeneu/Documents/projets/dev/Monu100/MicroController/MicMonu100/MicMonu100/Sensors.c **** }
 1031               	.LM98:
 1032 048e DF91      		pop r29
 1033 0490 CF91      		pop r28
 1034 0492 1F91      		pop r17
 1035 0494 0F91      		pop r16
 1036 0496 FF90      		pop r15
 1037 0498 EF90      		pop r14
 1038 049a DF90      		pop r13
 1039 049c CF90      		pop r12
 1040 049e BF90      		pop r11
 1041 04a0 AF90      		pop r10
 1042 04a2 9F90      		pop r9
 1043 04a4 8F90      		pop r8
 1044 04a6 7F90      		pop r7
 1045 04a8 6F90      		pop r6
 1046 04aa 5F90      		pop r5
 1047 04ac 4F90      		pop r4
 1048 04ae 3F90      		pop r3
 1049 04b0 2F90      		pop r2
 1050 04b2 0895      		ret
 1058               	.Lscope6:
 1061               	.global	readAll
 1063               	readAll:
 276:/Users/manueldeneu/Documents/projets/dev/Monu100/MicroController/MicMonu100/MicMonu100/Sensors.c **** 
 277:/Users/manueldeneu/Documents/projets/dev/Monu100/MicroController/MicMonu100/MicMonu100/Sensors.c **** 
 278:/Users/manueldeneu/Documents/projets/dev/Monu100/MicroController/MicMonu100/MicMonu100/Sensors.c **** uint8_t readAll( Sensors *sensors)
 279:/Users/manueldeneu/Documents/projets/dev/Monu100/MicroController/MicMonu100/MicMonu100/Sensors.c **** {
 1065               	.LM99:
 1066               	.LFBB7:
 1067 04b4 CF92      		push r12
 1068 04b6 DF92      		push r13
 1069 04b8 EF92      		push r14
 1070 04ba FF92      		push r15
 1071 04bc 0F93      		push r16
 1072 04be 1F93      		push r17
 1073 04c0 CF93      		push r28
 1074 04c2 DF93      		push r29
 1075               	/* prologue: function */
 1076               	/* frame size = 0 */
 1077               	/* stack size = 8 */
 1078               	.L__stack_usage = 8
 1079 04c4 EC01      		movw r28,r24
 280:/Users/manueldeneu/Documents/projets/dev/Monu100/MicroController/MicMonu100/MicMonu100/Sensors.c ****     sensors->currentRow = 0;
 1081               	.LM100:
 1082 04c6 7C01      		movw r14,r24
 1083 04c8 80E3      		ldi r24,48
 1084 04ca E81A      		sub r14,r24
 1085 04cc 8EEF      		ldi r24,-2
 1086 04ce F80A      		sbc r15,r24
 1087 04d0 F701      		movw r30,r14
 1088 04d2 1082      		st Z,__zero_reg__
 281:/Users/manueldeneu/Documents/projets/dev/Monu100/MicroController/MicMonu100/MicMonu100/Sensors.c ****     
 282:/Users/manueldeneu/Documents/projets/dev/Monu100/MicroController/MicMonu100/MicMonu100/Sensors.c ****     sensors->moyenne = 0;
 1090               	.LM101:
 1091 04d4 8E01      		movw r16,r28
 1092 04d6 0A53      		subi r16,58
 1093 04d8 1E4F      		sbci r17,-2
 1094 04da F801      		movw r30,r16
 1095 04dc 1082      		st Z,__zero_reg__
 1096 04de 1182      		std Z+1,__zero_reg__
 1097 04e0 1282      		std Z+2,__zero_reg__
 1098 04e2 1382      		std Z+3,__zero_reg__
 1099 04e4 8FE0      		ldi r24,lo8(15)
 1100 04e6 C82E      		mov r12,r24
 1101 04e8 D12C      		mov r13,__zero_reg__
 1102               	.L42:
 1103               	.LBB31:
 283:/Users/manueldeneu/Documents/projets/dev/Monu100/MicroController/MicMonu100/MicMonu100/Sensors.c **** 
 284:/Users/manueldeneu/Documents/projets/dev/Monu100/MicroController/MicMonu100/MicMonu100/Sensors.c ****     for ( int i=0; i< MIC_SENSOR_COUNT;i++ )
 285:/Users/manueldeneu/Documents/projets/dev/Monu100/MicroController/MicMonu100/MicMonu100/Sensors.c ****     {
 286:/Users/manueldeneu/Documents/projets/dev/Monu100/MicroController/MicMonu100/MicMonu100/Sensors.c ****         readRow( sensors, NULL );
 1105               	.LM102:
 1106 04ea 60E0      		ldi r22,0
 1107 04ec 70E0      		ldi r23,0
 1108 04ee CE01      		movw r24,r28
 1109 04f0 0E94 0000 		call readRow
 287:/Users/manueldeneu/Documents/projets/dev/Monu100/MicroController/MicMonu100/MicMonu100/Sensors.c ****         sensors->currentRow++;
 1111               	.LM103:
 1112 04f4 F701      		movw r30,r14
 1113 04f6 8081      		ld r24,Z
 1114 04f8 8F5F      		subi r24,lo8(-(1))
 1115 04fa 8083      		st Z,r24
 1116 04fc F1E0      		ldi r31,1
 1117 04fe CF1A      		sub r12,r31
 1118 0500 D108      		sbc r13,__zero_reg__
 284:/Users/manueldeneu/Documents/projets/dev/Monu100/MicroController/MicMonu100/MicMonu100/Sensors.c ****     for ( int i=0; i< MIC_SENSOR_COUNT;i++ )
 1120               	.LM104:
 1121 0502 C114      		cp r12,__zero_reg__
 1122 0504 D104      		cpc r13,__zero_reg__
 1123 0506 01F4      		brne .L42
 1124               	.LBE31:
 288:/Users/manueldeneu/Documents/projets/dev/Monu100/MicroController/MicMonu100/MicMonu100/Sensors.c ****     }
 289:/Users/manueldeneu/Documents/projets/dev/Monu100/MicroController/MicMonu100/MicMonu100/Sensors.c ****     
 290:/Users/manueldeneu/Documents/projets/dev/Monu100/MicroController/MicMonu100/MicMonu100/Sensors.c ****     sensors->moyenne /= MIC_SENSOR_COUNT * SENSOR_COUNT;
 1126               	.LM105:
 1127 0508 20E0      		ldi r18,0
 1128 050a 30E0      		ldi r19,0
 1129 050c 41E6      		ldi r20,lo8(97)
 1130 050e 53E4      		ldi r21,lo8(67)
 1131 0510 F801      		movw r30,r16
 1132 0512 6081      		ld r22,Z
 1133 0514 7181      		ldd r23,Z+1
 1134 0516 8281      		ldd r24,Z+2
 1135 0518 9381      		ldd r25,Z+3
 1136 051a 0E94 0000 		call __divsf3
 1137 051e F801      		movw r30,r16
 1138 0520 6083      		st Z,r22
 1139 0522 7183      		std Z+1,r23
 1140 0524 8283      		std Z+2,r24
 1141 0526 9383      		std Z+3,r25
 291:/Users/manueldeneu/Documents/projets/dev/Monu100/MicroController/MicMonu100/MicMonu100/Sensors.c ****     
 292:/Users/manueldeneu/Documents/projets/dev/Monu100/MicroController/MicMonu100/MicMonu100/Sensors.c ****     sensors->prevMoyenne = sensors->moyenne;
 1143               	.LM106:
 1144 0528 C653      		subi r28,54
 1145 052a DE4F      		sbci r29,-2
 1146 052c 6883      		st Y,r22
 1147 052e 7983      		std Y+1,r23
 1148 0530 8A83      		std Y+2,r24
 1149 0532 9B83      		std Y+3,r25
 293:/Users/manueldeneu/Documents/projets/dev/Monu100/MicroController/MicMonu100/MicMonu100/Sensors.c ****     
 294:/Users/manueldeneu/Documents/projets/dev/Monu100/MicroController/MicMonu100/MicMonu100/Sensors.c ****     return 1;//analyze( sensors );
 295:/Users/manueldeneu/Documents/projets/dev/Monu100/MicroController/MicMonu100/MicMonu100/Sensors.c ****     
 296:/Users/manueldeneu/Documents/projets/dev/Monu100/MicroController/MicMonu100/MicMonu100/Sensors.c **** }
 1151               	.LM107:
 1152 0534 81E0      		ldi r24,lo8(1)
 1153               	/* epilogue start */
 1154 0536 DF91      		pop r29
 1155 0538 CF91      		pop r28
 1156 053a 1F91      		pop r17
 1157 053c 0F91      		pop r16
 1158 053e FF90      		pop r15
 1159 0540 EF90      		pop r14
 1160 0542 DF90      		pop r13
 1161 0544 CF90      		pop r12
 1162 0546 0895      		ret
 1164               	.Lscope7:
 1167               	.global	sensors_drawInter
 1169               	sensors_drawInter:
 297:/Users/manueldeneu/Documents/projets/dev/Monu100/MicroController/MicMonu100/MicMonu100/Sensors.c **** /* **** **** **** **** **** **** **** **** **** **** **** **** **** **** **** **** **** */
 298:/Users/manueldeneu/Documents/projets/dev/Monu100/MicroController/MicMonu100/MicMonu100/Sensors.c **** 
 299:/Users/manueldeneu/Documents/projets/dev/Monu100/MicroController/MicMonu100/MicMonu100/Sensors.c **** void sensors_drawInter( Sensors *sensors)
 300:/Users/manueldeneu/Documents/projets/dev/Monu100/MicroController/MicMonu100/MicMonu100/Sensors.c **** {
 1171               	.LM108:
 1172               	.LFBB8:
 1173 0548 8F92      		push r8
 1174 054a 9F92      		push r9
 1175 054c AF92      		push r10
 1176 054e BF92      		push r11
 1177 0550 CF92      		push r12
 1178 0552 DF92      		push r13
 1179 0554 EF92      		push r14
 1180 0556 FF92      		push r15
 1181 0558 0F93      		push r16
 1182 055a 1F93      		push r17
 1183 055c CF93      		push r28
 1184 055e DF93      		push r29
 1185               	/* prologue: function */
 1186               	/* frame size = 0 */
 1187               	/* stack size = 12 */
 1188               	.L__stack_usage = 12
 1189 0560 7C01      		movw r14,r24
 1190               	.LBB32:
 1191               	.LBB33:
 1192               	.LBB34:
 301:/Users/manueldeneu/Documents/projets/dev/Monu100/MicroController/MicMonu100/MicMonu100/Sensors.c ****     for (int i = 0; i<MIC_SENSOR_COUNT ; i++)
 302:/Users/manueldeneu/Documents/projets/dev/Monu100/MicroController/MicMonu100/MicMonu100/Sensors.c ****         for (int j = 0 ; j<SENSOR_COUNT ; j++)
 303:/Users/manueldeneu/Documents/projets/dev/Monu100/MicroController/MicMonu100/MicMonu100/Sensors.c ****         {
 304:/Users/manueldeneu/Documents/projets/dev/Monu100/MicroController/MicMonu100/MicMonu100/Sensors.c ****             const uint8_t x = j*2;
 305:/Users/manueldeneu/Documents/projets/dev/Monu100/MicroController/MicMonu100/MicMonu100/Sensors.c ****             const uint8_t y = (14-i)*2;
 306:/Users/manueldeneu/Documents/projets/dev/Monu100/MicroController/MicMonu100/MicMonu100/Sensors.c ****             
 307:/Users/manueldeneu/Documents/projets/dev/Monu100/MicroController/MicMonu100/MicMonu100/Sensors.c ****             const uint8_t val =sensors->values[i][j];
 308:/Users/manueldeneu/Documents/projets/dev/Monu100/MicroController/MicMonu100/MicMonu100/Sensors.c ****             
 309:/Users/manueldeneu/Documents/projets/dev/Monu100/MicroController/MicMonu100/MicMonu100/Sensors.c **** 
 310:/Users/manueldeneu/Documents/projets/dev/Monu100/MicroController/MicMonu100/MicMonu100/Sensors.c ****             
 311:/Users/manueldeneu/Documents/projets/dev/Monu100/MicroController/MicMonu100/MicMonu100/Sensors.c ****             if(  val != sensors->display->buff_A[y][x] )
 1194               	.LM109:
 1195 0562 1CE1      		ldi r17,lo8(28)
 1196 0564 6C01      		movw r12,r24
 1197 0566 82E3      		ldi r24,50
 1198 0568 C81A      		sub r12,r24
 1199 056a 8EEF      		ldi r24,-2
 1200 056c D80A      		sbc r13,r24
 1201 056e 3EE1      		ldi r19,lo8(30)
 1202 0570 932E      		mov r9,r19
 1203               	.L44:
 1205               	.LM110:
 1206 0572 C0E0      		ldi r28,0
 1207 0574 D0E0      		ldi r29,0
 1208 0576 919E      		mul r9,r17
 1209 0578 5001      		movw r10,r0
 1210 057a 1124      		clr __zero_reg__
 1211               	.L48:
 1212 057c 8C2E      		mov r8,r28
 1213 057e 880C      		lsl r8
 1214 0580 F701      		movw r30,r14
 1215 0582 EC0F      		add r30,r28
 1216 0584 FD1F      		adc r31,r29
 1217 0586 EF52      		subi r30,47
 1218 0588 FE4F      		sbci r31,-2
 307:/Users/manueldeneu/Documents/projets/dev/Monu100/MicroController/MicMonu100/MicMonu100/Sensors.c ****             const uint8_t val =sensors->values[i][j];
 1220               	.LM111:
 1221 058a 6081      		ld r22,Z
 1223               	.LM112:
 1224 058c F601      		movw r30,r12
 1225 058e 8081      		ld r24,Z
 1226 0590 9181      		ldd r25,Z+1
 1227 0592 FE01      		movw r30,r28
 1228 0594 EE0F      		lsl r30
 1229 0596 FF1F      		rol r31
 1230 0598 EA0D      		add r30,r10
 1231 059a FB1D      		adc r31,r11
 1232 059c E80F      		add r30,r24
 1233 059e F91F      		adc r31,r25
 1234 05a0 3081      		ld r19,Z
 1235 05a2 6317      		cp r22,r19
 1236 05a4 01F0      		breq .L45
 312:/Users/manueldeneu/Documents/projets/dev/Monu100/MicroController/MicMonu100/MicMonu100/Sensors.c ****             {
 313:/Users/manueldeneu/Documents/projets/dev/Monu100/MicroController/MicMonu100/MicMonu100/Sensors.c ****                 display_setFillColor( sensors->display, val );
 1238               	.LM113:
 1239 05a6 0E94 0000 		call display_setFillColor
 314:/Users/manueldeneu/Documents/projets/dev/Monu100/MicroController/MicMonu100/MicMonu100/Sensors.c ****                 
 315:/Users/manueldeneu/Documents/projets/dev/Monu100/MicroController/MicMonu100/MicMonu100/Sensors.c ****                 display_fillZone( sensors->display , x , y  , 2, 2 );
 1241               	.LM114:
 1242 05aa 02E0      		ldi r16,lo8(2)
 1243 05ac 22E0      		ldi r18,lo8(2)
 1244 05ae 412F      		mov r20,r17
 1245 05b0 682D      		mov r22,r8
 1246 05b2 F601      		movw r30,r12
 1247 05b4 8081      		ld r24,Z
 1248 05b6 9181      		ldd r25,Z+1
 1249 05b8 0E94 0000 		call display_fillZone
 1250               	.L45:
 1251               	.LBE34:
 302:/Users/manueldeneu/Documents/projets/dev/Monu100/MicroController/MicMonu100/MicMonu100/Sensors.c ****         for (int j = 0 ; j<SENSOR_COUNT ; j++)
 1253               	.LM115:
 1254 05bc 2196      		adiw r28,1
 1255 05be CF30      		cpi r28,15
 1256 05c0 D105      		cpc r29,__zero_reg__
 1257 05c2 01F4      		brne .L48
 1258 05c4 1250      		subi r17,lo8(-(-2))
 1259 05c6 FFE0      		ldi r31,15
 1260 05c8 EF0E      		add r14,r31
 1261 05ca F11C      		adc r15,__zero_reg__
 1262               	.LBE33:
 301:/Users/manueldeneu/Documents/projets/dev/Monu100/MicroController/MicMonu100/MicMonu100/Sensors.c ****     for (int i = 0; i<MIC_SENSOR_COUNT ; i++)
 1264               	.LM116:
 1265 05cc 1E3F      		cpi r17,lo8(-2)
 1266 05ce 01F4      		brne .L44
 1267               	/* epilogue start */
 1268               	.LBE32:
 316:/Users/manueldeneu/Documents/projets/dev/Monu100/MicroController/MicMonu100/MicMonu100/Sensors.c ****             }
 317:/Users/manueldeneu/Documents/projets/dev/Monu100/MicroController/MicMonu100/MicMonu100/Sensors.c ****         }
 318:/Users/manueldeneu/Documents/projets/dev/Monu100/MicroController/MicMonu100/MicMonu100/Sensors.c **** }
 1270               	.LM117:
 1271 05d0 DF91      		pop r29
 1272 05d2 CF91      		pop r28
 1273 05d4 1F91      		pop r17
 1274 05d6 0F91      		pop r16
 1275 05d8 FF90      		pop r15
 1276 05da EF90      		pop r14
 1277 05dc DF90      		pop r13
 1278 05de CF90      		pop r12
 1279 05e0 BF90      		pop r11
 1280 05e2 AF90      		pop r10
 1281 05e4 9F90      		pop r9
 1282 05e6 8F90      		pop r8
 1283 05e8 0895      		ret
 1291               	.Lscope8:
 1294               	.global	analyze
 1296               	analyze:
 319:/Users/manueldeneu/Documents/projets/dev/Monu100/MicroController/MicMonu100/MicMonu100/Sensors.c **** 
 320:/Users/manueldeneu/Documents/projets/dev/Monu100/MicroController/MicMonu100/MicMonu100/Sensors.c **** /* **** **** **** **** **** **** **** **** **** **** **** **** **** **** **** **** **** */
 321:/Users/manueldeneu/Documents/projets/dev/Monu100/MicroController/MicMonu100/MicMonu100/Sensors.c **** 
 322:/Users/manueldeneu/Documents/projets/dev/Monu100/MicroController/MicMonu100/MicMonu100/Sensors.c **** uint8_t analyze(Sensors *sensors)
 323:/Users/manueldeneu/Documents/projets/dev/Monu100/MicroController/MicMonu100/MicMonu100/Sensors.c **** {
 1298               	.LM118:
 1299               	.LFBB9:
 1300 05ea CF93      		push r28
 1301 05ec DF93      		push r29
 1302               	/* prologue: function */
 1303               	/* frame size = 0 */
 1304               	/* stack size = 2 */
 1305               	.L__stack_usage = 2
 1306 05ee FC01      		movw r30,r24
 1307 05f0 3F96      		adiw r30,15
 1308               	.LBB35:
 324:/Users/manueldeneu/Documents/projets/dev/Monu100/MicroController/MicMonu100/MicMonu100/Sensors.c ****     uint8_t ret = 0;
 325:/Users/manueldeneu/Documents/projets/dev/Monu100/MicroController/MicMonu100/MicMonu100/Sensors.c ****     for (int x = 1; x<MIC_SENSOR_COUNT-1 ; x++)
 1310               	.LM119:
 1311 05f2 61E0      		ldi r22,lo8(1)
 1312 05f4 70E0      		ldi r23,0
 1313               	.LBE35:
 324:/Users/manueldeneu/Documents/projets/dev/Monu100/MicroController/MicMonu100/MicMonu100/Sensors.c ****     uint8_t ret = 0;
 1315               	.LM120:
 1316 05f6 80E0      		ldi r24,0
 1317               	.L50:
 323:/Users/manueldeneu/Documents/projets/dev/Monu100/MicroController/MicMonu100/MicMonu100/Sensors.c **** {
 1319               	.LM121:
 1320 05f8 40E0      		ldi r20,0
 1321 05fa 50E0      		ldi r21,0
 1322               	.L55:
 1323 05fc 9F01      		movw r18,r30
 1324 05fe 240F      		add r18,r20
 1325 0600 351F      		adc r19,r21
 1326 0602 E901      		movw r28,r18
 1327 0604 CF52      		subi r28,47
 1328 0606 DE4F      		sbci r29,-2
 1329 0608 D901      		movw r26,r18
 1330 060a AE53      		subi r26,62
 1331 060c BE4F      		sbci r27,-2
 1332               	.LBB38:
 1333               	.LBB36:
 1334               	.LBB37:
 326:/Users/manueldeneu/Documents/projets/dev/Monu100/MicroController/MicMonu100/MicMonu100/Sensors.c ****     {
 327:/Users/manueldeneu/Documents/projets/dev/Monu100/MicroController/MicMonu100/MicMonu100/Sensors.c ****         for (int y = 1 ; y<SENSOR_COUNT -1 ; y++)
 328:/Users/manueldeneu/Documents/projets/dev/Monu100/MicroController/MicMonu100/MicMonu100/Sensors.c ****         {
 329:/Users/manueldeneu/Documents/projets/dev/Monu100/MicroController/MicMonu100/MicMonu100/Sensors.c ****             /*
 330:/Users/manueldeneu/Documents/projets/dev/Monu100/MicroController/MicMonu100/MicMonu100/Sensors.c ****               a b c
 331:/Users/manueldeneu/Documents/projets/dev/Monu100/MicroController/MicMonu100/MicMonu100/Sensors.c ****               d E f
 332:/Users/manueldeneu/Documents/projets/dev/Monu100/MicroController/MicMonu100/MicMonu100/Sensors.c ****               g h i
 333:/Users/manueldeneu/Documents/projets/dev/Monu100/MicroController/MicMonu100/MicMonu100/Sensors.c ****              */
 334:/Users/manueldeneu/Documents/projets/dev/Monu100/MicroController/MicMonu100/MicMonu100/Sensors.c ****             const uint8_t a = sensors->values[x-1][y-1];
 335:/Users/manueldeneu/Documents/projets/dev/Monu100/MicroController/MicMonu100/MicMonu100/Sensors.c ****             const uint8_t b = sensors->values[x  ][y-1];
 336:/Users/manueldeneu/Documents/projets/dev/Monu100/MicroController/MicMonu100/MicMonu100/Sensors.c ****             const uint8_t c = sensors->values[x+1][y-1];
 337:/Users/manueldeneu/Documents/projets/dev/Monu100/MicroController/MicMonu100/MicMonu100/Sensors.c ****             
 338:/Users/manueldeneu/Documents/projets/dev/Monu100/MicroController/MicMonu100/MicMonu100/Sensors.c ****             const uint8_t d = sensors->values[x-1][y];
 339:/Users/manueldeneu/Documents/projets/dev/Monu100/MicroController/MicMonu100/MicMonu100/Sensors.c **** 
 340:/Users/manueldeneu/Documents/projets/dev/Monu100/MicroController/MicMonu100/MicMonu100/Sensors.c ****             const uint8_t f = sensors->values[x+1][y];
 341:/Users/manueldeneu/Documents/projets/dev/Monu100/MicroController/MicMonu100/MicMonu100/Sensors.c ****             
 342:/Users/manueldeneu/Documents/projets/dev/Monu100/MicroController/MicMonu100/MicMonu100/Sensors.c ****             const uint8_t g = sensors->values[x-1][y+1];
 343:/Users/manueldeneu/Documents/projets/dev/Monu100/MicroController/MicMonu100/MicMonu100/Sensors.c ****             const uint8_t h = sensors->values[x  ][y+1];
 344:/Users/manueldeneu/Documents/projets/dev/Monu100/MicroController/MicMonu100/MicMonu100/Sensors.c ****             const uint8_t i = sensors->values[x+1][y+1];
 345:/Users/manueldeneu/Documents/projets/dev/Monu100/MicroController/MicMonu100/MicMonu100/Sensors.c ****             
 346:/Users/manueldeneu/Documents/projets/dev/Monu100/MicroController/MicMonu100/MicMonu100/Sensors.c ****             const uint8_t sum =a+b+c+d+f+g+h+i;
 1336               	.LM122:
 1337 060e 9881      		ld r25,Y
 1338 0610 AC91      		ld r26,X
 1339 0612 9A0F      		add r25,r26
 1340 0614 D901      		movw r26,r18
 1341 0616 A052      		subi r26,32
 1342 0618 BE4F      		sbci r27,-2
 1343 061a AC91      		ld r26,X
 1344 061c 9A0F      		add r25,r26
 1345 061e D901      		movw r26,r18
 1346 0620 AD53      		subi r26,61
 1347 0622 BE4F      		sbci r27,-2
 1348 0624 AC91      		ld r26,X
 1349 0626 9A0F      		add r25,r26
 1350 0628 D901      		movw r26,r18
 1351 062a AF51      		subi r26,31
 1352 062c BE4F      		sbci r27,-2
 1353 062e AC91      		ld r26,X
 1354 0630 9A0F      		add r25,r26
 1355 0632 D901      		movw r26,r18
 1356 0634 AC53      		subi r26,60
 1357 0636 BE4F      		sbci r27,-2
 1358 0638 AC91      		ld r26,X
 1359 063a 9A0F      		add r25,r26
 1360 063c D901      		movw r26,r18
 1361 063e AD52      		subi r26,45
 1362 0640 BE4F      		sbci r27,-2
 1363 0642 AC91      		ld r26,X
 1364 0644 9A0F      		add r25,r26
 1365 0646 D901      		movw r26,r18
 1366 0648 AE51      		subi r26,30
 1367 064a BE4F      		sbci r27,-2
 1368 064c AC91      		ld r26,X
 1369 064e 9A0F      		add r25,r26
 347:/Users/manueldeneu/Documents/projets/dev/Monu100/MicroController/MicMonu100/MicMonu100/Sensors.c ****             
 348:/Users/manueldeneu/Documents/projets/dev/Monu100/MicroController/MicMonu100/MicMonu100/Sensors.c ****             if( sum == 0 )
 1371               	.LM123:
 1372 0650 01F4      		brne .L51
 1373 0652 D901      		movw r26,r18
 1374 0654 AE52      		subi r26,46
 1375 0656 BE4F      		sbci r27,-2
 349:/Users/manueldeneu/Documents/projets/dev/Monu100/MicroController/MicMonu100/MicMonu100/Sensors.c ****                 sensors->values[x][y] =0 ;
 1377               	.LM124:
 1378 0658 1C92      		st X,__zero_reg__
 1379 065a 00C0      		rjmp .L52
 1380               	.L51:
 350:/Users/manueldeneu/Documents/projets/dev/Monu100/MicroController/MicMonu100/MicMonu100/Sensors.c ****             else
 351:/Users/manueldeneu/Documents/projets/dev/Monu100/MicroController/MicMonu100/MicMonu100/Sensors.c ****                 ret++;
 1382               	.LM125:
 1383 065c 8F5F      		subi r24,lo8(-(1))
 1384               	.L52:
 1385 065e 4F5F      		subi r20,-1
 1386 0660 5F4F      		sbci r21,-1
 1387               	.LBE37:
 327:/Users/manueldeneu/Documents/projets/dev/Monu100/MicroController/MicMonu100/MicMonu100/Sensors.c ****         for (int y = 1 ; y<SENSOR_COUNT -1 ; y++)
 1389               	.LM126:
 1390 0662 4D30      		cpi r20,13
 1391 0664 5105      		cpc r21,__zero_reg__
 1392 0666 01F4      		brne .L55
 1393 0668 6F5F      		subi r22,-1
 1394 066a 7F4F      		sbci r23,-1
 1395 066c 3F96      		adiw r30,15
 1396               	.LBE36:
 325:/Users/manueldeneu/Documents/projets/dev/Monu100/MicroController/MicMonu100/MicMonu100/Sensors.c ****     for (int x = 1; x<MIC_SENSOR_COUNT-1 ; x++)
 1398               	.LM127:
 1399 066e 6E30      		cpi r22,14
 1400 0670 7105      		cpc r23,__zero_reg__
 1401 0672 01F4      		brne .L50
 1402               	/* epilogue start */
 1403               	.LBE38:
 352:/Users/manueldeneu/Documents/projets/dev/Monu100/MicroController/MicMonu100/MicMonu100/Sensors.c ****             
 353:/Users/manueldeneu/Documents/projets/dev/Monu100/MicroController/MicMonu100/MicMonu100/Sensors.c ****         }
 354:/Users/manueldeneu/Documents/projets/dev/Monu100/MicroController/MicMonu100/MicMonu100/Sensors.c ****     }
 355:/Users/manueldeneu/Documents/projets/dev/Monu100/MicroController/MicMonu100/MicMonu100/Sensors.c ****     
 356:/Users/manueldeneu/Documents/projets/dev/Monu100/MicroController/MicMonu100/MicMonu100/Sensors.c ****     return ret;
 357:/Users/manueldeneu/Documents/projets/dev/Monu100/MicroController/MicMonu100/MicMonu100/Sensors.c **** }
 1405               	.LM128:
 1406 0674 DF91      		pop r29
 1407 0676 CF91      		pop r28
 1408 0678 0895      		ret
 1419               	.Lscope9:
 1423               	.global	log_blob_hook
 1425               	log_blob_hook:
 358:/Users/manueldeneu/Documents/projets/dev/Monu100/MicroController/MicMonu100/MicMonu100/Sensors.c **** 
 359:/Users/manueldeneu/Documents/projets/dev/Monu100/MicroController/MicMonu100/MicMonu100/Sensors.c **** /* **** **** **** **** **** **** **** **** **** **** **** **** **** **** **** **** **** */
 360:/Users/manueldeneu/Documents/projets/dev/Monu100/MicroController/MicMonu100/MicMonu100/Sensors.c **** /* **** **** **** **** **** **** **** **** **** **** **** **** **** **** **** **** **** */
 361:/Users/manueldeneu/Documents/projets/dev/Monu100/MicroController/MicMonu100/MicMonu100/Sensors.c **** 
 362:/Users/manueldeneu/Documents/projets/dev/Monu100/MicroController/MicMonu100/MicMonu100/Sensors.c **** void log_blob_hook(void* user_struct, struct blob* b)
 363:/Users/manueldeneu/Documents/projets/dev/Monu100/MicroController/MicMonu100/MicMonu100/Sensors.c **** {
 1427               	.LM129:
 1428               	.LFBB10:
 1429 067a EF92      		push r14
 1430 067c FF92      		push r15
 1431 067e 0F93      		push r16
 1432 0680 1F93      		push r17
 1433 0682 CF93      		push r28
 1434 0684 DF93      		push r29
 1435               	/* prologue: function */
 1436               	/* frame size = 0 */
 1437               	/* stack size = 6 */
 1438               	.L__stack_usage = 6
 1439 0686 EB01      		movw r28,r22
 364:/Users/manueldeneu/Documents/projets/dev/Monu100/MicroController/MicMonu100/MicMonu100/Sensors.c **** 
 365:/Users/manueldeneu/Documents/projets/dev/Monu100/MicroController/MicMonu100/MicMonu100/Sensors.c ****     
 366:/Users/manueldeneu/Documents/projets/dev/Monu100/MicroController/MicMonu100/MicMonu100/Sensors.c ****     const uint8_t x = b->center_y*2;
 367:/Users/manueldeneu/Documents/projets/dev/Monu100/MicroController/MicMonu100/MicMonu100/Sensors.c ****     const uint8_t y = (14-b->center_x)*2;
 368:/Users/manueldeneu/Documents/projets/dev/Monu100/MicroController/MicMonu100/MicMonu100/Sensors.c ****     
 369:/Users/manueldeneu/Documents/projets/dev/Monu100/MicroController/MicMonu100/MicMonu100/Sensors.c ****     /*
 370:/Users/manueldeneu/Documents/projets/dev/Monu100/MicroController/MicMonu100/MicMonu100/Sensors.c ****     if ( ( x <-BLOB_MARGIN ) || ( y <-BLOB_MARGIN ))
 371:/Users/manueldeneu/Documents/projets/dev/Monu100/MicroController/MicMonu100/MicMonu100/Sensors.c ****         return;
 372:/Users/manueldeneu/Documents/projets/dev/Monu100/MicroController/MicMonu100/MicMonu100/Sensors.c ****     
 373:/Users/manueldeneu/Documents/projets/dev/Monu100/MicroController/MicMonu100/MicMonu100/Sensors.c ****     if ( (x >(30+BLOB_MARGIN)) || (y>(30+BLOB_MARGIN) ) )
 374:/Users/manueldeneu/Documents/projets/dev/Monu100/MicroController/MicMonu100/MicMonu100/Sensors.c ****         return;
 375:/Users/manueldeneu/Documents/projets/dev/Monu100/MicroController/MicMonu100/MicMonu100/Sensors.c ****     
 376:/Users/manueldeneu/Documents/projets/dev/Monu100/MicroController/MicMonu100/MicMonu100/Sensors.c **** 
 377:/Users/manueldeneu/Documents/projets/dev/Monu100/MicroController/MicMonu100/MicMonu100/Sensors.c **** 
 378:/Users/manueldeneu/Documents/projets/dev/Monu100/MicroController/MicMonu100/MicMonu100/Sensors.c ****     if (( b->size < MIN_BLOB_SIZE ) || ( b->size > MAX_BLOB_SIZE ))
 379:/Users/manueldeneu/Documents/projets/dev/Monu100/MicroController/MicMonu100/MicMonu100/Sensors.c ****         return;
 380:/Users/manueldeneu/Documents/projets/dev/Monu100/MicroController/MicMonu100/MicMonu100/Sensors.c ****     
 381:/Users/manueldeneu/Documents/projets/dev/Monu100/MicroController/MicMonu100/MicMonu100/Sensors.c ****      */
 382:/Users/manueldeneu/Documents/projets/dev/Monu100/MicroController/MicMonu100/MicMonu100/Sensors.c **** 
 383:/Users/manueldeneu/Documents/projets/dev/Monu100/MicroController/MicMonu100/MicMonu100/Sensors.c **** 
 384:/Users/manueldeneu/Documents/projets/dev/Monu100/MicroController/MicMonu100/MicMonu100/Sensors.c ****     const Sensors* sensors = ( const Sensors* ) user_struct;
 385:/Users/manueldeneu/Documents/projets/dev/Monu100/MicroController/MicMonu100/MicMonu100/Sensors.c **** 
 386:/Users/manueldeneu/Documents/projets/dev/Monu100/MicroController/MicMonu100/MicMonu100/Sensors.c **** 
 387:/Users/manueldeneu/Documents/projets/dev/Monu100/MicroController/MicMonu100/MicMonu100/Sensors.c ****     display_clear(sensors->display);
 1441               	.LM130:
 1442 0688 8253      		subi r24,50
 1443 068a 9E4F      		sbci r25,-2
 1444 068c 7C01      		movw r14,r24
 1445 068e FC01      		movw r30,r24
 1446 0690 8081      		ld r24,Z
 1447 0692 9181      		ldd r25,Z+1
 1448 0694 0E94 0000 		call display_clear
 388:/Users/manueldeneu/Documents/projets/dev/Monu100/MicroController/MicMonu100/MicMonu100/Sensors.c ****     display_setFillColor( sensors->display, 255 );
 1450               	.LM131:
 1451 0698 6FEF      		ldi r22,lo8(-1)
 1452 069a F701      		movw r30,r14
 1453 069c 8081      		ld r24,Z
 1454 069e 9181      		ldd r25,Z+1
 1455 06a0 0E94 0000 		call display_setFillColor
 389:/Users/manueldeneu/Documents/projets/dev/Monu100/MicroController/MicMonu100/MicMonu100/Sensors.c **** 
 390:/Users/manueldeneu/Documents/projets/dev/Monu100/MicroController/MicMonu100/MicMonu100/Sensors.c **** 
 391:/Users/manueldeneu/Documents/projets/dev/Monu100/MicroController/MicMonu100/MicMonu100/Sensors.c ****     if ( b->color == BLOB_SHADOW )
 1457               	.LM132:
 1458 06a4 8A81      		ldd r24,Y+2
 1459 06a6 9B81      		ldd r25,Y+3
 1460 06a8 8F3F      		cpi r24,-1
 1461 06aa 9105      		cpc r25,__zero_reg__
 1462 06ac 01F4      		brne .L56
 1463               	.LBB39:
 392:/Users/manueldeneu/Documents/projets/dev/Monu100/MicroController/MicMonu100/MicMonu100/Sensors.c ****     {
 393:/Users/manueldeneu/Documents/projets/dev/Monu100/MicroController/MicMonu100/MicMonu100/Sensors.c ****         const uint8_t x1 = b->bb_x1*2;
 394:/Users/manueldeneu/Documents/projets/dev/Monu100/MicroController/MicMonu100/MicMonu100/Sensors.c ****         const uint8_t y1 = (14-b->bb_y1)*2;
 395:/Users/manueldeneu/Documents/projets/dev/Monu100/MicroController/MicMonu100/MicMonu100/Sensors.c ****         
 396:/Users/manueldeneu/Documents/projets/dev/Monu100/MicroController/MicMonu100/MicMonu100/Sensors.c ****         const uint8_t x2 = b->bb_x2*2;
 397:/Users/manueldeneu/Documents/projets/dev/Monu100/MicroController/MicMonu100/MicMonu100/Sensors.c ****         const uint8_t y2 = (14-b->bb_y2)*2;
 1465               	.LM133:
 1466 06ae 4EE0      		ldi r20,lo8(14)
 1467 06b0 50E0      		ldi r21,0
 1468 06b2 88A1      		ldd r24,Y+32
 1469 06b4 99A1      		ldd r25,Y+33
 1470 06b6 8A01      		movw r16,r20
 1471 06b8 081B      		sub r16,r24
 1472 06ba 190B      		sbc r17,r25
 1473 06bc 000F      		lsl r16
 396:/Users/manueldeneu/Documents/projets/dev/Monu100/MicroController/MicMonu100/MicMonu100/Sensors.c ****         const uint8_t x2 = b->bb_x2*2;
 1475               	.LM134:
 1476 06be 2E8D      		ldd r18,Y+30
 1477 06c0 220F      		lsl r18
 394:/Users/manueldeneu/Documents/projets/dev/Monu100/MicroController/MicMonu100/MicMonu100/Sensors.c ****         const uint8_t y1 = (14-b->bb_y1)*2;
 1479               	.LM135:
 1480 06c2 8C8D      		ldd r24,Y+28
 1481 06c4 9D8D      		ldd r25,Y+29
 1482 06c6 481B      		sub r20,r24
 1483 06c8 590B      		sbc r21,r25
 1484 06ca 440F      		lsl r20
 393:/Users/manueldeneu/Documents/projets/dev/Monu100/MicroController/MicMonu100/MicMonu100/Sensors.c ****         const uint8_t x1 = b->bb_x1*2;
 1486               	.LM136:
 1487 06cc 6A8D      		ldd r22,Y+26
 1488 06ce 660F      		lsl r22
 398:/Users/manueldeneu/Documents/projets/dev/Monu100/MicroController/MicMonu100/MicMonu100/Sensors.c ****         
 399:/Users/manueldeneu/Documents/projets/dev/Monu100/MicroController/MicMonu100/MicMonu100/Sensors.c ****         display_fillZone( sensors->display , x1, y1, x2 , y2 );
 1490               	.LM137:
 1491 06d0 F701      		movw r30,r14
 1492 06d2 8081      		ld r24,Z
 1493 06d4 9181      		ldd r25,Z+1
 1494 06d6 0E94 0000 		call display_fillZone
 1495               	.L56:
 1496               	/* epilogue start */
 1497               	.LBE39:
 400:/Users/manueldeneu/Documents/projets/dev/Monu100/MicroController/MicMonu100/MicMonu100/Sensors.c ****     }
 401:/Users/manueldeneu/Documents/projets/dev/Monu100/MicroController/MicMonu100/MicMonu100/Sensors.c ****     
 402:/Users/manueldeneu/Documents/projets/dev/Monu100/MicroController/MicMonu100/MicMonu100/Sensors.c ****     else if (b->color == BLOB_LIGHT )
 403:/Users/manueldeneu/Documents/projets/dev/Monu100/MicroController/MicMonu100/MicMonu100/Sensors.c ****     {
 404:/Users/manueldeneu/Documents/projets/dev/Monu100/MicroController/MicMonu100/MicMonu100/Sensors.c ****         display_drawCircle(sensors->display, x, y, b->size);
 405:/Users/manueldeneu/Documents/projets/dev/Monu100/MicroController/MicMonu100/MicMonu100/Sensors.c ****     }
 406:/Users/manueldeneu/Documents/projets/dev/Monu100/MicroController/MicMonu100/MicMonu100/Sensors.c **** 
 407:/Users/manueldeneu/Documents/projets/dev/Monu100/MicroController/MicMonu100/MicMonu100/Sensors.c **** 
 408:/Users/manueldeneu/Documents/projets/dev/Monu100/MicroController/MicMonu100/MicMonu100/Sensors.c **** 
 409:/Users/manueldeneu/Documents/projets/dev/Monu100/MicroController/MicMonu100/MicMonu100/Sensors.c **** }
 1499               	.LM138:
 1500 06da DF91      		pop r29
 1501 06dc CF91      		pop r28
 1502 06de 1F91      		pop r17
 1503 06e0 0F91      		pop r16
 1504 06e2 FF90      		pop r15
 1505 06e4 EF90      		pop r14
 1506 06e6 0895      		ret
 1508               	.Lscope10:
 1512               	.global	init_pixel_stream_hook
 1514               	init_pixel_stream_hook:
 410:/Users/manueldeneu/Documents/projets/dev/Monu100/MicroController/MicMonu100/MicMonu100/Sensors.c **** 
 411:/Users/manueldeneu/Documents/projets/dev/Monu100/MicroController/MicMonu100/MicMonu100/Sensors.c **** /* **** **** **** **** **** **** **** **** **** **** **** **** **** **** **** **** **** */
 412:/Users/manueldeneu/Documents/projets/dev/Monu100/MicroController/MicMonu100/MicMonu100/Sensors.c **** 
 413:/Users/manueldeneu/Documents/projets/dev/Monu100/MicroController/MicMonu100/MicMonu100/Sensors.c **** int init_pixel_stream_hook(void* user_struct, struct stream_state* stream)
 414:/Users/manueldeneu/Documents/projets/dev/Monu100/MicroController/MicMonu100/MicMonu100/Sensors.c **** {
 1516               	.LM139:
 1517               	.LFBB11:
 1518               	/* prologue: function */
 1519               	/* frame size = 0 */
 1520               	/* stack size = 0 */
 1521               	.L__stack_usage = 0
 1522 06e8 FB01      		movw r30,r22
 415:/Users/manueldeneu/Documents/projets/dev/Monu100/MicroController/MicMonu100/MicMonu100/Sensors.c **** 
 416:/Users/manueldeneu/Documents/projets/dev/Monu100/MicroController/MicMonu100/MicMonu100/Sensors.c ****     Sensors* sensors = ( Sensors* ) user_struct;
 417:/Users/manueldeneu/Documents/projets/dev/Monu100/MicroController/MicMonu100/MicMonu100/Sensors.c ****     sensors->currentRow = 0;
 1524               	.LM140:
 1525 06ea 8053      		subi r24,48
 1526 06ec 9E4F      		sbci r25,-2
 1527 06ee DC01      		movw r26,r24
 1528 06f0 1C92      		st X,__zero_reg__
 418:/Users/manueldeneu/Documents/projets/dev/Monu100/MicroController/MicMonu100/MicMonu100/Sensors.c ****     
 419:/Users/manueldeneu/Documents/projets/dev/Monu100/MicroController/MicMonu100/MicMonu100/Sensors.c ****     stream->w = SENSOR_COUNT;
 1530               	.LM141:
 1531 06f2 8FE0      		ldi r24,lo8(15)
 1532 06f4 90E0      		ldi r25,0
 1533 06f6 9183      		std Z+1,r25
 1534 06f8 8083      		st Z,r24
 420:/Users/manueldeneu/Documents/projets/dev/Monu100/MicroController/MicMonu100/MicMonu100/Sensors.c ****     stream->h = SENSOR_COUNT;
 1536               	.LM142:
 1537 06fa 9383      		std Z+3,r25
 1538 06fc 8283      		std Z+2,r24
 421:/Users/manueldeneu/Documents/projets/dev/Monu100/MicroController/MicMonu100/MicMonu100/Sensors.c ****     stream->x = 0;
 1540               	.LM143:
 1541 06fe 1582      		std Z+5,__zero_reg__
 1542 0700 1482      		std Z+4,__zero_reg__
 422:/Users/manueldeneu/Documents/projets/dev/Monu100/MicroController/MicMonu100/MicMonu100/Sensors.c ****     stream->y = 0;
 1544               	.LM144:
 1545 0702 1782      		std Z+7,__zero_reg__
 1546 0704 1682      		std Z+6,__zero_reg__
 423:/Users/manueldeneu/Documents/projets/dev/Monu100/MicroController/MicMonu100/MicMonu100/Sensors.c ****     
 424:/Users/manueldeneu/Documents/projets/dev/Monu100/MicroController/MicMonu100/MicMonu100/Sensors.c ****     return 0;
 425:/Users/manueldeneu/Documents/projets/dev/Monu100/MicroController/MicMonu100/MicMonu100/Sensors.c **** }
 1548               	.LM145:
 1549 0706 80E0      		ldi r24,0
 1550 0708 90E0      		ldi r25,0
 1551 070a 0895      		ret
 1553               	.Lscope11:
 1557               	.global	close_pixel_stream_hook
 1559               	close_pixel_stream_hook:
 426:/Users/manueldeneu/Documents/projets/dev/Monu100/MicroController/MicMonu100/MicMonu100/Sensors.c **** 
 427:/Users/manueldeneu/Documents/projets/dev/Monu100/MicroController/MicMonu100/MicMonu100/Sensors.c **** /* **** **** **** **** **** **** **** **** **** **** **** **** **** **** **** **** **** */
 428:/Users/manueldeneu/Documents/projets/dev/Monu100/MicroController/MicMonu100/MicMonu100/Sensors.c **** 
 429:/Users/manueldeneu/Documents/projets/dev/Monu100/MicroController/MicMonu100/MicMonu100/Sensors.c **** int close_pixel_stream_hook(void* user_struct, struct stream_state* stream)
 430:/Users/manueldeneu/Documents/projets/dev/Monu100/MicroController/MicMonu100/MicMonu100/Sensors.c **** {
 1561               	.LM146:
 1562               	.LFBB12:
 1563               	/* prologue: function */
 1564               	/* frame size = 0 */
 1565               	/* stack size = 0 */
 1566               	.L__stack_usage = 0
 431:/Users/manueldeneu/Documents/projets/dev/Monu100/MicroController/MicMonu100/MicMonu100/Sensors.c **** 
 432:/Users/manueldeneu/Documents/projets/dev/Monu100/MicroController/MicMonu100/MicMonu100/Sensors.c ****     return 0;
 433:/Users/manueldeneu/Documents/projets/dev/Monu100/MicroController/MicMonu100/MicMonu100/Sensors.c **** }
 1568               	.LM147:
 1569 070c 80E0      		ldi r24,0
 1570 070e 90E0      		ldi r25,0
 1571 0710 0895      		ret
 1573               	.Lscope12:
 1577               	.global	next_row_hook
 1579               	next_row_hook:
 434:/Users/manueldeneu/Documents/projets/dev/Monu100/MicroController/MicMonu100/MicMonu100/Sensors.c **** 
 435:/Users/manueldeneu/Documents/projets/dev/Monu100/MicroController/MicMonu100/MicMonu100/Sensors.c **** /* **** **** **** **** **** **** **** **** **** **** **** **** **** **** **** **** **** */
 436:/Users/manueldeneu/Documents/projets/dev/Monu100/MicroController/MicMonu100/MicMonu100/Sensors.c **** 
 437:/Users/manueldeneu/Documents/projets/dev/Monu100/MicroController/MicMonu100/MicMonu100/Sensors.c **** int next_row_hook(void* user_struct, struct stream_state* stream)
 438:/Users/manueldeneu/Documents/projets/dev/Monu100/MicroController/MicMonu100/MicMonu100/Sensors.c **** {
 1581               	.LM148:
 1582               	.LFBB13:
 1583 0712 CF93      		push r28
 1584 0714 DF93      		push r29
 1585               	/* prologue: function */
 1586               	/* frame size = 0 */
 1587               	/* stack size = 2 */
 1588               	.L__stack_usage = 2
 439:/Users/manueldeneu/Documents/projets/dev/Monu100/MicroController/MicMonu100/MicMonu100/Sensors.c ****     Sensors* sensors = ( Sensors* ) user_struct;
 440:/Users/manueldeneu/Documents/projets/dev/Monu100/MicroController/MicMonu100/MicMonu100/Sensors.c **** 
 441:/Users/manueldeneu/Documents/projets/dev/Monu100/MicroController/MicMonu100/MicMonu100/Sensors.c ****     if ( sensors->currentRow == SENSOR_COUNT)
 1590               	.LM149:
 1591 0716 EC01      		movw r28,r24
 1592 0718 C053      		subi r28,48
 1593 071a DE4F      		sbci r29,-2
 1594 071c 2881      		ld r18,Y
 1595 071e 2F30      		cpi r18,lo8(15)
 1596 0720 01F0      		breq .L62
 442:/Users/manueldeneu/Documents/projets/dev/Monu100/MicroController/MicMonu100/MicMonu100/Sensors.c ****     {
 443:/Users/manueldeneu/Documents/projets/dev/Monu100/MicroController/MicMonu100/MicMonu100/Sensors.c ****         
 444:/Users/manueldeneu/Documents/projets/dev/Monu100/MicroController/MicMonu100/MicMonu100/Sensors.c ****         return -1;
 445:/Users/manueldeneu/Documents/projets/dev/Monu100/MicroController/MicMonu100/MicMonu100/Sensors.c ****     }
 446:/Users/manueldeneu/Documents/projets/dev/Monu100/MicroController/MicMonu100/MicMonu100/Sensors.c ****     
 447:/Users/manueldeneu/Documents/projets/dev/Monu100/MicroController/MicMonu100/MicMonu100/Sensors.c ****     readRow( sensors , stream->row );
 1598               	.LM150:
 1599 0722 FB01      		movw r30,r22
 1600 0724 6285      		ldd r22,Z+10
 1601 0726 7385      		ldd r23,Z+11
 1602 0728 0E94 0000 		call readRow
 448:/Users/manueldeneu/Documents/projets/dev/Monu100/MicroController/MicMonu100/MicMonu100/Sensors.c **** 
 449:/Users/manueldeneu/Documents/projets/dev/Monu100/MicroController/MicMonu100/MicMonu100/Sensors.c ****     sensors->currentRow++;
 1604               	.LM151:
 1605 072c 8881      		ld r24,Y
 1606 072e 8F5F      		subi r24,lo8(-(1))
 1607 0730 8883      		st Y,r24
 450:/Users/manueldeneu/Documents/projets/dev/Monu100/MicroController/MicMonu100/MicMonu100/Sensors.c ****     
 451:/Users/manueldeneu/Documents/projets/dev/Monu100/MicroController/MicMonu100/MicMonu100/Sensors.c **** 
 452:/Users/manueldeneu/Documents/projets/dev/Monu100/MicroController/MicMonu100/MicMonu100/Sensors.c ****     
 453:/Users/manueldeneu/Documents/projets/dev/Monu100/MicroController/MicMonu100/MicMonu100/Sensors.c ****     return 0;
 1609               	.LM152:
 1610 0732 80E0      		ldi r24,0
 1611 0734 90E0      		ldi r25,0
 1612 0736 00C0      		rjmp .L61
 1613               	.L62:
 444:/Users/manueldeneu/Documents/projets/dev/Monu100/MicroController/MicMonu100/MicMonu100/Sensors.c ****         return -1;
 1615               	.LM153:
 1616 0738 8FEF      		ldi r24,lo8(-1)
 1617 073a 9FEF      		ldi r25,lo8(-1)
 1618               	.L61:
 1619               	/* epilogue start */
 454:/Users/manueldeneu/Documents/projets/dev/Monu100/MicroController/MicMonu100/MicMonu100/Sensors.c **** }
 1621               	.LM154:
 1622 073c DF91      		pop r29
 1623 073e CF91      		pop r28
 1624 0740 0895      		ret
 1626               	.Lscope13:
 1630               	.global	next_frame_hook
 1632               	next_frame_hook:
 455:/Users/manueldeneu/Documents/projets/dev/Monu100/MicroController/MicMonu100/MicMonu100/Sensors.c **** 
 456:/Users/manueldeneu/Documents/projets/dev/Monu100/MicroController/MicMonu100/MicMonu100/Sensors.c **** /* **** **** **** **** **** **** **** **** **** **** **** **** **** **** **** **** **** */
 457:/Users/manueldeneu/Documents/projets/dev/Monu100/MicroController/MicMonu100/MicMonu100/Sensors.c **** 
 458:/Users/manueldeneu/Documents/projets/dev/Monu100/MicroController/MicMonu100/MicMonu100/Sensors.c **** int next_frame_hook(void* user_struct, struct stream_state* stream)
 459:/Users/manueldeneu/Documents/projets/dev/Monu100/MicroController/MicMonu100/MicMonu100/Sensors.c **** {
 1634               	.LM155:
 1635               	.LFBB14:
 1636 0742 CF93      		push r28
 1637 0744 DF93      		push r29
 1638               	/* prologue: function */
 1639               	/* frame size = 0 */
 1640               	/* stack size = 2 */
 1641               	.L__stack_usage = 2
 460:/Users/manueldeneu/Documents/projets/dev/Monu100/MicroController/MicMonu100/MicMonu100/Sensors.c ****     
 461:/Users/manueldeneu/Documents/projets/dev/Monu100/MicroController/MicMonu100/MicMonu100/Sensors.c ****     Sensors* sensors = ( Sensors*) user_struct;
 462:/Users/manueldeneu/Documents/projets/dev/Monu100/MicroController/MicMonu100/MicMonu100/Sensors.c ****     sensors->currentRow = 0;
 1643               	.LM156:
 1644 0746 EC01      		movw r28,r24
 1645 0748 C053      		subi r28,48
 1646 074a DE4F      		sbci r29,-2
 1647 074c 1882      		st Y,__zero_reg__
 463:/Users/manueldeneu/Documents/projets/dev/Monu100/MicroController/MicMonu100/MicMonu100/Sensors.c ****     
 464:/Users/manueldeneu/Documents/projets/dev/Monu100/MicroController/MicMonu100/MicMonu100/Sensors.c ****     
 465:/Users/manueldeneu/Documents/projets/dev/Monu100/MicroController/MicMonu100/MicMonu100/Sensors.c ****     userCall();
 1649               	.LM157:
 1650 074e 0E94 0000 		call userCall
 466:/Users/manueldeneu/Documents/projets/dev/Monu100/MicroController/MicMonu100/MicMonu100/Sensors.c ****     
 467:/Users/manueldeneu/Documents/projets/dev/Monu100/MicroController/MicMonu100/MicMonu100/Sensors.c ****     if ( sensors->currentRow == SENSOR_COUNT)
 1652               	.LM158:
 1653 0752 8881      		ld r24,Y
 1654 0754 8F30      		cpi r24,lo8(15)
 1655 0756 01F4      		brne .L65
 468:/Users/manueldeneu/Documents/projets/dev/Monu100/MicroController/MicMonu100/MicMonu100/Sensors.c ****     {
 469:/Users/manueldeneu/Documents/projets/dev/Monu100/MicroController/MicMonu100/MicMonu100/Sensors.c ****         sensors->currentRow = 0;
 1657               	.LM159:
 1658 0758 1882      		st Y,__zero_reg__
 470:/Users/manueldeneu/Documents/projets/dev/Monu100/MicroController/MicMonu100/MicMonu100/Sensors.c ****         return -1;
 1660               	.LM160:
 1661 075a 8FEF      		ldi r24,lo8(-1)
 1662 075c 9FEF      		ldi r25,lo8(-1)
 1663 075e 00C0      		rjmp .L64
 1664               	.L65:
 471:/Users/manueldeneu/Documents/projets/dev/Monu100/MicroController/MicMonu100/MicMonu100/Sensors.c ****     }
 472:/Users/manueldeneu/Documents/projets/dev/Monu100/MicroController/MicMonu100/MicMonu100/Sensors.c **** 
 473:/Users/manueldeneu/Documents/projets/dev/Monu100/MicroController/MicMonu100/MicMonu100/Sensors.c **** 
 474:/Users/manueldeneu/Documents/projets/dev/Monu100/MicroController/MicMonu100/MicMonu100/Sensors.c ****     
 475:/Users/manueldeneu/Documents/projets/dev/Monu100/MicroController/MicMonu100/MicMonu100/Sensors.c **** 
 476:/Users/manueldeneu/Documents/projets/dev/Monu100/MicroController/MicMonu100/MicMonu100/Sensors.c ****     return 0;
 1666               	.LM161:
 1667 0760 80E0      		ldi r24,0
 1668 0762 90E0      		ldi r25,0
 1669               	.L64:
 1670               	/* epilogue start */
 477:/Users/manueldeneu/Documents/projets/dev/Monu100/MicroController/MicMonu100/MicMonu100/Sensors.c **** }
 1672               	.LM162:
 1673 0764 DF91      		pop r29
 1674 0766 CF91      		pop r28
 1675 0768 0895      		ret
 1677               	.Lscope14:
 1679               	.Letext0:
 1680               		.ident	"GCC: (GNU) 4.8.1"
DEFINED SYMBOLS
                            *ABS*:00000000 Sensors.c
/var/folders/yp/wn04j3ms5mn9jhx6j8jq8l4c0000gn/T//ccOFHeHk.s:2      *ABS*:0000003e __SP_H__
/var/folders/yp/wn04j3ms5mn9jhx6j8jq8l4c0000gn/T//ccOFHeHk.s:3      *ABS*:0000003d __SP_L__
/var/folders/yp/wn04j3ms5mn9jhx6j8jq8l4c0000gn/T//ccOFHeHk.s:4      *ABS*:0000003f __SREG__
/var/folders/yp/wn04j3ms5mn9jhx6j8jq8l4c0000gn/T//ccOFHeHk.s:5      *ABS*:0000003b __RAMPZ__
/var/folders/yp/wn04j3ms5mn9jhx6j8jq8l4c0000gn/T//ccOFHeHk.s:6      *ABS*:00000000 __tmp_reg__
/var/folders/yp/wn04j3ms5mn9jhx6j8jq8l4c0000gn/T//ccOFHeHk.s:7      *ABS*:00000001 __zero_reg__
/var/folders/yp/wn04j3ms5mn9jhx6j8jq8l4c0000gn/T//ccOFHeHk.s:133    .text:00000000 adc_init
/var/folders/yp/wn04j3ms5mn9jhx6j8jq8l4c0000gn/T//ccOFHeHk.s:210    .text:0000004c sensors_resetCalibration
/var/folders/yp/wn04j3ms5mn9jhx6j8jq8l4c0000gn/T//ccOFHeHk.s:264    .text:0000007c sensors_init
/var/folders/yp/wn04j3ms5mn9jhx6j8jq8l4c0000gn/T//ccOFHeHk.s:378    .text:000000f0 sensors_calibration
/var/folders/yp/wn04j3ms5mn9jhx6j8jq8l4c0000gn/T//ccOFHeHk.s:783    .text:00000340 readFrame
/var/folders/yp/wn04j3ms5mn9jhx6j8jq8l4c0000gn/T//ccOFHeHk.s:803    .text:00000344 readRow
/var/folders/yp/wn04j3ms5mn9jhx6j8jq8l4c0000gn/T//ccOFHeHk.s:1063   .text:000004b4 readAll
/var/folders/yp/wn04j3ms5mn9jhx6j8jq8l4c0000gn/T//ccOFHeHk.s:1169   .text:00000548 sensors_drawInter
/var/folders/yp/wn04j3ms5mn9jhx6j8jq8l4c0000gn/T//ccOFHeHk.s:1296   .text:000005ea analyze
/var/folders/yp/wn04j3ms5mn9jhx6j8jq8l4c0000gn/T//ccOFHeHk.s:1425   .text:0000067a log_blob_hook
/var/folders/yp/wn04j3ms5mn9jhx6j8jq8l4c0000gn/T//ccOFHeHk.s:1514   .text:000006e8 init_pixel_stream_hook
/var/folders/yp/wn04j3ms5mn9jhx6j8jq8l4c0000gn/T//ccOFHeHk.s:1559   .text:0000070c close_pixel_stream_hook
/var/folders/yp/wn04j3ms5mn9jhx6j8jq8l4c0000gn/T//ccOFHeHk.s:1579   .text:00000712 next_row_hook
/var/folders/yp/wn04j3ms5mn9jhx6j8jq8l4c0000gn/T//ccOFHeHk.s:1632   .text:00000742 next_frame_hook

UNDEFINED SYMBOLS
__floatunsisf
__addsf3
__floatsisf
__divsf3
__fixunssfsi
extract_image
__fixsfsi
__mulsf3
display_setFillColor
display_fillZone
display_clear
userCall
